(dp0
VOPI040-POS2
p1
(dp2
Vtype
p3
VWindows 7 Professional
p4
sVinstallDate
p5
V2012-02-22 16:38:00.000
p6
ssVGMC088-POS1
p7
(dp8
Vtype
p9
VWindows 7 Professional
p10
sVinstallDate
p11
V2011-08-31 11:07:00.000
p12
ssVMLH717-POS1
p13
(dp14
Vtype
p15
VWindows 7 Professional
p16
sVinstallDate
p17
V2011-08-31 11:07:00.000
p18
ssVABC233-POS1
p19
(dp20
Vtype
p21
VWindows 7 Professional
p22
sVinstallDate
p23
V2014-02-18 09:11:00.000
p24
ssVMLH100-POS1
p25
(dp26
Vtype
p27
VWindows XP Professional
p28
sVinstallDate
p29
V2008-06-26 14:23:00.000
p30
ssVGLE081-POS1
p31
(dp32
Vtype
p33
VWindows 7 Professional
p34
sVinstallDate
p35
V2011-08-31 11:07:00.000
p36
ssVGMC025-POS1
p37
(dp38
Vtype
p39
VWindows 7 Professional
p40
sVinstallDate
p41
V2011-08-31 11:07:00.000
p42
ssVTIS010-POS1
p43
(dp44
Vtype
p45
VWindows 7 Professional
p46
sVinstallDate
p47
V2011-08-31 11:07:00.000
p48
ssVINT009-POS2
p49
(dp50
Vtype
p51
VWindows 7 Professional
p52
sVinstallDate
p53
V2012-02-22 16:38:00.000
p54
ssVQUK015-POS1
p55
(dp56
Vtype
p57
VWindows 7 Professional
p58
sVinstallDate
p59
V2011-08-31 11:07:00.000
p60
ssVABC022-POS1
p61
(dp62
Vtype
p63
VWindows 7 Professional
p64
sVinstallDate
p65
V2011-08-31 11:07:00.000
p66
ssVQUK801-POS1
p67
(dp68
Vtype
p69
VWindows 7 Professional
p70
sVinstallDate
p71
V2011-08-31 11:07:00.000
p72
ssVINT046-POS1
p73
(dp74
Vtype
p75
VWindows 7 Professional
p76
sVinstallDate
p77
V2014-02-18 09:11:00.000
p78
ssVQUK024-POS1
p79
(dp80
Vtype
p81
VWindows 7 Professional
p82
sVinstallDate
p83
V2011-08-31 11:07:00.000
p84
ssVPAI002-S
p85
(dp86
Vtype
p87
VWindows XP Professional
p88
sVinstallDate
p89
V2008-06-26 14:23:00.000
p90
ssVMNH110-POS1
p91
(dp92
Vtype
p93
VWindows 7 Professional
p94
sVinstallDate
p95
V2011-08-31 11:07:00.000
p96
ssVGMC029-POS1
p97
(dp98
Vtype
p99
VWindows 7 Professional
p100
sVinstallDate
p101
V2011-08-31 11:07:00.000
p102
ssVABC019-POS1
p103
(dp104
Vtype
p105
VWindows 7 Professional
p106
sVinstallDate
p107
V2011-08-31 11:07:00.000
p108
ssVABC094-POS1
p109
(dp110
Vtype
p111
VWindows 7 Professional
p112
sVinstallDate
p113
NssVGMC066-S
p114
(dp115
Vtype
p116
VWindows XP Professional
p117
sVinstallDate
p118
V2007-05-15 15:50:00.000
p119
ssVTSQ200-S
p120
(dp121
Vtype
p122
VWindows 7 Professional
p123
sVinstallDate
p124
V2011-08-31 11:07:00.000
p125
ssVABC076-S
p126
(dp127
Vtype
p128
VWindows 7 Professional
p129
sVinstallDate
p130
V2011-08-31 11:07:00.000
p131
ssVPAI001-S
p132
(dp133
Vtype
p134
VWindows XP Professional
p135
sVinstallDate
p136
V2008-06-26 14:23:00.000
p137
ssVBNV011-S
p138
(dp139
Vtype
p140
VWindows XP Professional
p141
sVinstallDate
p142
V2007-05-15 15:50:00.000
p143
ssVMNH056-POS1
p144
(dp145
Vtype
p146
VWindows 7 Professional
p147
sVinstallDate
p148
V2011-08-31 11:07:00.000
p149
ssVMLH103-POS1
p150
(dp151
Vtype
p152
VWindows XP Professional
p153
sVinstallDate
p154
V2008-06-26 14:23:00.000
p155
ssVMAM031-S
p156
(dp157
Vtype
p158
VWindows XP Professional
p159
sVinstallDate
p160
V2007-05-15 15:50:00.000
p161
ssVMAM075-POS1
p162
(dp163
Vtype
p164
VWindows 7 Professional
p165
sVinstallDate
p166
V2011-08-31 11:07:00.000
p167
ssV_JunoPC
p168
(dp169
Vtype
p170
VWindows 7 Professional
p171
sVinstallDate
p172
V2015-05-22 17:23:00.000
p173
ssVGMC081-POS1
p174
(dp175
Vtype
p176
VWindows 7 Professional
p177
sVinstallDate
p178
V2011-08-31 11:07:00.000
p179
ssVMLH096-POS2
p180
(dp181
Vtype
p182
VWindows 7 Professional
p183
sVinstallDate
p184
V2011-08-31 11:07:00.000
p185
ssVMLH096-POS1
p186
(dp187
Vtype
p188
VWindows 7 Professional
p189
sVinstallDate
p190
V2011-08-31 11:07:00.000
p191
ssVKIN024-POS1
p192
(dp193
Vtype
p194
VWindows 7 Professional
p195
sVinstallDate
p196
V2011-08-31 11:07:00.000
p197
ssVABC005-POS1
p198
(dp199
Vtype
p200
VWindows 7 Professional
p201
sVinstallDate
p202
V2011-08-31 11:07:00.000
p203
ssVMLH732-POS1
p204
(dp205
Vtype
p206
VWindows XP Professional
p207
sVinstallDate
p208
V2008-06-26 14:23:00.000
p209
ssVMLH170-POS1
p210
(dp211
Vtype
p212
VWindows 7 Professional
p213
sVinstallDate
p214
V2011-08-31 11:07:00.000
p215
ssVINT650-S
p216
(dp217
Vtype
p218
VWindows XP Professional
p219
sVinstallDate
p220
V2008-06-26 14:23:00.000
p221
ssVGMC059-S
p222
(dp223
Vtype
p224
VWindows 7 Professional
p225
sVinstallDate
p226
V2011-08-31 11:07:00.000
p227
ssVIPK004-POS1
p228
(dp229
Vtype
p230
NsVinstallDate
p231
NssVMLH743-POS1
p232
(dp233
Vtype
p234
VWindows XP Professional
p235
sVinstallDate
p236
V2008-06-26 14:23:00.000
p237
ssVQUK184-POS1
p238
(dp239
Vtype
p240
VWindows 7 Professional
p241
sVinstallDate
p242
V2011-08-31 11:07:00.000
p243
ssVMLH065-POS1
p244
(dp245
Vtype
p246
VWindows XP Professional
p247
sVinstallDate
p248
V2008-06-26 14:23:00.000
p249
ssVMNH026-POS1
p250
(dp251
Vtype
p252
VWindows 7 Professional
p253
sVinstallDate
p254
V2011-08-31 11:07:00.000
p255
ssVCCA009-S
p256
(dp257
Vtype
p258
NsVinstallDate
p259
NssVMLH734-POS1
p260
(dp261
Vtype
p262
VWindows 7 Professional
p263
sVinstallDate
p264
V2011-08-31 11:07:00.000
p265
ssVABC-Office
p266
(dp267
Vtype
p268
VWindows 7 Professional
p269
sVinstallDate
p270
V2014-02-18 09:11:00.000
p271
ssVQUK100-POS2
p272
(dp273
Vtype
p274
VWindows 7 Professional
p275
sVinstallDate
p276
V2014-02-18 09:11:00.000
p277
ssVQUK100-POS1
p278
(dp279
Vtype
p280
VWindows 7 Professional
p281
sVinstallDate
p282
V2011-08-31 11:07:00.000
p283
ssVRDN055-S
p284
(dp285
Vtype
p286
VWindows 7 Professional
p287
sVinstallDate
p288
V2011-08-31 11:07:00.000
p289
ssVABC011-POS1
p290
(dp291
Vtype
p292
VWindows 7 Professional
p293
sVinstallDate
p294
V2011-08-31 11:07:00.000
p295
ssVABC257-POS1
p296
(dp297
Vtype
p298
VWindows 7 Professional
p299
sVinstallDate
p300
V2012-02-22 16:38:00.000
p301
ssVABC225-POS1
p302
(dp303
Vtype
p304
VWindows 7 Professional
p305
sVinstallDate
p306
V2014-02-18 09:11:00.000
p307
ssV_MichaelPC
p308
(dp309
Vtype
p310
VWindows 7 Professional x64 Edition
p311
sVinstallDate
p312
V2015-05-29 22:52:00.000
p313
ssVQUK058-POS1
p314
(dp315
Vtype
p316
VWindows 7 Professional
p317
sVinstallDate
p318
V2011-08-31 11:07:00.000
p319
ssV_MPK005-Test
p320
(dp321
Vtype
p322
VWindows 7 Professional
p323
sVinstallDate
p324
V2011-08-31 11:07:00.000
p325
ssVINT087-POS1
p326
(dp327
Vtype
p328
VWindows 7 Professional
p329
sVinstallDate
p330
V2012-02-22 16:38:00.000
p331
ssVABC248-POS2
p332
(dp333
Vtype
p334
VWindows 7 Professional
p335
sVinstallDate
p336
V2012-02-22 16:38:00.000
p337
ssVABC248-POS1
p338
(dp339
Vtype
p340
VWindows 7 Professional
p341
sVinstallDate
p342
V2012-02-22 16:38:00.000
p343
ssVRPD102-S
p344
(dp345
Vtype
p346
VWindows 7 Professional
p347
sVinstallDate
p348
V2011-08-31 11:07:00.000
p349
ssVMLH350-POS1
p350
(dp351
Vtype
p352
VWindows XP Professional
p353
sVinstallDate
p354
V2008-07-22 07:51:00.000
p355
ssVMLH350-POS2
p356
(dp357
Vtype
p358
VWindows XP Professional
p359
sVinstallDate
p360
V2008-07-22 07:51:00.000
p361
ssVMLH070-POS2
p362
(dp363
Vtype
p364
VWindows XP Professional
p365
sVinstallDate
p366
V2008-07-22 07:51:00.000
p367
ssVMLH797-POS1
p368
(dp369
Vtype
p370
VWindows XP Professional
p371
sVinstallDate
p372
V2008-07-22 07:51:00.000
p373
ssVMLH370-POS1
p374
(dp375
Vtype
p376
VWindows XP Professional
p377
sVinstallDate
p378
V2008-07-22 07:51:00.000
p379
ssVMLH070-POS1
p380
(dp381
Vtype
p382
VWindows XP Professional
p383
sVinstallDate
p384
V2008-07-22 07:51:00.000
p385
ssVRPD030-POS1
p386
(dp387
Vtype
p388
VWindows 7 Professional
p389
sVinstallDate
p390
V2011-08-31 11:07:00.000
p391
ssVRPD030-POS2
p392
(dp393
Vtype
p394
VWindows 7 Professional
p395
sVinstallDate
p396
V2011-08-31 11:07:00.000
p397
ssVMLH220-POS1
p398
(dp399
Vtype
p400
VWindows 7 Professional
p401
sVinstallDate
p402
V2011-08-31 11:07:00.000
p403
ssVMLH728-POS1
p404
(dp405
Vtype
p406
VWindows 7 Professional
p407
sVinstallDate
p408
V2011-08-31 11:07:00.000
p409
ssVMLH742-POS1
p410
(dp411
Vtype
p412
VWindows 7 Professional
p413
sVinstallDate
p414
V2011-08-31 11:07:00.000
p415
ssVABC053-S
p416
(dp417
Vtype
p418
VWindows 7 Professional
p419
sVinstallDate
p420
V2011-08-31 11:07:00.000
p421
ssVGLE003-POS1
p422
(dp423
Vtype
p424
VWindows 7 Professional
p425
sVinstallDate
p426
V2012-02-22 16:38:00.000
p427
ssVABC028-S
p428
(dp429
Vtype
p430
VWindows 7 Professional
p431
sVinstallDate
p432
V2011-08-31 11:07:00.000
p433
ssVTSQ202-POS1
p434
(dp435
Vtype
p436
VWindows 7 Professional
p437
sVinstallDate
p438
V2011-08-31 11:07:00.000
p439
ssVCCA008-S
p440
(dp441
Vtype
p442
NsVinstallDate
p443
NssVABC097-S
p444
(dp445
Vtype
p446
VWindows 7 Professional
p447
sVinstallDate
p448
V2011-08-31 11:07:00.000
p449
ssVMLH106-POS1
p450
(dp451
Vtype
p452
VWindows XP Professional
p453
sVinstallDate
p454
V2008-06-26 14:23:00.000
p455
ssVABC095-POS1
p456
(dp457
Vtype
p458
VWindows 7 Professional
p459
sVinstallDate
p460
V2014-02-18 09:11:00.000
p461
ssVSEL036-POS1
p462
(dp463
Vtype
p464
NsVinstallDate
p465
NssVKIN070-POS1
p466
(dp467
Vtype
p468
VWindows 7 Professional
p469
sVinstallDate
p470
V2011-08-31 11:07:00.000
p471
ssVSYL001-S
p472
(dp473
Vtype
p474
VWindows 7 Professional
p475
sVinstallDate
p476
V2011-08-31 11:07:00.000
p477
ssVQUK720-POS1
p478
(dp479
Vtype
p480
VWindows 7 Professional
p481
sVinstallDate
p482
V2012-02-22 16:38:00.000
p483
ssVQUK017-POS1
p484
(dp485
Vtype
p486
VWindows 7 Professional
p487
sVinstallDate
p488
V2011-08-31 11:07:00.000
p489
ssVMNH030-S
p490
(dp491
Vtype
p492
VWindows XP Professional
p493
sVinstallDate
p494
V2008-06-26 14:23:00.000
p495
ssVGLE102-POS1
p496
(dp497
Vtype
p498
VWindows 7 Professional
p499
sVinstallDate
p500
V2011-08-31 11:07:00.000
p501
ssVABC154-POS1
p502
(dp503
Vtype
p504
VWindows 7 Professional
p505
sVinstallDate
p506
V2012-02-22 16:38:00.000
p507
ssVPRK043-S
p508
(dp509
Vtype
p510
VWindows 7 Professional
p511
sVinstallDate
p512
V2011-08-31 11:07:00.000
p513
ssVQUK090-POS1
p514
(dp515
Vtype
p516
VWindows 7 Professional
p517
sVinstallDate
p518
V2011-08-31 11:07:00.000
p519
ssVRDN071-S
p520
(dp521
Vtype
p522
VWindows 7 Professional
p523
sVinstallDate
p524
V2011-08-31 11:07:00.000
p525
ssVQUK587-POS1
p526
(dp527
Vtype
p528
VWindows 7 Professional
p529
sVinstallDate
p530
V2011-08-31 11:07:00.000
p531
ssVABC058-S
p532
(dp533
Vtype
p534
VWindows 7 Professional
p535
sVinstallDate
p536
V2011-08-31 11:07:00.000
p537
ssVMLH763-POS1
p538
(dp539
Vtype
p540
VWindows XP Professional
p541
sVinstallDate
p542
V2008-06-26 14:23:00.000
p543
ssVOPI503-POS1
p544
(dp545
Vtype
p546
VWindows 7 Professional
p547
sVinstallDate
p548
V2011-08-31 11:07:00.000
p549
ssVMLH741-POS1
p550
(dp551
Vtype
p552
VWindows 7 Professional
p553
sVinstallDate
p554
V2011-08-31 11:07:00.000
p555
ssVABC067-S
p556
(dp557
Vtype
p558
VWindows 7 Professional
p559
sVinstallDate
p560
V2011-08-31 11:07:00.000
p561
ssVABC019-S
p562
(dp563
Vtype
p564
VWindows 7 Professional
p565
sVinstallDate
p566
V2011-08-31 11:07:00.000
p567
ssV_MPK064-POS1
p568
(dp569
Vtype
p570
VWindows 7 Professional
p571
sVinstallDate
p572
V2014-02-18 09:11:00.000
p573
ssVGLE046-POS1
p574
(dp575
Vtype
p576
VWindows 7 Professional
p577
sVinstallDate
p578
V2011-08-31 11:07:00.000
p579
ssVMLH911-POS1
p580
(dp581
Vtype
p582
VWindows 7 Professional
p583
sVinstallDate
p584
V2011-08-31 11:07:00.000
p585
ssVMLH746-POS1
p586
(dp587
Vtype
p588
VWindows XP Professional
p589
sVinstallDate
p590
V2008-06-26 14:23:00.000
p591
ssVMLH750-POS1
p592
(dp593
Vtype
p594
VWindows XP Professional
p595
sVinstallDate
p596
V2008-07-22 07:51:00.000
p597
ssVMLH112-POS1
p598
(dp599
Vtype
p600
VWindows XP Professional
p601
sVinstallDate
p602
V2008-06-26 14:23:00.000
p603
ssVMLH256-POS1
p604
(dp605
Vtype
p606
VWindows 7 Professional
p607
sVinstallDate
p608
V2011-08-31 11:07:00.000
p609
ssVCPS029-S
p610
(dp611
Vtype
p612
VWindows 7 Professional
p613
sVinstallDate
p614
V2011-08-31 11:07:00.000
p615
ssVABC240-S
p616
(dp617
Vtype
p618
VWindows 7 Professional
p619
sVinstallDate
p620
V2014-02-18 09:11:00.000
p621
ssVABC049-S
p622
(dp623
Vtype
p624
VWindows 7 Professional
p625
sVinstallDate
p626
V2011-08-31 11:07:00.000
p627
ssVCPS026-S
p628
(dp629
Vtype
p630
VWindows 7 Professional
p631
sVinstallDate
p632
V2011-08-31 11:07:00.000
p633
ssVABC007-POS1
p634
(dp635
Vtype
p636
VWindows 7 Professional
p637
sVinstallDate
p638
V2011-08-31 11:07:00.000
p639
ssVTIS016-POS1
p640
(dp641
Vtype
p642
NsVinstallDate
p643
NssVOPI084-POS1
p644
(dp645
Vtype
p646
VWindows 7 Professional
p647
sVinstallDate
p648
V2012-02-22 16:38:00.000
p649
ssVMLH880-POS1
p650
(dp651
Vtype
p652
VWindows XP Professional
p653
sVinstallDate
p654
V2008-07-22 07:51:00.000
p655
ssVMLH110-POS2
p656
(dp657
Vtype
p658
VWindows 7 Professional
p659
sVinstallDate
p660
V2011-08-31 11:07:00.000
p661
ssVMLH110-POS1
p662
(dp663
Vtype
p664
VWindows 7 Professional
p665
sVinstallDate
p666
V2011-08-31 11:07:00.000
p667
ssVMLH610-POS1
p668
(dp669
Vtype
p670
VWindows 7 Professional
p671
sVinstallDate
p672
V2011-08-31 11:07:00.000
p673
ssVSEL185-S
p674
(dp675
Vtype
p676
VWindows XP Professional
p677
sVinstallDate
p678
V2008-06-26 14:23:00.000
p679
ssVMTP057-POS1
p680
(dp681
Vtype
p682
VWindows 7 Professional
p683
sVinstallDate
p684
V2011-08-31 11:07:00.000
p685
ssVTSQ100-S
p686
(dp687
Vtype
p688
VWindows 7 Professional
p689
sVinstallDate
p690
V2011-08-31 11:07:00.000
p691
ssVMLH761-POS1
p692
(dp693
Vtype
p694
VWindows 7 Professional
p695
sVinstallDate
p696
V2012-02-22 16:38:00.000
p697
ssVMLH752-POS2
p698
(dp699
Vtype
p700
VWindows XP Professional
p701
sVinstallDate
p702
V2008-07-22 07:51:00.000
p703
ssVMLH752-POS1
p704
(dp705
Vtype
p706
VWindows XP Professional
p707
sVinstallDate
p708
V2008-07-22 07:51:00.000
p709
ssVMLH048-POS2
p710
(dp711
Vtype
p712
VWindows 7 Professional
p713
sVinstallDate
p714
V2011-08-31 11:07:00.000
p715
ssVMLH107-POS2
p716
(dp717
Vtype
p718
VWindows 7 Professional
p719
sVinstallDate
p720
V2011-08-31 11:07:00.000
p721
ssVABC034-S
p722
(dp723
Vtype
p724
VWindows 7 Professional
p725
sVinstallDate
p726
V2011-08-31 11:07:00.000
p727
ssVSEL047-S
p728
(dp729
Vtype
p730
VWindows XP Professional
p731
sVinstallDate
p732
V2008-06-26 14:23:00.000
p733
ssVGMC077-POS1
p734
(dp735
Vtype
p736
VWindows 7 Professional
p737
sVinstallDate
p738
V2011-08-31 11:07:00.000
p739
ssVSEL180-S
p740
(dp741
Vtype
p742
NsVinstallDate
p743
NssVMLH900-POS2
p744
(dp745
Vtype
p746
VWindows XP Professional
p747
sVinstallDate
p748
V2008-07-22 07:51:00.000
p749
ssVMLH766-POS1
p750
(dp751
Vtype
p752
VWindows XP Professional
p753
sVinstallDate
p754
V2008-06-26 14:23:00.000
p755
ssVMLH900-POS1
p756
(dp757
Vtype
p758
VWindows XP Professional
p759
sVinstallDate
p760
V2008-07-22 07:51:00.000
p761
ssVABC093-S
p762
(dp763
Vtype
p764
VWindows 7 Professional
p765
sVinstallDate
p766
V2011-08-31 11:07:00.000
p767
ssVBNV010-S
p768
(dp769
Vtype
p770
VWindows XP Professional
p771
sVinstallDate
p772
V2007-02-14 14:44:00.000
p773
ssVQUK706-POS1
p774
(dp775
Vtype
p776
VWindows 7 Professional
p777
sVinstallDate
p778
V2011-08-31 11:07:00.000
p779
ssVSBU001-POS1
p780
(dp781
Vtype
p782
VWindows XP Professional
p783
sVinstallDate
p784
V2008-07-22 07:51:00.000
p785
ssVRPD480-POS2
p786
(dp787
Vtype
p788
VWindows 7 Professional
p789
sVinstallDate
p790
V2011-08-31 11:07:00.000
p791
ssVRPD480-POS1
p792
(dp793
Vtype
p794
VWindows 7 Professional
p795
sVinstallDate
p796
V2011-08-31 11:07:00.000
p797
ssVMLH727-POS1
p798
(dp799
Vtype
p800
VWindows 7 Professional
p801
sVinstallDate
p802
V2011-08-31 11:07:00.000
p803
ssVMNH073-POS1
p804
(dp805
Vtype
p806
VWindows 7 Professional
p807
sVinstallDate
p808
V2015-02-02 16:25:00.000
p809
ssVMLH119-POS1
p810
(dp811
Vtype
p812
VWindows 7 Professional
p813
sVinstallDate
p814
V2010-12-01 15:12:00.000
p815
ssVQUK065-POS1
p816
(dp817
Vtype
p818
VWindows 7 Professional
p819
sVinstallDate
p820
V2011-08-31 11:07:00.000
p821
ssVMLH240-POS1
p822
(dp823
Vtype
p824
VWindows 7 Professional
p825
sVinstallDate
p826
V2011-08-31 11:07:00.000
p827
ssVMLH089-POS1
p828
(dp829
Vtype
p830
VWindows 7 Professional
p831
sVinstallDate
p832
V2011-08-31 11:07:00.000
p833
ssVKIN004-POS1
p834
(dp835
Vtype
p836
VWindows 7 Professional
p837
sVinstallDate
p838
V2011-08-31 11:07:00.000
p839
ssVRDN002-POS2
p840
(dp841
Vtype
p842
VWindows 7 Professional
p843
sVinstallDate
p844
V2011-08-31 11:07:00.000
p845
ssVGMC040-POS1
p846
(dp847
Vtype
p848
VWindows 7 Professional
p849
sVinstallDate
p850
V2011-08-31 11:07:00.000
p851
ssVPRK100-S
p852
(dp853
Vtype
p854
VWindows 7 Professional
p855
sVinstallDate
p856
V2011-08-31 11:07:00.000
p857
ssVRDN002-POS1
p858
(dp859
Vtype
p860
VWindows 7 Professional
p861
sVinstallDate
p862
V2011-08-31 11:07:00.000
p863
ssVABC030-S
p864
(dp865
Vtype
p866
VWindows 7 Professional
p867
sVinstallDate
p868
V2011-08-31 11:07:00.000
p869
ssVTIS009-KIOSK
p870
(dp871
Vtype
p872
NsVinstallDate
p873
NssVRPD089-POS1
p874
(dp875
Vtype
p876
VWindows 7 Professional
p877
sVinstallDate
p878
V2011-08-31 11:07:00.000
p879
ssVKIN005-POS1
p880
(dp881
Vtype
p882
VWindows 7 Professional
p883
sVinstallDate
p884
V2011-08-31 11:07:00.000
p885
ssVMLH102-POS1
p886
(dp887
Vtype
p888
VWindows XP Professional
p889
sVinstallDate
p890
V2008-06-26 14:23:00.000
p891
ssVMLH102-POS2
p892
(dp893
Vtype
p894
VWindows XP Professional
p895
sVinstallDate
p896
V2008-06-26 14:23:00.000
p897
ssVMNH320-POS1
p898
(dp899
Vtype
p900
VWindows 7 Professional
p901
sVinstallDate
p902
V2011-08-31 11:07:00.000
p903
ssV_MarcoPC
p904
(dp905
Vtype
p906
VWindows 7 Professional x64 Edition
p907
sVinstallDate
p908
V2015-04-07 13:44:00.000
p909
ssVABC249-POS1
p910
(dp911
Vtype
p912
VWindows 7 Professional
p913
sVinstallDate
p914
V2012-02-22 16:38:00.000
p915
ssVABC079-S
p916
(dp917
Vtype
p918
VWindows 7 Professional
p919
sVinstallDate
p920
V2011-08-31 11:07:00.000
p921
ssVQUK020-POS1
p922
(dp923
Vtype
p924
VWindows 7 Professional
p925
sVinstallDate
p926
V2011-08-31 11:07:00.000
p927
ssVRPD045-S
p928
(dp929
Vtype
p930
VWindows 7 Professional
p931
sVinstallDate
p932
V2011-08-31 11:07:00.000
p933
ssVGMC082-POS1
p934
(dp935
Vtype
p936
VWindows 7 Professional
p937
sVinstallDate
p938
V2011-08-31 11:07:00.000
p939
ssVSPN179-S
p940
(dp941
Vtype
p942
VWindows XP Professional
p943
sVinstallDate
p944
V2008-06-26 14:23:00.000
p945
ssVMLH050-POS1
p946
(dp947
Vtype
p948
VWindows 7 Professional
p949
sVinstallDate
p950
V2011-08-31 11:07:00.000
p951
ssVCPS002-S
p952
(dp953
Vtype
p954
VWindows 7 Professional
p955
sVinstallDate
p956
V2011-08-31 11:07:00.000
p957
ssVQUK707-POS1
p958
(dp959
Vtype
p960
VWindows 7 Professional
p961
sVinstallDate
p962
V2011-08-31 11:07:00.000
p963
ssVQUK034-POS2
p964
(dp965
Vtype
p966
VWindows 7 Professional
p967
sVinstallDate
p968
V2014-02-18 09:11:00.000
p969
ssVTIS009-POS2
p970
(dp971
Vtype
p972
VWindows 7 Professional
p973
sVinstallDate
p974
V2011-08-31 11:07:00.000
p975
ssVTIS009-POS1
p976
(dp977
Vtype
p978
VWindows 7 Professional
p979
sVinstallDate
p980
V2011-08-31 11:07:00.000
p981
ssVMLH047-POS1
p982
(dp983
Vtype
p984
VWindows XP Professional
p985
sVinstallDate
p986
V2008-07-22 07:51:00.000
p987
ssVMAM081-S
p988
(dp989
Vtype
p990
VWindows XP Professional
p991
sVinstallDate
p992
V2007-05-15 15:50:00.000
p993
ssVRDN001-POS2
p994
(dp995
Vtype
p996
VWindows 7 Professional
p997
sVinstallDate
p998
V2011-08-31 11:07:00.000
p999
ssVRDN001-POS1
p1000
(dp1001
Vtype
p1002
VWindows 7 Professional
p1003
sVinstallDate
p1004
V2011-08-31 11:07:00.000
p1005
ssVMNH060-S
p1006
(dp1007
Vtype
p1008
VWindows 7 Professional
p1009
sVinstallDate
p1010
V2011-08-31 11:07:00.000
p1011
ssVMLH047-POS2
p1012
(dp1013
Vtype
p1014
VWindows XP Professional
p1015
sVinstallDate
p1016
V2008-07-22 07:51:00.000
p1017
ssVMLH757-POS1
p1018
(dp1019
Vtype
p1020
VWindows 7 Professional
p1021
sVinstallDate
p1022
V2011-08-31 11:07:00.000
p1023
ssVMLH058-POS2
p1024
(dp1025
Vtype
p1026
VWindows XP Professional
p1027
sVinstallDate
p1028
V2008-07-22 07:51:00.000
p1029
ssVGMC048-POS2
p1030
(dp1031
Vtype
p1032
VWindows 7 Professional
p1033
sVinstallDate
p1034
V2011-08-31 11:07:00.000
p1035
ssVSPN162-S
p1036
(dp1037
Vtype
p1038
VWindows XP Professional
p1039
sVinstallDate
p1040
V2007-05-15 15:50:00.000
p1041
ssVQUK097-POS1
p1042
(dp1043
Vtype
p1044
VWindows 7 Professional
p1045
sVinstallDate
p1046
V2011-08-31 11:07:00.000
p1047
ssVWOC001-POS1
p1048
(dp1049
Vtype
p1050
VWindows 7 Professional
p1051
sVinstallDate
p1052
V2012-02-22 16:38:00.000
p1053
ssVQUK728-POS1
p1054
(dp1055
Vtype
p1056
VWindows 7 Professional
p1057
sVinstallDate
p1058
V2012-02-22 16:38:00.000
p1059
ssVQUK034-POS1
p1060
(dp1061
Vtype
p1062
VWindows 7 Professional
p1063
sVinstallDate
p1064
V2011-08-31 11:07:00.000
p1065
ssVABC051-S
p1066
(dp1067
Vtype
p1068
VWindows 7 Professional
p1069
sVinstallDate
p1070
V2011-08-31 11:07:00.000
p1071
ssVMLH739-POS1
p1072
(dp1073
Vtype
p1074
VWindows 7 Professional
p1075
sVinstallDate
p1076
V2011-08-31 11:07:00.000
p1077
ssVQUK019-POS1
p1078
(dp1079
Vtype
p1080
VWindows 7 Professional
p1081
sVinstallDate
p1082
V2011-08-31 11:07:00.000
p1083
ssVQUK300-POS1
p1084
(dp1085
Vtype
p1086
VWindows 7 Professional
p1087
sVinstallDate
p1088
V2015-02-02 16:25:00.000
p1089
ssVRPD033-POS1
p1090
(dp1091
Vtype
p1092
VWindows 7 Professional
p1093
sVinstallDate
p1094
V2011-08-31 11:07:00.000
p1095
ssVMNH003-S
p1096
(dp1097
Vtype
p1098
VWindows XP Professional
p1099
sVinstallDate
p1100
V2007-09-14 11:49:00.000
p1101
ssVEXC002-POS1
p1102
(dp1103
Vtype
p1104
VWindows 7 Professional
p1105
sVinstallDate
p1106
V2011-08-31 11:07:00.000
p1107
ssVQUK702-POS1
p1108
(dp1109
Vtype
p1110
VWindows 7 Professional
p1111
sVinstallDate
p1112
V2011-08-31 11:07:00.000
p1113
ssV_PlusPC-Test
p1114
(dp1115
Vtype
p1116
VWindows 7 Professional
p1117
sVinstallDate
p1118
V2011-08-31 11:07:00.000
p1119
ssVMLH330-POS2
p1120
(dp1121
Vtype
p1122
VWindows XP Professional
p1123
sVinstallDate
p1124
V2008-06-26 14:23:00.000
p1125
ssVMLH330-POS1
p1126
(dp1127
Vtype
p1128
VWindows XP Professional
p1129
sVinstallDate
p1130
V2008-06-26 14:23:00.000
p1131
ssVINT175-POS1
p1132
(dp1133
Vtype
p1134
VWindows 7 Professional
p1135
sVinstallDate
p1136
V2012-02-22 16:38:00.000
p1137
ssVMLH702-POS2
p1138
(dp1139
Vtype
p1140
VWindows XP Professional
p1141
sVinstallDate
p1142
V2008-07-22 07:51:00.000
p1143
ssVMLH702-POS1
p1144
(dp1145
Vtype
p1146
VWindows XP Professional
p1147
sVinstallDate
p1148
V2008-07-22 07:51:00.000
p1149
ssVINT210-POS1
p1150
(dp1151
Vtype
p1152
VWindows 7 Professional
p1153
sVinstallDate
p1154
V2012-02-22 16:38:00.000
p1155
ssVPVP003-POS1
p1156
(dp1157
Vtype
p1158
VWindows 7 Professional
p1159
sVinstallDate
p1160
V2012-02-22 16:38:00.000
p1161
ssVMLH754-POS1
p1162
(dp1163
Vtype
p1164
VWindows XP Professional
p1165
sVinstallDate
p1166
V2008-06-26 14:23:00.000
p1167
ssVKIN011-POS1
p1168
(dp1169
Vtype
p1170
VWindows 7 Professional
p1171
sVinstallDate
p1172
V2011-08-31 11:07:00.000
p1173
ssVMLH007-POS2
p1174
(dp1175
Vtype
p1176
VWindows 7 Professional
p1177
sVinstallDate
p1178
V2012-02-22 16:38:00.000
p1179
ssVFBR001-POS2
p1180
(dp1181
Vtype
p1182
VWindows 7 Professional
p1183
sVinstallDate
p1184
V2012-02-22 16:38:00.000
p1185
ssVTIS007-POS1
p1186
(dp1187
Vtype
p1188
VWindows 7 Professional
p1189
sVinstallDate
p1190
V2011-08-31 11:07:00.000
p1191
ssVMLH042-POS2
p1192
(dp1193
Vtype
p1194
VWindows XP Professional
p1195
sVinstallDate
p1196
V2008-07-22 07:51:00.000
p1197
ssVMLH042-POS1
p1198
(dp1199
Vtype
p1200
VWindows XP Professional
p1201
sVinstallDate
p1202
V2008-07-22 07:51:00.000
p1203
ssVSEL043-S
p1204
(dp1205
Vtype
p1206
VWindows XP Professional
p1207
sVinstallDate
p1208
V2008-05-29 15:39:00.000
p1209
ssVOPI010-POS1
p1210
(dp1211
Vtype
p1212
VWindows 7 Professional
p1213
sVinstallDate
p1214
V2011-08-31 11:07:00.000
p1215
ssVMLH058-POS1
p1216
(dp1217
Vtype
p1218
VWindows XP Professional
p1219
sVinstallDate
p1220
V2008-07-22 07:51:00.000
p1221
ssVABC229-POS1
p1222
(dp1223
Vtype
p1224
VWindows 7 Professional
p1225
sVinstallDate
p1226
V2012-02-22 16:38:00.000
p1227
ssVMLH069-POS1
p1228
(dp1229
Vtype
p1230
VWindows XP Professional
p1231
sVinstallDate
p1232
V2008-06-26 14:23:00.000
p1233
ssVMLH069-POS2
p1234
(dp1235
Vtype
p1236
VWindows XP Professional
p1237
sVinstallDate
p1238
V2008-06-26 14:23:00.000
p1239
ssVGLE039-POS1
p1240
(dp1241
Vtype
p1242
VWindows 7 Professional
p1243
sVinstallDate
p1244
V2011-08-31 11:07:00.000
p1245
ssVMLH018-POS1
p1246
(dp1247
Vtype
p1248
VWindows 7 Professional
p1249
sVinstallDate
p1250
V2011-08-31 11:07:00.000
p1251
ssVMLH018-POS2
p1252
(dp1253
Vtype
p1254
VWindows 7 Professional
p1255
sVinstallDate
p1256
V2011-08-31 11:07:00.000
p1257
ssVMNH177-POS1
p1258
(dp1259
Vtype
p1260
VWindows 7 Professional
p1261
sVinstallDate
p1262
V2011-08-31 11:07:00.000
p1263
ssVABC230-S
p1264
(dp1265
Vtype
p1266
VWindows 7 Professional
p1267
sVinstallDate
p1268
V2011-08-31 11:07:00.000
p1269
ssVMNH330-POS1
p1270
(dp1271
Vtype
p1272
VWindows 7 Professional
p1273
sVinstallDate
p1274
V2011-08-31 11:07:00.000
p1275
ssVMLH716-POS1
p1276
(dp1277
Vtype
p1278
VWindows XP Professional
p1279
sVinstallDate
p1280
V2008-06-26 14:23:00.000
p1281
ssVTSQ010-S
p1282
(dp1283
Vtype
p1284
VWindows 7 Professional
p1285
sVinstallDate
p1286
V2010-02-02 10:15:00.000
p1287
ssVMLH725-POS1
p1288
(dp1289
Vtype
p1290
VWindows 7 Professional
p1291
sVinstallDate
p1292
V2011-08-31 11:07:00.000
p1293
ssVQUK037-POS1
p1294
(dp1295
Vtype
p1296
VWindows 7 Professional
p1297
sVinstallDate
p1298
V2011-08-31 11:07:00.000
p1299
ssVMLH052-POS2
p1300
(dp1301
Vtype
p1302
VWindows XP Professional
p1303
sVinstallDate
p1304
V2008-07-22 07:51:00.000
p1305
ssVMLH052-POS3
p1306
(dp1307
Vtype
p1308
VWindows 7 Professional
p1309
sVinstallDate
p1310
V2012-02-22 16:38:00.000
p1311
ssVMLH052-POS1
p1312
(dp1313
Vtype
p1314
VWindows XP Professional
p1315
sVinstallDate
p1316
V2008-07-22 07:51:00.000
p1317
ssVMLH714-POS1
p1318
(dp1319
Vtype
p1320
VWindows 7 Professional
p1321
sVinstallDate
p1322
V2011-08-31 11:07:00.000
p1323
ssVEXP001-S
p1324
(dp1325
Vtype
p1326
VWindows 7 Professional
p1327
sVinstallDate
p1328
V2012-02-22 16:38:00.000
p1329
ssVABC047-POS2
p1330
(dp1331
Vtype
p1332
VWindows 7 Professional
p1333
sVinstallDate
p1334
V2014-02-18 09:11:00.000
p1335
ssVABC003-S
p1336
(dp1337
Vtype
p1338
VWindows 7 Professional
p1339
sVinstallDate
p1340
V2014-02-18 09:11:00.000
p1341
ssVPVP001-POS1
p1342
(dp1343
Vtype
p1344
VWindows XP Professional
p1345
sVinstallDate
p1346
V2008-07-22 07:51:00.000
p1347
ssVMNH061-POS1
p1348
(dp1349
Vtype
p1350
VWindows 7 Professional
p1351
sVinstallDate
p1352
V2011-08-31 11:07:00.000
p1353
ssVMLH072-POS1
p1354
(dp1355
Vtype
p1356
VWindows 7 Professional
p1357
sVinstallDate
p1358
V2011-08-31 11:07:00.000
p1359
ssVMLH072-POS2
p1360
(dp1361
Vtype
p1362
VWindows 7 Professional
p1363
sVinstallDate
p1364
V2011-08-31 11:07:00.000
p1365
ssVSEL127-S
p1366
(dp1367
Vtype
p1368
VWindows XP Professional
p1369
sVinstallDate
p1370
V2008-06-26 14:23:00.000
p1371
ssVMLH748-POS1
p1372
(dp1373
Vtype
p1374
VWindows 7 Professional
p1375
sVinstallDate
p1376
V2011-08-31 11:07:00.000
p1377
ssVSEL005-S
p1378
(dp1379
Vtype
p1380
VWindows XP Professional
p1381
sVinstallDate
p1382
V2008-06-26 14:23:00.000
p1383
ssVIPK005-POS1
p1384
(dp1385
Vtype
p1386
NsVinstallDate
p1387
NssVMLH719-POS1
p1388
(dp1389
Vtype
p1390
VWindows 7 Professional
p1391
sVinstallDate
p1392
V2011-08-31 11:07:00.000
p1393
ssVSPM001-POS1
p1394
(dp1395
Vtype
p1396
VWindows 7 Professional
p1397
sVinstallDate
p1398
V2011-08-31 11:07:00.000
p1399
ssVMLH097-POS1
p1400
(dp1401
Vtype
p1402
VWindows XP Professional
p1403
sVinstallDate
p1404
V2008-06-26 14:23:00.000
p1405
ssVABC091-S
p1406
(dp1407
Vtype
p1408
VWindows 7 Professional
p1409
sVinstallDate
p1410
V2011-08-31 11:07:00.000
p1411
ssVMLH097-POS2
p1412
(dp1413
Vtype
p1414
VWindows XP Professional
p1415
sVinstallDate
p1416
V2008-06-26 14:23:00.000
p1417
ssVMLH888-POS1
p1418
(dp1419
Vtype
p1420
VWindows XP Professional
p1421
sVinstallDate
p1422
V2008-07-22 07:51:00.000
p1423
ssVABC065-W1
p1424
(dp1425
Vtype
p1426
VWindows 7 Professional
p1427
sVinstallDate
p1428
V2011-08-31 11:07:00.000
p1429
ssVMLH888-POS3
p1430
(dp1431
Vtype
p1432
VWindows XP Professional
p1433
sVinstallDate
p1434
V2008-07-22 07:51:00.000
p1435
ssVMLH888-POS2
p1436
(dp1437
Vtype
p1438
VWindows XP Professional
p1439
sVinstallDate
p1440
V2008-07-22 07:51:00.000
p1441
ssVQUK725-POS1
p1442
(dp1443
Vtype
p1444
VWindows 7 Professional
p1445
sVinstallDate
p1446
V2012-02-22 16:38:00.000
p1447
ssVQUK734-POS2
p1448
(dp1449
Vtype
p1450
VWindows 7 Professional
p1451
sVinstallDate
p1452
V2012-02-22 16:38:00.000
p1453
ssVQUK734-POS1
p1454
(dp1455
Vtype
p1456
VWindows 7 Professional
p1457
sVinstallDate
p1458
V2012-02-22 16:38:00.000
p1459
ssVGLE056-POS2
p1460
(dp1461
Vtype
p1462
VWindows 7 Professional
p1463
sVinstallDate
p1464
V2011-08-31 11:07:00.000
p1465
ssVSERVERPLUS
p1466
(dp1467
Vtype
p1468
VWindows 7 Professional
p1469
sVinstallDate
p1470
V2011-08-31 11:07:00.000
p1471
ssVMLH700-POS1
p1472
(dp1473
Vtype
p1474
VWindows XP Professional
p1475
sVinstallDate
p1476
V2008-07-22 07:51:00.000
p1477
ssVMLH700-POS2
p1478
(dp1479
Vtype
p1480
VWindows XP Professional
p1481
sVinstallDate
p1482
V2008-07-22 07:51:00.000
p1483
ssV_FPU-PC
p1484
(dp1485
Vtype
p1486
VWindows 7 Professional
p1487
sVinstallDate
p1488
V2014-02-05 16:24:00.000
p1489
ssVMLH079-POS1
p1490
(dp1491
Vtype
p1492
VWindows XP Professional
p1493
sVinstallDate
p1494
V2008-07-22 07:51:00.000
p1495
ssVGLE090-POS1
p1496
(dp1497
Vtype
p1498
VWindows 7 Professional
p1499
sVinstallDate
p1500
V2011-08-31 11:07:00.000
p1501
ssVMLH079-POS2
p1502
(dp1503
Vtype
p1504
VWindows XP Professional
p1505
sVinstallDate
p1506
V2008-07-22 07:51:00.000
p1507
ssVMLH150-POS2
p1508
(dp1509
Vtype
p1510
VWindows XP Professional
p1511
sVinstallDate
p1512
V2008-06-26 14:23:00.000
p1513
ssVMLH150-POS1
p1514
(dp1515
Vtype
p1516
VWindows XP Professional
p1517
sVinstallDate
p1518
V2008-06-26 14:23:00.000
p1519
ssVQUK152-POS1
p1520
(dp1521
Vtype
p1522
VWindows 7 Professional
p1523
sVinstallDate
p1524
V2015-02-02 16:25:00.000
p1525
ssVKIN087-POS1
p1526
(dp1527
Vtype
p1528
VWindows 7 Professional
p1529
sVinstallDate
p1530
V2011-08-31 11:07:00.000
p1531
ssVCPS048-S
p1532
(dp1533
Vtype
p1534
VWindows 7 Professional
p1535
sVinstallDate
p1536
V2011-08-31 11:07:00.000
p1537
ssVABC224-W1
p1538
(dp1539
Vtype
p1540
VWindows 7 Professional
p1541
sVinstallDate
p1542
V2011-08-31 11:07:00.000
p1543
ssVMLH030-POS1
p1544
(dp1545
Vtype
p1546
VWindows 7 Professional
p1547
sVinstallDate
p1548
V2014-02-18 09:11:00.000
p1549
ssVMLH044-POS1
p1550
(dp1551
Vtype
p1552
VWindows XP Professional
p1553
sVinstallDate
p1554
V2008-06-26 14:23:00.000
p1555
ssVSEL222-S
p1556
(dp1557
Vtype
p1558
VWindows XP Professional
p1559
sVinstallDate
p1560
V2007-05-15 15:50:00.000
p1561
ssVMLH708-POS1
p1562
(dp1563
Vtype
p1564
VWindows 7 Professional
p1565
sVinstallDate
p1566
V2011-08-31 11:07:00.000
p1567
ssVMLH034-POS1
p1568
(dp1569
Vtype
p1570
VWindows 7 Professional
p1571
sVinstallDate
p1572
V2011-08-31 11:07:00.000
p1573
ssVGLE038-POS1
p1574
(dp1575
Vtype
p1576
VWindows 7 Professional
p1577
sVinstallDate
p1578
V2011-08-31 11:07:00.000
p1579
ssVGMC064-POS1
p1580
(dp1581
Vtype
p1582
VWindows 7 Professional
p1583
sVinstallDate
p1584
V2011-08-31 11:07:00.000
p1585
ssVGMC078-POS1
p1586
(dp1587
Vtype
p1588
VWindows 7 Professional
p1589
sVinstallDate
p1590
V2011-08-31 11:07:00.000
p1591
ssVRPD072-POS1
p1592
(dp1593
Vtype
p1594
VWindows 7 Professional
p1595
sVinstallDate
p1596
V2011-08-31 11:07:00.000
p1597
ssVOPI501-POS1
p1598
(dp1599
Vtype
p1600
VWindows 7 Professional
p1601
sVinstallDate
p1602
V2011-08-31 11:07:00.000
p1603
ssVMLH114-POS2
p1604
(dp1605
Vtype
p1606
VWindows 7 Professional
p1607
sVinstallDate
p1608
V2010-12-01 15:12:00.000
p1609
ssVMLH114-POS1
p1610
(dp1611
Vtype
p1612
VWindows 7 Professional
p1613
sVinstallDate
p1614
V2010-12-01 15:12:00.000
p1615
ssVMLH771-POS1
p1616
(dp1617
Vtype
p1618
VWindows 7 Professional
p1619
sVinstallDate
p1620
V2011-08-31 11:07:00.000
p1621
ssVQUK600-POS1
p1622
(dp1623
Vtype
p1624
VWindows 7 Professional
p1625
sVinstallDate
p1626
V2011-08-31 11:07:00.000
p1627
ssVGMC020-S
p1628
(dp1629
Vtype
p1630
VWindows 7 Professional
p1631
sVinstallDate
p1632
NssVGMC027-S
p1633
(dp1634
Vtype
p1635
VWindows 7 Professional
p1636
sVinstallDate
p1637
V2011-08-31 11:07:00.000
p1638
ssVABC144-POS1
p1639
(dp1640
Vtype
p1641
VWindows 7 Professional
p1642
sVinstallDate
p1643
V2012-02-22 16:38:00.000
p1644
ssVGMC033-POS1
p1645
(dp1646
Vtype
p1647
VWindows 7 Professional
p1648
sVinstallDate
p1649
V2011-08-31 11:07:00.000
p1650
ssVKIN060-POS1
p1651
(dp1652
Vtype
p1653
VWindows 7 Professional
p1654
sVinstallDate
p1655
V2011-08-31 11:07:00.000
p1656
ssVKIN060-POS2
p1657
(dp1658
Vtype
p1659
VWindows 7 Professional
p1660
sVinstallDate
p1661
V2011-08-31 11:07:00.000
p1662
ssVQUK048-POS1
p1663
(dp1664
Vtype
p1665
VWindows 7 Professional
p1666
sVinstallDate
p1667
V2011-08-31 11:07:00.000
p1668
ssVINT072-POS1
p1669
(dp1670
Vtype
p1671
VWindows 7 Professional
p1672
sVinstallDate
p1673
V2012-02-22 16:38:00.000
p1674
ssVQUK866-POS1
p1675
(dp1676
Vtype
p1677
VWindows 7 Professional
p1678
sVinstallDate
p1679
V2011-08-31 11:07:00.000
p1680
ssVINT067-POS1
p1681
(dp1682
Vtype
p1683
VWindows 7 Professional
p1684
sVinstallDate
p1685
V2012-02-22 16:38:00.000
p1686
ssVMLH200-POS1
p1687
(dp1688
Vtype
p1689
VWindows 7 Professional
p1690
sVinstallDate
p1691
V2011-08-31 11:07:00.000
p1692
ssVMLH108-POS2
p1693
(dp1694
Vtype
p1695
VWindows 7 Professional
p1696
sVinstallDate
p1697
V2011-08-31 11:07:00.000
p1698
ssVMLH108-POS1
p1699
(dp1700
Vtype
p1701
VWindows 7 Professional
p1702
sVinstallDate
p1703
V2011-08-31 11:07:00.000
p1704
ssVRPD047-S
p1705
(dp1706
Vtype
p1707
VWindows 7 Professional
p1708
sVinstallDate
p1709
V2011-08-31 11:07:00.000
p1710
ssVSEL037-POS1
p1711
(dp1712
Vtype
p1713
VWindows 7 Professional
p1714
sVinstallDate
p1715
V2011-08-31 11:07:00.000
p1716
ssVMLH059-POS2
p1717
(dp1718
Vtype
p1719
VWindows XP Professional
p1720
sVinstallDate
p1721
V2008-07-22 07:51:00.000
p1722
ssVMLH059-POS1
p1723
(dp1724
Vtype
p1725
VWindows XP Professional
p1726
sVinstallDate
p1727
V2008-07-22 07:51:00.000
p1728
ssVABC025-S
p1729
(dp1730
Vtype
p1731
VWindows 7 Professional
p1732
sVinstallDate
p1733
V2011-08-31 11:07:00.000
p1734
ssVABC022-S
p1735
(dp1736
Vtype
p1737
VWindows 7 Professional
p1738
sVinstallDate
p1739
V2011-08-31 11:07:00.000
p1740
ssVABC006-POS1
p1741
(dp1742
Vtype
p1743
VWindows 7 Professional
p1744
sVinstallDate
p1745
V2011-08-31 11:07:00.000
p1746
ssVPRI070-S
p1747
(dp1748
Vtype
p1749
VWindows XP Professional
p1750
sVinstallDate
p1751
V2008-06-26 14:23:00.000
p1752
ssVMLH712-POS1
p1753
(dp1754
Vtype
p1755
VWindows 7 Professional
p1756
sVinstallDate
p1757
V2011-08-31 11:07:00.000
p1758
ssVQUK105-POS1
p1759
(dp1760
Vtype
p1761
VWindows 7 Professional
p1762
sVinstallDate
p1763
V2015-02-02 16:25:00.000
p1764
ssVQUK021-POS1
p1765
(dp1766
Vtype
p1767
VWindows 7 Professional
p1768
sVinstallDate
p1769
V2011-08-31 11:07:00.000
p1770
ssVABC031-S
p1771
(dp1772
Vtype
p1773
VWindows 7 Professional
p1774
sVinstallDate
p1775
V2011-08-31 11:07:00.000
p1776
ssVPRK096-S
p1777
(dp1778
Vtype
p1779
VWindows 7 Professional
p1780
sVinstallDate
p1781
V2011-08-31 11:07:00.000
p1782
ssVGLE080-POS1
p1783
(dp1784
Vtype
p1785
VWindows 7 Professional
p1786
sVinstallDate
p1787
V2011-08-31 11:07:00.000
p1788
ssVMNH028-POS1
p1789
(dp1790
Vtype
p1791
VWindows 7 Professional
p1792
sVinstallDate
p1793
V2011-08-31 11:07:00.000
p1794
ssVMNH049-S
p1795
(dp1796
Vtype
p1797
VWindows XP Professional
p1798
sVinstallDate
p1799
V2008-06-26 14:23:00.000
p1800
ssVGLE064-POS1
p1801
(dp1802
Vtype
p1803
NsVinstallDate
p1804
NssVQUK222-POS1
p1805
(dp1806
Vtype
p1807
VWindows 7 Professional
p1808
sVinstallDate
p1809
V2010-12-01 15:12:00.000
p1810
ssVABC065-POS2
p1811
(dp1812
Vtype
p1813
VWindows 7 Professional
p1814
sVinstallDate
p1815
V2011-08-31 11:07:00.000
p1816
ssVMLH021-POS1
p1817
(dp1818
Vtype
p1819
VWindows 7 Professional
p1820
sVinstallDate
p1821
V2011-08-31 11:07:00.000
p1822
ssVQUK730-POS1
p1823
(dp1824
Vtype
p1825
VWindows 7 Professional
p1826
sVinstallDate
p1827
V2011-08-31 11:07:00.000
p1828
ssVMLH081-POS1
p1829
(dp1830
Vtype
p1831
VWindows 7 Professional
p1832
sVinstallDate
p1833
V2011-08-31 11:07:00.000
p1834
ssVRPD075-POS1
p1835
(dp1836
Vtype
p1837
VWindows 7 Professional
p1838
sVinstallDate
p1839
V2011-08-31 11:07:00.000
p1840
ssVQUK715-POS1
p1841
(dp1842
Vtype
p1843
VWindows 7 Professional
p1844
sVinstallDate
p1845
V2011-08-31 11:07:00.000
p1846
ssV_AlexPC
p1847
(dp1848
Vtype
p1849
VWindows 7 Professional
p1850
sVinstallDate
p1851
V2014-03-31 14:17:00.000
p1852
ssVIPK006-POS1
p1853
(dp1854
Vtype
p1855
NsVinstallDate
p1856
NssVMLH057-POS1
p1857
(dp1858
Vtype
p1859
VWindows XP Professional
p1860
sVinstallDate
p1861
V2008-07-22 07:51:00.000
p1862
ssVMLH258-POS2
p1863
(dp1864
Vtype
p1865
VWindows XP Professional
p1866
sVinstallDate
p1867
V2008-07-22 07:51:00.000
p1868
ssVTSQ074-S
p1869
(dp1870
Vtype
p1871
VWindows 7 Professional
p1872
sVinstallDate
p1873
V2011-08-31 11:07:00.000
p1874
ssVMLH258-POS1
p1875
(dp1876
Vtype
p1877
VWindows XP Professional
p1878
sVinstallDate
p1879
V2008-07-22 07:51:00.000
p1880
ssVGMC060-POS1
p1881
(dp1882
Vtype
p1883
VWindows 7 Professional
p1884
sVinstallDate
p1885
V2011-08-31 11:07:00.000
p1886
ssVGMC060-POS2
p1887
(dp1888
Vtype
p1889
VWindows 7 Professional
p1890
sVinstallDate
p1891
V2011-08-31 11:07:00.000
p1892
ssVEPA001-POS1
p1893
(dp1894
Vtype
p1895
VWindows 7 Professional
p1896
sVinstallDate
p1897
V2012-02-22 16:38:00.000
p1898
ssVPRK009-S
p1899
(dp1900
Vtype
p1901
VWindows XP Professional
p1902
sVinstallDate
p1903
V2007-05-15 15:50:00.000
p1904
ssVTSQ135-POS1
p1905
(dp1906
Vtype
p1907
VWindows 7 Professional
p1908
sVinstallDate
p1909
V2011-08-31 11:07:00.000
p1910
ssVMLH057-POS2
p1911
(dp1912
Vtype
p1913
VWindows XP Professional
p1914
sVinstallDate
p1915
V2008-07-22 07:51:00.000
p1916
ssVTIS004-POS1
p1917
(dp1918
Vtype
p1919
VWindows 7 Professional
p1920
sVinstallDate
p1921
V2011-08-31 11:07:00.000
p1922
ssVABC089-S
p1923
(dp1924
Vtype
p1925
VWindows 7 Professional
p1926
sVinstallDate
p1927
V2011-08-31 11:07:00.000
p1928
ssVRPD003-S
p1929
(dp1930
Vtype
p1931
VWindows 7 Professional
p1932
sVinstallDate
p1933
V2011-08-31 11:07:00.000
p1934
ssVGMC017-POS2
p1935
(dp1936
Vtype
p1937
VWindows 7 Professional
p1938
sVinstallDate
p1939
V2011-08-31 11:07:00.000
p1940
ssVGMC017-POS1
p1941
(dp1942
Vtype
p1943
VWindows 7 Professional
p1944
sVinstallDate
p1945
V2011-08-31 11:07:00.000
p1946
ssVMLH753-POS1
p1947
(dp1948
Vtype
p1949
VWindows XP Professional
p1950
sVinstallDate
p1951
V2008-07-22 07:51:00.000
p1952
ssVMLH753-POS2
p1953
(dp1954
Vtype
p1955
VWindows XP Professional
p1956
sVinstallDate
p1957
V2008-07-22 07:51:00.000
p1958
ssVQUK703-POS1
p1959
(dp1960
Vtype
p1961
VWindows 7 Professional
p1962
sVinstallDate
p1963
V2011-08-31 11:07:00.000
p1964
ssVQUK025-POS1
p1965
(dp1966
Vtype
p1967
VWindows 7 Professional
p1968
sVinstallDate
p1969
V2011-08-31 11:07:00.000
p1970
ssV_VingPC
p1971
(dp1972
Vtype
p1973
VWindows 7 Professional
p1974
sVinstallDate
p1975
V2015-03-10 13:24:00.000
p1976
ssVMLH001-POS2
p1977
(dp1978
Vtype
p1979
VWindows XP Professional
p1980
sVinstallDate
p1981
V2008-07-22 07:51:00.000
p1982
ssVKIN045-POS1
p1983
(dp1984
Vtype
p1985
VWindows 7 Professional
p1986
sVinstallDate
p1987
V2011-08-31 11:07:00.000
p1988
ssVQUK705-POS1
p1989
(dp1990
Vtype
p1991
VWindows 7 Professional
p1992
sVinstallDate
p1993
V2011-08-31 11:07:00.000
p1994
ssVMLH080-POS1
p1995
(dp1996
Vtype
p1997
VWindows 7 Professional
p1998
sVinstallDate
p1999
V2011-08-31 11:07:00.000
p2000
ssVKIN051-POS1
p2001
(dp2002
Vtype
p2003
VWindows 7 Professional
p2004
sVinstallDate
p2005
V2011-08-31 11:07:00.000
p2006
ssVABC239-S
p2007
(dp2008
Vtype
p2009
VWindows 7 Professional
p2010
sVinstallDate
p2011
V2011-08-31 11:07:00.000
p2012
ssVRDN069-S
p2013
(dp2014
Vtype
p2015
VWindows 7 Professional
p2016
sVinstallDate
p2017
V2011-08-31 11:07:00.000
p2018
ssVGLE092-POS1
p2019
(dp2020
Vtype
p2021
VWindows 7 Professional
p2022
sVinstallDate
p2023
V2011-08-31 11:07:00.000
p2024
ssVABC012-POS1
p2025
(dp2026
Vtype
p2027
VWindows 7 Professional
p2028
sVinstallDate
p2029
V2012-11-19 13:36:00.000
p2030
ssVMLH001-POS1
p2031
(dp2032
Vtype
p2033
VWindows XP Professional
p2034
sVinstallDate
p2035
V2008-07-22 07:51:00.000
p2036
ssVEXP001-H
p2037
(dp2038
Vtype
p2039
VWindows Vista Home Premium
p2040
sVinstallDate
p2041
V2007-10-15 13:13:00.000
p2042
ssVQUK701-POS1
p2043
(dp2044
Vtype
p2045
VWindows 7 Professional
p2046
sVinstallDate
p2047
V2012-02-22 16:38:00.000
p2048
ssVMAURICIOC-TKTWIN7
p2049
(dp2050
Vtype
p2051
VWindows 10 Pro
p2052
sVinstallDate
p2053
V2015-09-10 10:00:00.000
p2054
ssVCCP001-W1
p2055
(dp2056
Vtype
p2057
VWindows 7 Professional
p2058
sVinstallDate
p2059
V2010-02-02 10:15:00.000
p2060
ssVKIN069-POS1
p2061
(dp2062
Vtype
p2063
VWindows 7 Professional
p2064
sVinstallDate
p2065
V2011-08-31 11:07:00.000
p2066
ssVABC007-S
p2067
(dp2068
Vtype
p2069
VWindows 7 Professional
p2070
sVinstallDate
p2071
V2011-08-31 11:07:00.000
p2072
ssVGLE079-POS1
p2073
(dp2074
Vtype
p2075
VWindows 7 Professional
p2076
sVinstallDate
p2077
V2011-08-31 11:07:00.000
p2078
ssVGMC085-S
p2079
(dp2080
Vtype
p2081
VWindows XP Professional
p2082
sVinstallDate
p2083
NssVSYL071-S
p2084
(dp2085
Vtype
p2086
VWindows 7 Professional
p2087
sVinstallDate
p2088
V2011-08-31 11:07:00.000
p2089
ssVQUK036-POS1
p2090
(dp2091
Vtype
p2092
VWindows 7 Professional
p2093
sVinstallDate
p2094
V2011-08-31 11:07:00.000
p2095
ssVKIN017-POS1
p2096
(dp2097
Vtype
p2098
VWindows 7 Professional
p2099
sVinstallDate
p2100
V2011-08-31 11:07:00.000
p2101
ssVABC232-S
p2102
(dp2103
Vtype
p2104
VWindows 7 Professional
p2105
sVinstallDate
p2106
V2011-08-31 11:07:00.000
p2107
ssVGMC045-POS1
p2108
(dp2109
Vtype
p2110
VWindows 7 Professional
p2111
sVinstallDate
p2112
V2011-08-31 11:07:00.000
p2113
ssVABC231-S
p2114
(dp2115
Vtype
p2116
VWindows 7 Professional
p2117
sVinstallDate
p2118
V2011-08-31 11:07:00.000
p2119
ssVQUK575-POS1
p2120
(dp2121
Vtype
p2122
VWindows 7 Professional
p2123
sVinstallDate
p2124
V2012-02-22 16:38:00.000
p2125
ssVQUK053-POS1
p2126
(dp2127
Vtype
p2128
VWindows 7 Professional
p2129
sVinstallDate
p2130
V2011-08-31 11:07:00.000
p2131
ssVSEL145-S
p2132
(dp2133
Vtype
p2134
VWindows XP Professional
p2135
sVinstallDate
p2136
V2008-06-26 14:23:00.000
p2137
ssVMNH190-S
p2138
(dp2139
Vtype
p2140
VWindows XP Professional
p2141
sVinstallDate
p2142
V2008-06-26 14:23:00.000
p2143
ssVMLH749-POS1
p2144
(dp2145
Vtype
p2146
VWindows 7 Professional
p2147
sVinstallDate
p2148
V2011-08-31 11:07:00.000
p2149
ssVABC026-S
p2150
(dp2151
Vtype
p2152
VWindows 7 Professional
p2153
sVinstallDate
p2154
V2011-08-31 11:07:00.000
p2155
ssVVGC057-POS1
p2156
(dp2157
Vtype
p2158
VWindows 7 Professional
p2159
sVinstallDate
p2160
V2011-08-31 11:07:00.000
p2161
ssVTSQ056-S
p2162
(dp2163
Vtype
p2164
VWindows 7 Professional
p2165
sVinstallDate
p2166
V2011-08-31 11:07:00.000
p2167
ssVMLH064-POS2
p2168
(dp2169
Vtype
p2170
VWindows XP Professional
p2171
sVinstallDate
p2172
V2008-07-22 07:51:00.000
p2173
ssVMLH064-POS1
p2174
(dp2175
Vtype
p2176
VWindows XP Professional
p2177
sVinstallDate
p2178
V2008-07-22 07:51:00.000
p2179
ssVTSQ012-S
p2180
(dp2181
Vtype
p2182
VWindows 7 Professional
p2183
sVinstallDate
p2184
V2010-02-02 10:15:00.000
p2185
ssVGMC083-POS1
p2186
(dp2187
Vtype
p2188
VWindows 7 Professional
p2189
sVinstallDate
p2190
V2011-08-31 11:07:00.000
p2191
ssVKIN230-POS1
p2192
(dp2193
Vtype
p2194
VWindows 7 Professional
p2195
sVinstallDate
p2196
V2011-08-31 11:07:00.000
p2197
ssVMLH006-POS1
p2198
(dp2199
Vtype
p2200
VWindows 7 Professional
p2201
sVinstallDate
p2202
V2011-08-31 11:07:00.000
p2203
ssVMLH745-POS1
p2204
(dp2205
Vtype
p2206
VWindows 7 Professional
p2207
sVinstallDate
p2208
V2010-12-01 15:12:00.000
p2209
ssVMLH713-POS1
p2210
(dp2211
Vtype
p2212
VWindows 7 Professional
p2213
sVinstallDate
p2214
V2011-08-31 11:07:00.000
p2215
ssVKIN014-POS1
p2216
(dp2217
Vtype
p2218
VWindows 7 Professional
p2219
sVinstallDate
p2220
V2011-08-31 11:07:00.000
p2221
ssVFBR001-POS1
p2222
(dp2223
Vtype
p2224
VWindows 7 Professional
p2225
sVinstallDate
p2226
V2012-02-22 16:38:00.000
p2227
ssVEZP002-S
p2228
(dp2229
Vtype
p2230
VWindows XP Professional
p2231
sVinstallDate
p2232
V2008-06-26 14:23:00.000
p2233
ssVGLE060-POS1
p2234
(dp2235
Vtype
p2236
VWindows 7 Professional
p2237
sVinstallDate
p2238
V2011-08-31 11:07:00.000
p2239
ssVGLE060-POS2
p2240
(dp2241
Vtype
p2242
VWindows 7 Professional
p2243
sVinstallDate
p2244
V2011-08-31 11:07:00.000
p2245
ssVABC056-S
p2246
(dp2247
Vtype
p2248
VWindows 7 Professional
p2249
sVinstallDate
p2250
V2011-08-31 11:07:00.000
p2251
ssVMLH035-POS1
p2252
(dp2253
Vtype
p2254
VWindows 7 Professional
p2255
sVinstallDate
p2256
V2011-08-31 11:07:00.000
p2257
ssVMNH041-POS1
p2258
(dp2259
Vtype
p2260
VWindows 7 Professional
p2261
sVinstallDate
p2262
V2010-12-01 15:12:00.000
p2263
ssVQUK252-S
p2264
(dp2265
Vtype
p2266
VWindows 7 Professional
p2267
sVinstallDate
p2268
V2011-08-31 11:07:00.000
p2269
ssVMLH300-POS1
p2270
(dp2271
Vtype
p2272
VWindows 7 Professional
p2273
sVinstallDate
p2274
V2010-12-01 15:12:00.000
p2275
ssVSYL014-S
p2276
(dp2277
Vtype
p2278
VWindows 7 Professional
p2279
sVinstallDate
p2280
V2011-08-31 11:07:00.000
p2281
ssVSYL013-S
p2282
(dp2283
Vtype
p2284
VWindows 7 Professional
p2285
sVinstallDate
p2286
V2011-08-31 11:07:00.000
p2287
ssVABC245-POS1
p2288
(dp2289
Vtype
p2290
VWindows 7 Professional
p2291
sVinstallDate
p2292
V2012-02-22 16:38:00.000
p2293
ssVGLE246-POS1
p2294
(dp2295
Vtype
p2296
VWindows 7 Professional
p2297
sVinstallDate
p2298
V2011-08-31 11:07:00.000
p2299
ssVMLH085-POS1
p2300
(dp2301
Vtype
p2302
VWindows 7 Professional
p2303
sVinstallDate
p2304
V2011-08-31 11:07:00.000
p2305
ssVQUK093-POS1
p2306
(dp2307
Vtype
p2308
VWindows 7 Professional
p2309
sVinstallDate
p2310
V2011-08-31 11:07:00.000
p2311
ssVQUK213-POS1
p2312
(dp2313
Vtype
p2314
VWindows 7 Professional
p2315
sVinstallDate
p2316
V2011-08-31 11:07:00.000
p2317
ssVMLH737-POS1
p2318
(dp2319
Vtype
p2320
VWindows XP Professional
p2321
sVinstallDate
p2322
V2008-07-22 07:51:00.000
p2323
ssVCPS022-S 
p2324
(dp2325
Vtype
p2326
VWindows 7 Professional
p2327
sVinstallDate
p2328
V2011-08-31 11:07:00.000
p2329
ssVABC021-S
p2330
(dp2331
Vtype
p2332
VWindows 7 Professional
p2333
sVinstallDate
p2334
V2011-08-31 11:07:00.000
p2335
ssVMLH747-POS1
p2336
(dp2337
Vtype
p2338
VWindows 7 Professional
p2339
sVinstallDate
p2340
V2011-08-31 11:07:00.000
p2341
ssVMLH037-POS2
p2342
(dp2343
Vtype
p2344
VWindows XP Professional
p2345
sVinstallDate
p2346
V2008-06-26 14:23:00.000
p2347
ssVMLH037-POS1
p2348
(dp2349
Vtype
p2350
VWindows XP Professional
p2351
sVinstallDate
p2352
V2008-06-26 14:23:00.000
p2353
ssVMLH724-POS1
p2354
(dp2355
Vtype
p2356
VWindows 7 Professional
p2357
sVinstallDate
p2358
V2011-08-31 11:07:00.000
p2359
ssVMNH351-POS1
p2360
(dp2361
Vtype
p2362
VWindows 7 Professional
p2363
sVinstallDate
p2364
V2011-08-31 11:07:00.000
p2365
ssVMLH370-POS2
p2366
(dp2367
Vtype
p2368
VWindows XP Professional
p2369
sVinstallDate
p2370
V2008-07-22 07:51:00.000
p2371
ssVMLH798-POS1
p2372
(dp2373
Vtype
p2374
VWindows 7 Professional
p2375
sVinstallDate
p2376
V2011-08-31 11:07:00.000
p2377
ssVMNH046-POS1
p2378
(dp2379
Vtype
p2380
VWindows 7 Professional
p2381
sVinstallDate
p2382
V2011-08-31 11:07:00.000
p2383
ssVMLH115-POS1
p2384
(dp2385
Vtype
p2386
VWindows 7 Professional
p2387
sVinstallDate
p2388
V2010-12-01 15:12:00.000
p2389
ssVMLH115-POS2
p2390
(dp2391
Vtype
p2392
VWindows 7 Professional
p2393
sVinstallDate
p2394
V2010-12-01 15:12:00.000
p2395
ssVOPI375-POS1
p2396
(dp2397
Vtype
p2398
VWindows 7 Professional
p2399
sVinstallDate
p2400
V2012-02-22 16:38:00.000
p2401
ssVTIS015-POS1
p2402
(dp2403
Vtype
p2404
VWindows 7 Professional
p2405
sVinstallDate
p2406
V2015-02-02 16:25:00.000
p2407
ssVMLH029-POS1
p2408
(dp2409
Vtype
p2410
VWindows XP Professional
p2411
sVinstallDate
p2412
V2008-06-26 14:23:00.000
p2413
ssVQUK633-POS1
p2414
(dp2415
Vtype
p2416
VWindows 7 Professional
p2417
sVinstallDate
p2418
V2011-08-31 11:07:00.000
p2419
ssVSYL050-POS1
p2420
(dp2421
Vtype
p2422
VWindows 7 Professional
p2423
sVinstallDate
p2424
V2011-08-31 11:07:00.000
p2425
ssVMNH007-POS1
p2426
(dp2427
Vtype
p2428
VWindows 7 Professional
p2429
sVinstallDate
p2430
V2011-08-31 11:07:00.000
p2431
ssVMLH007-POS1
p2432
(dp2433
Vtype
p2434
VWindows 7 Professional
p2435
sVinstallDate
p2436
V2012-02-22 16:38:00.000
p2437
ssVMLH026-POS1
p2438
(dp2439
Vtype
p2440
VWindows 7 Professional
p2441
sVinstallDate
p2442
V2011-08-31 11:07:00.000
p2443
ssVMLH026-POS2
p2444
(dp2445
Vtype
p2446
VWindows 7 Professional
p2447
sVinstallDate
p2448
V2011-08-31 11:07:00.000
p2449
ssVQUK714-POS1
p2450
(dp2451
Vtype
p2452
VWindows 7 Professional
p2453
sVinstallDate
p2454
V2012-02-22 16:38:00.000
p2455
ssVABC229-POS2
p2456
(dp2457
Vtype
p2458
VWindows 7 Professional
p2459
sVinstallDate
p2460
V2014-02-18 09:11:00.000
p2461
ssVMLH060-POS1
p2462
(dp2463
Vtype
p2464
VWindows XP Professional
p2465
sVinstallDate
p2466
V2008-06-26 14:23:00.000
p2467
ssVGLE085-POS1
p2468
(dp2469
Vtype
p2470
VWindows 7 Professional
p2471
sVinstallDate
p2472
V2011-08-31 11:07:00.000
p2473
ssVABC004-POS1
p2474
(dp2475
Vtype
p2476
VWindows 7 Professional
p2477
sVinstallDate
p2478
V2011-08-31 11:07:00.000
p2479
ssVABC079-W1
p2480
(dp2481
Vtype
p2482
VWindows 7 Professional
p2483
sVinstallDate
p2484
V2011-08-31 11:07:00.000
p2485
ssVGOT004-S
p2486
(dp2487
Vtype
p2488
NsVinstallDate
p2489
NssVMLH004-POS3
p2490
(dp2491
Vtype
p2492
VWindows 7 Professional
p2493
sVinstallDate
p2494
V2011-08-31 11:07:00.000
p2495
ssVSHH001-POS1
p2496
(dp2497
Vtype
p2498
VWindows 7 Professional
p2499
sVinstallDate
p2500
V2012-02-22 16:38:00.000
p2501
ssVSHH001-POS2
p2502
(dp2503
Vtype
p2504
VWindows 7 Professional
p2505
sVinstallDate
p2506
V2012-02-22 16:38:00.000
p2507
ssVABC002-POS1
p2508
(dp2509
Vtype
p2510
VWindows 7 Professional
p2511
sVinstallDate
p2512
V2011-08-31 11:07:00.000
p2513
ssVTIS011-POS1
p2514
(dp2515
Vtype
p2516
VWindows 7 Professional
p2517
sVinstallDate
p2518
V2011-08-31 11:07:00.000
p2519
ssVQUK196-POS1
p2520
(dp2521
Vtype
p2522
VWindows 7 Professional
p2523
sVinstallDate
p2524
V2011-08-31 11:07:00.000
p2525
ssVSPN200-S
p2526
(dp2527
Vtype
p2528
VWindows XP Professional
p2529
sVinstallDate
p2530
V2007-05-15 15:50:00.000
p2531
ssVGMC048-POS1
p2532
(dp2533
Vtype
p2534
VWindows 7 Professional
p2535
sVinstallDate
p2536
V2011-08-31 11:07:00.000
p2537
ssVABC228-S
p2538
(dp2539
Vtype
p2540
VWindows 7 Professional
p2541
sVinstallDate
p2542
V2011-08-31 11:07:00.000
p2543
ssVQUK158-POS1
p2544
(dp2545
Vtype
p2546
VWindows 7 Professional
p2547
sVinstallDate
p2548
V2011-08-31 11:07:00.000
p2549
ssVMNH040-S
p2550
(dp2551
Vtype
p2552
VWindows XP Professional
p2553
sVinstallDate
p2554
V2008-06-26 14:23:00.000
p2555
ssVRPD076-POS1
p2556
(dp2557
Vtype
p2558
VWindows 7 Professional
p2559
sVinstallDate
p2560
V2011-08-31 11:07:00.000
p2561
ssVINT200-POS1
p2562
(dp2563
Vtype
p2564
VWindows 7 Professional
p2565
sVinstallDate
p2566
V2012-02-22 16:38:00.000
p2567
ssVCPS006-S
p2568
(dp2569
Vtype
p2570
VWindows 7 Professional
p2571
sVinstallDate
p2572
V2011-08-31 11:07:00.000
p2573
ssVABC084-S
p2574
(dp2575
Vtype
p2576
VWindows 7 Professional
p2577
sVinstallDate
p2578
V2011-08-31 11:07:00.000
p2579
ssVMLH111-POS1
p2580
(dp2581
Vtype
p2582
VWindows XP Professional
p2583
sVinstallDate
p2584
V2008-06-26 14:23:00.000
p2585
ssVMLH111-POS2
p2586
(dp2587
Vtype
p2588
VWindows XP Professional
p2589
sVinstallDate
p2590
V2008-06-26 14:23:00.000
p2591
ssVOPI040-POS1
p2592
(dp2593
Vtype
p2594
VWindows 7 Professional
p2595
sVinstallDate
p2596
V2012-02-22 16:38:00.000
p2597
ssVMLH160-POS1
p2598
(dp2599
Vtype
p2600
VWindows 7 Professional
p2601
sVinstallDate
p2602
V2011-08-31 11:07:00.000
p2603
ssVABC027-S
p2604
(dp2605
Vtype
p2606
VWindows 7 Professional
p2607
sVinstallDate
p2608
V2011-08-31 11:07:00.000
p2609
ssVABC073-S
p2610
(dp2611
Vtype
p2612
VWindows 7 Professional
p2613
sVinstallDate
p2614
V2011-08-31 11:07:00.000
p2615
ssVINT502-POS1
p2616
(dp2617
Vtype
p2618
VWindows 7 Professional
p2619
sVinstallDate
p2620
V2011-08-31 11:07:00.000
p2621
ssVABC247-POS1
p2622
(dp2623
Vtype
p2624
VWindows 7 Professional
p2625
sVinstallDate
p2626
V2012-11-19 13:36:00.000
p2627
ssVMLH053-POS1
p2628
(dp2629
Vtype
p2630
VWindows XP Professional
p2631
sVinstallDate
p2632
V2008-07-22 07:51:00.000
p2633
ssVMLH019-POS2
p2634
(dp2635
Vtype
p2636
VWindows 7 Professional
p2637
sVinstallDate
p2638
V2011-08-31 11:07:00.000
p2639
ssVMLH019-POS1
p2640
(dp2641
Vtype
p2642
VWindows 7 Professional
p2643
sVinstallDate
p2644
V2011-08-31 11:07:00.000
p2645
ssVMLH053-POS2
p2646
(dp2647
Vtype
p2648
VWindows XP Professional
p2649
sVinstallDate
p2650
V2008-07-22 07:51:00.000
p2651
ssVQUK708-POS1
p2652
(dp2653
Vtype
p2654
VWindows 7 Professional
p2655
sVinstallDate
p2656
V2011-08-31 11:07:00.000
p2657
ssVGMC086-POS1
p2658
(dp2659
Vtype
p2660
VWindows 7 Professional
p2661
sVinstallDate
p2662
V2011-08-31 11:07:00.000
p2663
ssVMLH076-POS1
p2664
(dp2665
Vtype
p2666
VWindows XP Professional
p2667
sVinstallDate
p2668
V2008-06-26 14:23:00.000
p2669
ssVMLH076-POS2
p2670
(dp2671
Vtype
p2672
VWindows XP Professional
p2673
sVinstallDate
p2674
V2008-06-26 14:23:00.000
p2675
ssVABC054-S
p2676
(dp2677
Vtype
p2678
VWindows 7 Professional
p2679
sVinstallDate
p2680
V2011-08-31 11:07:00.000
p2681
ssVABC062-S
p2682
(dp2683
Vtype
p2684
VWindows 7 Professional
p2685
sVinstallDate
p2686
V2011-08-31 11:07:00.000
p2687
ssVQUK012-POS1
p2688
(dp2689
Vtype
p2690
VWindows 7 Professional
p2691
sVinstallDate
p2692
V2015-02-02 16:25:00.000
p2693
ssVKIN009-POS1
p2694
(dp2695
Vtype
p2696
VWindows 7 Professional
p2697
sVinstallDate
p2698
V2011-08-31 11:07:00.000
p2699
ssVTSQ010-W1
p2700
(dp2701
Vtype
p2702
VWindows 7 Professional
p2703
sVinstallDate
p2704
V2010-02-02 10:15:00.000
p2705
ssVMLH032-POS1
p2706
(dp2707
Vtype
p2708
VWindows XP Professional
p2709
sVinstallDate
p2710
V2008-07-22 07:51:00.000
p2711
ssVMLH032-POS2
p2712
(dp2713
Vtype
p2714
VWindows XP Professional
p2715
sVinstallDate
p2716
V2008-07-22 07:51:00.000
p2717
ssVMLH032-POS3
p2718
(dp2719
Vtype
p2720
VWindows XP Professional
p2721
sVinstallDate
p2722
V2008-07-22 07:51:00.000
p2723
ssVMLH071-POS1
p2724
(dp2725
Vtype
p2726
VWindows XP Professional
p2727
sVinstallDate
p2728
V2008-06-26 14:23:00.000
p2729
ssVGMC084-S
p2730
(dp2731
Vtype
p2732
VWindows 7 Professional
p2733
sVinstallDate
p2734
V2011-08-31 11:07:00.000
p2735
ssVABC065-S
p2736
(dp2737
Vtype
p2738
VWindows 7 Professional
p2739
sVinstallDate
p2740
V2011-08-31 11:07:00.000
p2741
ssVSYL011-S
p2742
(dp2743
Vtype
p2744
VWindows 7 Professional
p2745
sVinstallDate
p2746
V2011-08-31 11:07:00.000
p2747
ssVMLH016-POS2
p2748
(dp2749
Vtype
p2750
VWindows XP Professional
p2751
sVinstallDate
p2752
V2008-06-26 14:23:00.000
p2753
ssVRPD061-POS2
p2754
(dp2755
Vtype
p2756
VWindows 7 Professional
p2757
sVinstallDate
p2758
V2011-08-31 11:07:00.000
p2759
ssVRPD061-POS1
p2760
(dp2761
Vtype
p2762
VWindows 7 Professional
p2763
sVinstallDate
p2764
V2011-08-31 11:07:00.000
p2765
ssVMLH016-POS1
p2766
(dp2767
Vtype
p2768
VWindows XP Professional
p2769
sVinstallDate
p2770
V2008-06-26 14:23:00.000
p2771
ssVMLH765-POS1
p2772
(dp2773
Vtype
p2774
VWindows 7 Professional
p2775
sVinstallDate
p2776
V2011-08-31 11:07:00.000
p2777
ssVABC083-S
p2778
(dp2779
Vtype
p2780
VWindows 7 Professional
p2781
sVinstallDate
p2782
V2011-08-31 11:07:00.000
p2783
ssVMLH094-POS1
p2784
(dp2785
Vtype
p2786
VWindows XP Professional
p2787
sVinstallDate
p2788
V2008-06-26 14:23:00.000
p2789
ssVMLH094-POS2
p2790
(dp2791
Vtype
p2792
VWindows XP Professional
p2793
sVinstallDate
p2794
V2008-06-26 14:23:00.000
p2795
ssVQUK101-POS1
p2796
(dp2797
Vtype
p2798
VWindows 7 Professional
p2799
sVinstallDate
p2800
V2011-08-31 11:07:00.000
p2801
ssVABC099-S
p2802
(dp2803
Vtype
p2804
VWindows 7 Professional
p2805
sVinstallDate
p2806
V2011-08-31 11:07:00.000
p2807
ssVRPD004-S
p2808
(dp2809
Vtype
p2810
VWindows 7 Professional
p2811
sVinstallDate
p2812
V2011-08-31 11:07:00.000
p2813
ssVMNH054-POS1
p2814
(dp2815
Vtype
p2816
VWindows 7 Professional
p2817
sVinstallDate
p2818
V2011-08-31 11:07:00.000
p2819
ssVMLH088-POS1
p2820
(dp2821
Vtype
p2822
VWindows XP Professional
p2823
sVinstallDate
p2824
V2008-06-26 14:23:00.000
p2825
ssVMLHOFFICE-2016
p2826
(dp2827
Vtype
p2828
VWindows 7 Home Premium x64 Edition
p2829
sVinstallDate
p2830
V2013-01-18 10:08:00.000
p2831
ssVMLH260-POS1
p2832
(dp2833
Vtype
p2834
VWindows 7 Professional
p2835
sVinstallDate
p2836
V2011-08-31 11:07:00.000
p2837
ssV_TroyPC
p2838
(dp2839
Vtype
p2840
VWindows 7 Professional
p2841
sVinstallDate
p2842
V2014-04-04 07:30:00.000
p2843
ssVQUK028-POS1
p2844
(dp2845
Vtype
p2846
VWindows 7 Professional
p2847
sVinstallDate
p2848
V2011-08-31 11:07:00.000
p2849
ssVQUK038-POS1
p2850
(dp2851
Vtype
p2852
VWindows 7 Professional
p2853
sVinstallDate
p2854
V2015-02-02 16:25:00.000
p2855
ssVSYL031-POS1
p2856
(dp2857
Vtype
p2858
VWindows 7 Professional
p2859
sVinstallDate
p2860
V2011-08-31 11:07:00.000
p2861
ssVMLH768-POS1
p2862
(dp2863
Vtype
p2864
VWindows XP Professional
p2865
sVinstallDate
p2866
V2008-06-26 14:23:00.000
p2867
ssVRPD100-POS1
p2868
(dp2869
Vtype
p2870
VWindows 7 Professional
p2871
sVinstallDate
p2872
V2011-08-31 11:07:00.000
p2873
ssVTSQ002-W1
p2874
(dp2875
Vtype
p2876
VWindows 7 Professional
p2877
sVinstallDate
p2878
V2011-08-31 11:07:00.000
p2879
ssVABC129-POS1
p2880
(dp2881
Vtype
p2882
VWindows 7 Professional
p2883
sVinstallDate
p2884
V2014-02-18 09:11:00.000
p2885
ssVMLH024-POS1
p2886
(dp2887
Vtype
p2888
VWindows 7 Professional
p2889
sVinstallDate
p2890
V2011-08-31 11:07:00.000
p2891
ssVGMC044-S
p2892
(dp2893
Vtype
p2894
VWindows 7 Professional
p2895
sVinstallDate
p2896
V2011-08-31 11:07:00.000
p2897
ssVGLE075-POS1
p2898
(dp2899
Vtype
p2900
VWindows 7 Professional
p2901
sVinstallDate
p2902
V2011-08-31 11:07:00.000
p2903
ssVABC061-S
p2904
(dp2905
Vtype
p2906
VWindows 7 Professional
p2907
sVinstallDate
p2908
V2011-08-31 11:07:00.000
p2909
ssV_JohnPC
p2910
(dp2911
Vtype
p2912
VWindows 7 Professional
p2913
sVinstallDate
p2914
V2013-08-12 16:52:00.000
p2915
ssVINT018-S
p2916
(dp2917
Vtype
p2918
VWindows 7 Professional
p2919
sVinstallDate
p2920
V2010-02-02 10:15:00.000
p2921
ssVMLH084-POS1
p2922
(dp2923
Vtype
p2924
VWindows 7 Professional
p2925
sVinstallDate
p2926
V2011-08-31 11:07:00.000
p2927
ssVTIS008-POS1
p2928
(dp2929
Vtype
p2930
VWindows 7 Professional
p2931
sVinstallDate
p2932
V2011-08-31 11:07:00.000
p2933
ssVQUK250-S
p2934
(dp2935
Vtype
p2936
VWindows 7 Professional
p2937
sVinstallDate
p2938
V2011-08-31 11:07:00.000
p2939
ssVMLH084-POS2
p2940
(dp2941
Vtype
p2942
VWindows 7 Professional
p2943
sVinstallDate
p2944
V2011-08-31 11:07:00.000
p2945
ssVABC080-S
p2946
(dp2947
Vtype
p2948
VWindows 7 Professional
p2949
sVinstallDate
p2950
V2011-08-31 11:07:00.000
p2951
ssVGLE088-POS1
p2952
(dp2953
Vtype
p2954
VWindows 7 Professional
p2955
sVinstallDate
p2956
V2011-08-31 11:07:00.000
p2957
ssVQUK055-POS1
p2958
(dp2959
Vtype
p2960
VWindows 7 Professional
p2961
sVinstallDate
p2962
V2011-08-31 11:07:00.000
p2963
ssVABC029-POS1
p2964
(dp2965
Vtype
p2966
VWindows 7 Professional
p2967
sVinstallDate
p2968
V2014-02-18 09:11:00.000
p2969
ssVQUK586-POS1
p2970
(dp2971
Vtype
p2972
VWindows 7 Professional
p2973
sVinstallDate
p2974
V2011-08-31 11:07:00.000
p2975
ssVPAT002-POS1
p2976
(dp2977
Vtype
p2978
VWindows 7 Professional
p2979
sVinstallDate
p2980
V2011-08-31 11:07:00.000
p2981
ssVMLH770-POS2
p2982
(dp2983
Vtype
p2984
VWindows 7 Professional
p2985
sVinstallDate
p2986
V2011-08-31 11:07:00.000
p2987
ssVMLH770-POS1
p2988
(dp2989
Vtype
p2990
VWindows 7 Professional
p2991
sVinstallDate
p2992
V2011-08-31 11:07:00.000
p2993
ssVQUK041-POS1
p2994
(dp2995
Vtype
p2996
VWindows 7 Professional
p2997
sVinstallDate
p2998
V2011-08-31 11:07:00.000
p2999
ssVQUK624-POS1
p3000
(dp3001
Vtype
p3002
VWindows 7 Professional
p3003
sVinstallDate
p3004
V2015-02-02 16:25:00.000
p3005
ssVMLH077-POS2
p3006
(dp3007
Vtype
p3008
VWindows XP Professional
p3009
sVinstallDate
p3010
V2008-06-26 14:23:00.000
p3011
ssVMLH077-POS1
p3012
(dp3013
Vtype
p3014
VWindows XP Professional
p3015
sVinstallDate
p3016
V2008-06-26 14:23:00.000
p3017
ssVMLH062-POS1
p3018
(dp3019
Vtype
p3020
VWindows XP Professional
p3021
sVinstallDate
p3022
V2008-06-26 14:23:00.000
p3023
ssVMLH062-POS2
p3024
(dp3025
Vtype
p3026
VWindows 7 Professional
p3027
sVinstallDate
p3028
V2011-08-31 11:07:00.000
p3029
ssVABC088-S
p3030
(dp3031
Vtype
p3032
VWindows 7 Professional
p3033
sVinstallDate
p3034
V2011-08-31 11:07:00.000
p3035
ssVMLH086-POS1
p3036
(dp3037
Vtype
p3038
VWindows XP Professional
p3039
sVinstallDate
p3040
V2008-06-26 14:23:00.000
p3041
ssVSYL016-S
p3042
(dp3043
Vtype
p3044
VWindows XP Professional
p3045
sVinstallDate
p3046
V2008-06-26 14:23:00.000
p3047
ssVABC237-POS1
p3048
(dp3049
Vtype
p3050
VWindows 7 Professional
p3051
sVinstallDate
p3052
V2014-02-18 09:11:00.000
p3053
ssVGLE072-POS1
p3054
(dp3055
Vtype
p3056
VWindows 7 Professional
p3057
sVinstallDate
p3058
V2011-08-31 11:07:00.000
p3059
ssVQUK049-POS2
p3060
(dp3061
Vtype
p3062
VWindows 7 Professional
p3063
sVinstallDate
p3064
V2014-02-18 09:11:00.000
p3065
ssVRPD083-S
p3066
(dp3067
Vtype
p3068
VWindows 7 Professional
p3069
sVinstallDate
p3070
V2011-08-31 11:07:00.000
p3071
ssVSYL015-S
p3072
(dp3073
Vtype
p3074
VWindows 7 Professional
p3075
sVinstallDate
p3076
V2011-08-31 11:07:00.000
p3077
ssVQUK049-POS1
p3078
(dp3079
Vtype
p3080
VWindows 7 Professional
p3081
sVinstallDate
p3082
V2014-02-18 09:11:00.000
p3083
ssVRPD079-POS1
p3084
(dp3085
Vtype
p3086
VWindows 7 Professional
p3087
sVinstallDate
p3088
V2011-08-31 11:07:00.000
p3089
ssVVPN003-S
p3090
(dp3091
Vtype
p3092
VWindows XP Professional
p3093
sVinstallDate
p3094
NssVVPN004-S
p3095
(dp3096
Vtype
p3097
VWindows XP Professional
p3098
sVinstallDate
p3099
V2008-07-22 07:51:00.000
p3100
ssVOPI001-POS1
p3101
(dp3102
Vtype
p3103
VWindows 7 Professional
p3104
sVinstallDate
p3105
V2014-02-18 09:11:00.000
p3106
ssV_NickPC
p3107
(dp3108
Vtype
p3109
VWindows 7 Professional
p3110
sVinstallDate
p3111
V2013-08-12 16:52:00.000
p3112
ssVOPI001-POS2
p3113
(dp3114
Vtype
p3115
VWindows 7 Professional
p3116
sVinstallDate
p3117
V2014-02-18 09:11:00.000
p3118
ssVKIN077-POS1
p3119
(dp3120
Vtype
p3121
VWindows 7 Professional
p3122
sVinstallDate
p3123
V2011-08-31 11:07:00.000
p3124
ssVGMC022-POS1
p3125
(dp3126
Vtype
p3127
VWindows 7 Professional
p3128
sVinstallDate
p3129
V2011-08-31 11:07:00.000
p3130
ssVSYL001-W1
p3131
(dp3132
Vtype
p3133
VWindows 7 Professional
p3134
sVinstallDate
p3135
V2011-08-31 11:07:00.000
p3136
ssVCPS031-S
p3137
(dp3138
Vtype
p3139
VWindows 7 Professional
p3140
sVinstallDate
p3141
V2011-08-31 11:07:00.000
p3142
ssVAMP001-W1
p3143
(dp3144
Vtype
p3145
VWindows 7 Professional
p3146
sVinstallDate
p3147
V2012-02-22 16:38:00.000
p3148
ssVABC256-POS1
p3149
(dp3150
Vtype
p3151
VWindows 7 Professional
p3152
sVinstallDate
p3153
V2012-02-22 16:38:00.000
p3154
ssVSEL200-S
p3155
(dp3156
Vtype
p3157
NsVinstallDate
p3158
NssVQUK485-POS1
p3159
(dp3160
Vtype
p3161
VWindows 7 Professional
p3162
sVinstallDate
p3163
V2011-08-31 11:07:00.000
p3164
ssVQUK062-POS1
p3165
(dp3166
Vtype
p3167
VWindows 7 Professional
p3168
sVinstallDate
p3169
V2015-02-02 16:25:00.000
p3170
ssVQUK099-POS1
p3171
(dp3172
Vtype
p3173
VWindows 7 Professional
p3174
sVinstallDate
p3175
V2011-08-31 11:07:00.000
p3176
ssVABC246-S
p3177
(dp3178
Vtype
p3179
VWindows 7 Professional
p3180
sVinstallDate
p3181
V2011-08-31 11:07:00.000
p3182
ssVQUK095-POS2
p3183
(dp3184
Vtype
p3185
VWindows 7 Professional
p3186
sVinstallDate
p3187
V2011-08-31 11:07:00.000
p3188
ssVQUK095-POS1
p3189
(dp3190
Vtype
p3191
VWindows 7 Professional
p3192
sVinstallDate
p3193
V2011-08-31 11:07:00.000
p3194
ssVMLH020-POS2
p3195
(dp3196
Vtype
p3197
VWindows 7 Professional
p3198
sVinstallDate
p3199
V2011-08-31 11:07:00.000
p3200
ssVMLH020-POS1
p3201
(dp3202
Vtype
p3203
VWindows 7 Professional
p3204
sVinstallDate
p3205
V2011-08-31 11:07:00.000
p3206
ssVMLH104-POS1
p3207
(dp3208
Vtype
p3209
VWindows 7 Professional
p3210
sVinstallDate
p3211
V2011-08-31 11:07:00.000
p3212
ssVMLH056-POS2
p3213
(dp3214
Vtype
p3215
VWindows 7 Professional
p3216
sVinstallDate
p3217
V2010-12-01 15:12:00.000
p3218
ssVMLH759-POS1
p3219
(dp3220
Vtype
p3221
VWindows 7 Professional
p3222
sVinstallDate
p3223
V2012-02-22 16:38:00.000
p3224
ssVEZP001-S
p3225
(dp3226
Vtype
p3227
VWindows XP Professional
p3228
sVinstallDate
p3229
V2008-06-26 14:23:00.000
p3230
ssVKIN150-POS1
p3231
(dp3232
Vtype
p3233
VWindows 7 Professional
p3234
sVinstallDate
p3235
V2011-08-31 11:07:00.000
p3236
ssVQUK089-POS1
p3237
(dp3238
Vtype
p3239
VWindows 7 Professional
p3240
sVinstallDate
p3241
V2011-08-31 11:07:00.000
p3242
ssVABC254-POS1
p3243
(dp3244
Vtype
p3245
VWindows 7 Professional
p3246
sVinstallDate
p3247
V2012-02-22 16:38:00.000
p3248
ssVQUK742-POS1
p3249
(dp3250
Vtype
p3251
VWindows 7 Professional
p3252
sVinstallDate
p3253
V2012-02-22 16:38:00.000
p3254
ssVMLH022-POS1
p3255
(dp3256
Vtype
p3257
VWindows 7 Professional
p3258
sVinstallDate
p3259
V2011-08-31 11:07:00.000
p3260
ssVMLH043-POS1
p3261
(dp3262
Vtype
p3263
VWindows XP Professional
p3264
sVinstallDate
p3265
V2008-06-26 14:23:00.000
p3266
ssVMLH718-POS1
p3267
(dp3268
Vtype
p3269
VWindows XP Professional
p3270
sVinstallDate
p3271
V2008-06-26 14:23:00.000
p3272
ssVMLH762-POS1
p3273
(dp3274
Vtype
p3275
VWindows 7 Professional
p3276
sVinstallDate
p3277
V2012-02-22 16:38:00.000
p3278
ssVMLH721-POS1
p3279
(dp3280
Vtype
p3281
VWindows 7 Professional
p3282
sVinstallDate
p3283
V2011-08-31 11:07:00.000
p3284
ssVMLH043-POS2
p3285
(dp3286
Vtype
p3287
VWindows XP Professional
p3288
sVinstallDate
p3289
V2008-06-26 14:23:00.000
p3290
ssVMLH012-POS1
p3291
(dp3292
Vtype
p3293
VWindows 7 Professional
p3294
sVinstallDate
p3295
V2011-08-31 11:07:00.000
p3296
ssVMLH090-POS1
p3297
(dp3298
Vtype
p3299
VWindows XP Professional
p3300
sVinstallDate
p3301
V2008-07-22 07:51:00.000
p3302
ssVMLH090-POS2
p3303
(dp3304
Vtype
p3305
VWindows XP Professional
p3306
sVinstallDate
p3307
V2008-07-22 07:51:00.000
p3308
ssVGMC052-POS1
p3309
(dp3310
Vtype
p3311
VWindows 7 Professional
p3312
sVinstallDate
p3313
V2011-08-31 11:07:00.000
p3314
ssVABC068-S
p3315
(dp3316
Vtype
p3317
VWindows 7 Professional
p3318
sVinstallDate
p3319
V2011-08-31 11:07:00.000
p3320
ssVMLH063-POS1
p3321
(dp3322
Vtype
p3323
VWindows 7 Professional
p3324
sVinstallDate
p3325
V2011-08-31 11:07:00.000
p3326
ssVMLH054-POS1
p3327
(dp3328
Vtype
p3329
VWindows 7 Professional
p3330
sVinstallDate
p3331
V2011-08-31 11:07:00.000
p3332
ssVABC010-POS1
p3333
(dp3334
Vtype
p3335
VWindows 7 Professional
p3336
sVinstallDate
p3337
V2011-08-31 11:07:00.000
p3338
ssVMLH056-POS1
p3339
(dp3340
Vtype
p3341
VWindows 7 Professional
p3342
sVinstallDate
p3343
V2010-12-01 15:12:00.000
p3344
ssVQUK086-POS1
p3345
(dp3346
Vtype
p3347
VWindows 7 Professional
p3348
sVinstallDate
p3349
V2015-02-02 16:25:00.000
p3350
ssVABC259-POS1
p3351
(dp3352
Vtype
p3353
VWindows 7 Professional
p3354
sVinstallDate
p3355
V2012-02-22 16:38:00.000
p3356
ssVABC063-S
p3357
(dp3358
Vtype
p3359
VWindows 7 Professional
p3360
sVinstallDate
p3361
V2011-08-31 11:07:00.000
p3362
ssVQUK236-POS1
p3363
(dp3364
Vtype
p3365
VWindows 7 Professional
p3366
sVinstallDate
p3367
V2011-08-31 11:07:00.000
p3368
ssVABC047-POS1
p3369
(dp3370
Vtype
p3371
VWindows 7 Professional
p3372
sVinstallDate
p3373
V2014-02-18 09:11:00.000
p3374
ssVMLH726-POS1
p3375
(dp3376
Vtype
p3377
VWindows 7 Professional
p3378
sVinstallDate
p3379
V2011-08-31 11:07:00.000
p3380
ssVMLH764-POS1
p3381
(dp3382
Vtype
p3383
VWindows XP Professional
p3384
sVinstallDate
p3385
V2008-06-26 14:23:00.000
p3386
ssVMLH723-POS1
p3387
(dp3388
Vtype
p3389
VWindows 7 Professional
p3390
sVinstallDate
p3391
V2011-08-31 11:07:00.000
p3392
ssVMLH711-POS1
p3393
(dp3394
Vtype
p3395
VWindows 7 Professional
p3396
sVinstallDate
p3397
V2011-08-31 11:07:00.000
p3398
ssVPPA010-S
p3399
(dp3400
Vtype
p3401
VWindows XP Professional
p3402
sVinstallDate
p3403
V2008-06-26 14:23:00.000
p3404
ssVRDN067-S
p3405
(dp3406
Vtype
p3407
VWindows 7 Professional
p3408
sVinstallDate
p3409
V2011-08-31 11:07:00.000
p3410
ssVMLH033-POS1
p3411
(dp3412
Vtype
p3413
VWindows 7 Professional
p3414
sVinstallDate
p3415
V2011-08-31 11:07:00.000
p3416
ssVOPI500-POS1
p3417
(dp3418
Vtype
p3419
VWindows XP Professional
p3420
sVinstallDate
p3421
NssVMAURICIO-WIN7-HOME
p3422
(dp3423
Vtype
p3424
VWindows 10 Pro x64 Edition
p3425
sVinstallDate
p3426
V2015-08-11 23:14:00.000
p3427
ssVMLH092-POS1
p3428
(dp3429
Vtype
p3430
VWindows 7 Professional
p3431
sVinstallDate
p3432
V2011-08-31 11:07:00.000
p3433
ssVMLH735-POS1
p3434
(dp3435
Vtype
p3436
VWindows 7 Professional
p3437
sVinstallDate
p3438
V2011-08-31 11:07:00.000
p3439
ssVABC212-POS1
p3440
(dp3441
Vtype
p3442
VWindows 7 Professional
p3443
sVinstallDate
p3444
V2014-02-18 09:11:00.000
p3445
ssVABC046-S
p3446
(dp3447
Vtype
p3448
VWindows 7 Professional
p3449
sVinstallDate
p3450
V2011-08-31 11:07:00.000
p3451
ssVPVP005-POS1
p3452
(dp3453
Vtype
p3454
VWindows 7 Professional
p3455
sVinstallDate
p3456
V2012-02-22 16:38:00.000
p3457
ssVKIN058-POS1
p3458
(dp3459
Vtype
p3460
VWindows 7 Professional
p3461
sVinstallDate
p3462
V2011-08-31 11:07:00.000
p3463
ssVQUK390-POS1
p3464
(dp3465
Vtype
p3466
VWindows 7 Professional
p3467
sVinstallDate
p3468
V2011-08-31 11:07:00.000
p3469
ssVMLH036-POS1
p3470
(dp3471
Vtype
p3472
VWindows XP Professional
p3473
sVinstallDate
p3474
V2008-07-22 07:51:00.000
p3475
ssVGLE004-POS2
p3476
(dp3477
Vtype
p3478
VWindows 7 Professional
p3479
sVinstallDate
p3480
V2011-08-31 11:07:00.000
p3481
ssV_UltraPC-Test
p3482
(dp3483
Vtype
p3484
VWindows 7 Professional
p3485
sVinstallDate
p3486
V2011-08-31 11:07:00.000
p3487
ssVQUK635-POS1
p3488
(dp3489
Vtype
p3490
VWindows 7 Professional
p3491
sVinstallDate
p3492
V2011-08-31 11:07:00.000
p3493
ssVGLE004-POS1
p3494
(dp3495
Vtype
p3496
VWindows 7 Professional
p3497
sVinstallDate
p3498
V2011-08-31 11:07:00.000
p3499
ssVABC226-POS1
p3500
(dp3501
Vtype
p3502
VWindows 7 Professional
p3503
sVinstallDate
p3504
V2014-02-18 09:11:00.000
p3505
ssVQUK350-POS1
p3506
(dp3507
Vtype
p3508
VWindows 7 Professional
p3509
sVinstallDate
p3510
V2011-08-31 11:07:00.000
p3511
ssVGMC009-POS1
p3512
(dp3513
Vtype
p3514
VWindows 7 Professional
p3515
sVinstallDate
p3516
V2011-08-31 11:07:00.000
p3517
ssVGMC009-POS2
p3518
(dp3519
Vtype
p3520
VWindows 7 Professional
p3521
sVinstallDate
p3522
V2011-08-31 11:07:00.000
p3523
ssVGMC009-POS3
p3524
(dp3525
Vtype
p3526
VWindows 7 Professional
p3527
sVinstallDate
p3528
V2011-08-31 11:07:00.000
p3529
ssVCPS036-S
p3530
(dp3531
Vtype
p3532
VWindows 7 Professional
p3533
sVinstallDate
p3534
V2011-08-31 11:07:00.000
p3535
ssVIPK201-POS1
p3536
(dp3537
Vtype
p3538
VWindows 7 Professional
p3539
sVinstallDate
p3540
V2011-08-31 11:07:00.000
p3541
ssVMNH048-POS1
p3542
(dp3543
Vtype
p3544
VWindows 7 Professional
p3545
sVinstallDate
p3546
V2011-08-31 11:07:00.000
p3547
ssVMLH075-POS1
p3548
(dp3549
Vtype
p3550
VWindows XP Professional
p3551
sVinstallDate
p3552
V2008-07-22 07:51:00.000
p3553
ssVMLH075-POS2
p3554
(dp3555
Vtype
p3556
VWindows XP Professional
p3557
sVinstallDate
p3558
V2008-07-22 07:51:00.000
p3559
ssVABC097-W1
p3560
(dp3561
Vtype
p3562
VWindows 7 Professional
p3563
sVinstallDate
p3564
V2011-08-31 11:07:00.000
p3565
ssVGMC006-POS1
p3566
(dp3567
Vtype
p3568
VWindows 7 Professional
p3569
sVinstallDate
p3570
V2011-08-31 11:07:00.000
p3571
ssVRDN280-S
p3572
(dp3573
Vtype
p3574
VWindows 7 Professional
p3575
sVinstallDate
p3576
V2011-08-31 11:07:00.000
p3577
ssVCPS014-S
p3578
(dp3579
Vtype
p3580
VWindows 7 Professional
p3581
sVinstallDate
p3582
V2011-08-31 11:07:00.000
p3583
ssVABC034-POS1
p3584
(dp3585
Vtype
p3586
VWindows 7 Professional
p3587
sVinstallDate
p3588
V2011-08-31 11:07:00.000
p3589
ssVSEL400-S
p3590
(dp3591
Vtype
p3592
VWindows XP Professional
p3593
sVinstallDate
p3594
V2007-05-15 15:50:00.000
p3595
ssVKIN034-POS1
p3596
(dp3597
Vtype
p3598
VWindows 7 Professional
p3599
sVinstallDate
p3600
V2011-08-31 11:07:00.000
p3601
ssVKIN038-POS1
p3602
(dp3603
Vtype
p3604
VWindows 7 Professional
p3605
sVinstallDate
p3606
V2011-08-31 11:07:00.000
p3607
ssVKIN038-POS2
p3608
(dp3609
Vtype
p3610
VWindows 7 Professional
p3611
sVinstallDate
p3612
V2011-08-31 11:07:00.000
p3613
ssVMLH028-POS1
p3614
(dp3615
Vtype
p3616
VWindows 7 Professional
p3617
sVinstallDate
p3618
V2011-08-31 11:07:00.000
p3619
ssVMLH036-POS2
p3620
(dp3621
Vtype
p3622
VWindows XP Professional
p3623
sVinstallDate
p3624
V2008-07-22 07:51:00.000
p3625
ssVCCP001-S
p3626
(dp3627
Vtype
p3628
VWindows 7 Professional
p3629
sVinstallDate
p3630
V2010-02-02 10:15:00.000
p3631
ssVMNH165-POS1
p3632
(dp3633
Vtype
p3634
VWindows 7 Professional
p3635
sVinstallDate
p3636
V2011-08-31 11:07:00.000
p3637
ssVQUK710-POS1
p3638
(dp3639
Vtype
p3640
VWindows 7 Professional
p3641
sVinstallDate
p3642
V2011-08-31 11:07:00.000
p3643
ssVABC082-S
p3644
(dp3645
Vtype
p3646
VWindows 7 Professional
p3647
sVinstallDate
p3648
V2011-08-31 11:07:00.000
p3649
ssVMLH012-POS2
p3650
(dp3651
Vtype
p3652
VWindows 7 Professional
p3653
sVinstallDate
p3654
V2011-08-31 11:07:00.000
p3655
ssVKIN063-POS1
p3656
(dp3657
Vtype
p3658
VWindows 7 Professional
p3659
sVinstallDate
p3660
V2011-08-31 11:07:00.000
p3661
ssVRPD055-S
p3662
(dp3663
Vtype
p3664
VWindows 7 Professional
p3665
sVinstallDate
p3666
V2011-08-31 11:07:00.000
p3667
ssVMNH012-POS1
p3668
(dp3669
Vtype
p3670
VWindows 7 Professional
p3671
sVinstallDate
p3672
V2011-08-31 11:07:00.000
p3673
ssVABC227-POS1
p3674
(dp3675
Vtype
p3676
VWindows 7 Professional
p3677
sVinstallDate
p3678
V2014-02-18 09:11:00.000
p3679
ssVGMC067-POS1
p3680
(dp3681
Vtype
p3682
VWindows 7 Professional
p3683
sVinstallDate
p3684
V2011-08-31 11:07:00.000
p3685
ssVAMP001-S
p3686
(dp3687
Vtype
p3688
VWindows 7 Professional
p3689
sVinstallDate
p3690
V2012-02-22 16:38:00.000
p3691
ssVCPS034-S
p3692
(dp3693
Vtype
p3694
VWindows 7 Professional
p3695
sVinstallDate
p3696
V2011-08-31 11:07:00.000
p3697
ssVGOT164-S
p3698
(dp3699
Vtype
p3700
VWindows XP Professional
p3701
sVinstallDate
p3702
V2008-06-26 14:23:00.000
p3703
ssVPRK415-S
p3704
(dp3705
Vtype
p3706
VWindows XP Professional
p3707
sVinstallDate
p3708
V2007-05-15 15:50:00.000
p3709
ssVMNH014-S
p3710
(dp3711
Vtype
p3712
VWindows XP Professional
p3713
sVinstallDate
p3714
V2007-05-15 15:50:00.000
p3715
ssVQUK010-POS1
p3716
(dp3717
Vtype
p3718
VWindows 7 Professional
p3719
sVinstallDate
p3720
V2011-08-31 11:07:00.000
p3721
ssVABC221-POS1
p3722
(dp3723
Vtype
p3724
VWindows 7 Professional
p3725
sVinstallDate
p3726
V2014-02-18 09:11:00.000
p3727
ssVGLE056-POS1
p3728
(dp3729
Vtype
p3730
VWindows 7 Professional
p3731
sVinstallDate
p3732
V2011-08-31 11:07:00.000
p3733
ssVQUK091-POS1
p3734
(dp3735
Vtype
p3736
VWindows 7 Professional
p3737
sVinstallDate
p3738
V2011-08-31 11:07:00.000
p3739
ssVABC224-S
p3740
(dp3741
Vtype
p3742
VWindows 7 Professional
p3743
sVinstallDate
p3744
V2011-08-31 11:07:00.000
p3745
ssVGLE073-POS1
p3746
(dp3747
Vtype
p3748
VWindows 7 Professional
p3749
sVinstallDate
p3750
V2011-08-31 11:07:00.000
p3751
ssVQUK731-POS1
p3752
(dp3753
Vtype
p3754
VWindows 7 Professional
p3755
sVinstallDate
p3756
V2012-02-22 16:38:00.000
p3757
ssVSPN003-S
p3758
(dp3759
Vtype
p3760
VWindows 7 Professional
p3761
sVinstallDate
p3762
V2010-02-02 10:15:00.000
p3763
ssVRPD001-POS1
p3764
(dp3765
Vtype
p3766
VWindows 7 Professional
p3767
sVinstallDate
p3768
V2011-08-31 11:07:00.000
p3769
ssVSEL076-S
p3770
(dp3771
Vtype
p3772
VWindows XP Professional
p3773
sVinstallDate
p3774
V2008-05-29 15:39:00.000
p3775
ssVVPN007-POS1
p3776
(dp3777
Vtype
p3778
VWindows 7 Professional
p3779
sVinstallDate
p3780
V2014-02-18 09:11:00.000
p3781
ssVMLH704-POS1
p3782
(dp3783
Vtype
p3784
VWindows 7 Professional
p3785
sVinstallDate
p3786
V2011-08-31 11:07:00.000
p3787
ssVRGC015-S
p3788
(dp3789
Vtype
p3790
VWindows XP Professional
p3791
sVinstallDate
p3792
V2007-11-05 13:36:00.000
p3793
ssVABC065-POS1
p3794
(dp3795
Vtype
p3796
VWindows 7 Professional
p3797
sVinstallDate
p3798
V2011-08-31 11:07:00.000
p3799
ssVABC071-POS1
p3800
(dp3801
Vtype
p3802
VWindows 7 Professional
p3803
sVinstallDate
p3804
V2014-02-18 09:11:00.000
p3805
ssVRPD039-POS1
p3806
(dp3807
Vtype
p3808
VWindows 7 Professional
p3809
sVinstallDate
p3810
V2011-08-31 11:07:00.000
p3811
ssVQUK050-POS1
p3812
(dp3813
Vtype
p3814
VWindows 7 Professional
p3815
sVinstallDate
p3816
V2014-02-18 09:11:00.000
p3817
ssVPRK029-S
p3818
(dp3819
Vtype
p3820
VWindows XP Professional
p3821
sVinstallDate
p3822
V2008-06-26 14:23:00.000
p3823
ssVGLE091-POS1
p3824
(dp3825
Vtype
p3826
VWindows 7 Professional
p3827
sVinstallDate
p3828
V2011-08-31 11:07:00.000
p3829
ssVTIS005-POS1
p3830
(dp3831
Vtype
p3832
VWindows 7 Professional
p3833
sVinstallDate
p3834
V2011-08-31 11:07:00.000
p3835
ssVVPN005-POS1
p3836
(dp3837
Vtype
p3838
VWindows 7 Professional
p3839
sVinstallDate
p3840
V2012-02-22 16:38:00.000
p3841
ssVPRK077-S
p3842
(dp3843
Vtype
p3844
VWindows 7 Professional
p3845
sVinstallDate
p3846
V2011-08-31 11:07:00.000
p3847
ssVEXP001-W1
p3848
(dp3849
Vtype
p3850
VWindows XP Professional
p3851
sVinstallDate
p3852
V2008-07-22 07:51:00.000
p3853
ssVKIN010-POS1
p3854
(dp3855
Vtype
p3856
VWindows 7 Professional
p3857
sVinstallDate
p3858
V2011-08-31 11:07:00.000
p3859
ssVABC015-POS1
p3860
(dp3861
Vtype
p3862
VWindows 7 Professional
p3863
sVinstallDate
p3864
V2011-08-31 11:07:00.000
p3865
ssVMNH002-POS1
p3866
(dp3867
Vtype
p3868
VWindows 7 Professional
p3869
sVinstallDate
p3870
V2011-08-31 11:07:00.000
p3871
ssVMNH071-S
p3872
(dp3873
Vtype
p3874
VWindows 7 Professional
p3875
sVinstallDate
p3876
V2011-08-31 11:07:00.000
p3877
ssVABC087-POS1
p3878
(dp3879
Vtype
p3880
VWindows 7 Professional
p3881
sVinstallDate
p3882
V2014-02-18 09:11:00.000
p3883
ssVABC041-S
p3884
(dp3885
Vtype
p3886
VWindows 7 Professional
p3887
sVinstallDate
p3888
V2011-08-31 11:07:00.000
p3889
ssVSEL054-S
p3890
(dp3891
Vtype
p3892
VWindows XP Professional
p3893
sVinstallDate
p3894
V2008-06-26 14:23:00.000
p3895
ssVABC252-POS1
p3896
(dp3897
Vtype
p3898
VWindows 7 Professional
p3899
sVinstallDate
p3900
V2012-02-22 16:38:00.000
p3901
ssVGLE077-POS1
p3902
(dp3903
Vtype
p3904
VWindows 7 Professional
p3905
sVinstallDate
p3906
V2011-08-31 11:07:00.000
p3907
ssVMLH082-POS1
p3908
(dp3909
Vtype
p3910
VWindows 7 Professional
p3911
sVinstallDate
p3912
V2011-08-31 11:07:00.000
p3913
ssVMLH078-POS2
p3914
(dp3915
Vtype
p3916
VWindows XP Professional
p3917
sVinstallDate
p3918
V2008-06-26 14:23:00.000
p3919
ssVMNH004-POS1
p3920
(dp3921
Vtype
p3922
VWindows 7 Professional
p3923
sVinstallDate
p3924
V2011-08-31 11:07:00.000
p3925
ssVMLH078-POS1
p3926
(dp3927
Vtype
p3928
VWindows XP Professional
p3929
sVinstallDate
p3930
V2008-06-26 14:23:00.000
p3931
ssVABC009-POS1
p3932
(dp3933
Vtype
p3934
VWindows 7 Professional
p3935
sVinstallDate
p3936
V2014-02-18 09:11:00.000
p3937
ssVMLH051-POS2
p3938
(dp3939
Vtype
p3940
VWindows XP Professional
p3941
sVinstallDate
p3942
V2008-07-22 07:51:00.000
p3943
ssVMLH161-POS2
p3944
(dp3945
Vtype
p3946
VWindows 7 Professional
p3947
sVinstallDate
p3948
V2010-12-01 15:12:00.000
p3949
ssVMLH161-POS1
p3950
(dp3951
Vtype
p3952
VWindows 7 Professional
p3953
sVinstallDate
p3954
V2010-12-01 15:12:00.000
p3955
ssVABC222-POS1
p3956
(dp3957
Vtype
p3958
VWindows 7 Professional
p3959
sVinstallDate
p3960
V2012-02-22 16:38:00.000
p3961
ssVPPA030-S
p3962
(dp3963
Vtype
p3964
VWindows 7 Professional
p3965
sVinstallDate
p3966
V2012-02-22 16:38:00.000
p3967
ssVTSQ029-S
p3968
(dp3969
Vtype
p3970
VWindows 7 Professional
p3971
sVinstallDate
p3972
V2011-08-31 11:07:00.000
p3973
ssVQUK088-SERVER
p3974
(dp3975
Vtype
p3976
VWindows 7 Professional
p3977
sVinstallDate
p3978
V2011-08-31 11:07:00.000
p3979
ssVABC017-POS1
p3980
(dp3981
Vtype
p3982
VWindows 7 Professional
p3983
sVinstallDate
p3984
V2011-08-31 11:07:00.000
p3985
ssVMLH257-POS3
p3986
(dp3987
Vtype
p3988
VWindows 7 Professional
p3989
sVinstallDate
p3990
V2011-08-31 11:07:00.000
p3991
ssVMLH257-POS2
p3992
(dp3993
Vtype
p3994
VWindows 7 Professional
p3995
sVinstallDate
p3996
V2011-08-31 11:07:00.000
p3997
ssVMLH257-POS1
p3998
(dp3999
Vtype
p4000
VWindows 7 Professional
p4001
sVinstallDate
p4002
V2011-08-31 11:07:00.000
p4003
ssVMLH004-POS1
p4004
(dp4005
Vtype
p4006
VWindows 7 Professional
p4007
sVinstallDate
p4008
V2011-08-31 11:07:00.000
p4009
ssVABC244-POS2
p4010
(dp4011
Vtype
p4012
VWindows 7 Professional
p4013
sVinstallDate
p4014
V2012-02-22 16:38:00.000
p4015
ssVMLH011-POS1
p4016
(dp4017
Vtype
p4018
VWindows 7 Professional
p4019
sVinstallDate
p4020
V2011-08-31 11:07:00.000
p4021
ssVMLH004-POS2
p4022
(dp4023
Vtype
p4024
VWindows 7 Professional
p4025
sVinstallDate
p4026
V2011-08-31 11:07:00.000
p4027
ssVMLH109-POS1
p4028
(dp4029
Vtype
p4030
VWindows 7 Professional
p4031
sVinstallDate
p4032
V2010-12-01 15:12:00.000
p4033
ssVQUK779-POS1
p4034
(dp4035
Vtype
p4036
VWindows 7 Professional
p4037
sVinstallDate
p4038
V2012-02-22 16:38:00.000
p4039
ssVMLH109-POS2
p4040
(dp4041
Vtype
p4042
VWindows 7 Professional
p4043
sVinstallDate
p4044
V2010-12-01 15:12:00.000
p4045
ssVMLH095-POS1
p4046
(dp4047
Vtype
p4048
VWindows XP Professional
p4049
sVinstallDate
p4050
V2008-07-22 07:51:00.000
p4051
ssVTSQ203-POS1
p4052
(dp4053
Vtype
p4054
VWindows 7 Professional
p4055
sVinstallDate
p4056
V2011-08-31 11:07:00.000
p4057
ssVABC244-POS1
p4058
(dp4059
Vtype
p4060
VWindows 7 Professional
p4061
sVinstallDate
p4062
V2012-02-22 16:38:00.000
p4063
ssVQUK808-POS1
p4064
(dp4065
Vtype
p4066
VWindows 7 Professional
p4067
sVinstallDate
p4068
V2011-08-31 11:07:00.000
p4069
ssVKIN015-POS1
p4070
(dp4071
Vtype
p4072
VWindows 7 Professional
p4073
sVinstallDate
p4074
V2011-08-31 11:07:00.000
p4075
ssVMNH055-POS1
p4076
(dp4077
Vtype
p4078
VWindows 7 Professional
p4079
sVinstallDate
p4080
V2011-08-31 11:07:00.000
p4081
ssVABC250-POS1
p4082
(dp4083
Vtype
p4084
VWindows 7 Professional
p4085
sVinstallDate
p4086
V2014-02-18 09:11:00.000
p4087
ssVMLH052-SERVER
p4088
(dp4089
Vtype
p4090
VWindows 7 Professional
p4091
sVinstallDate
p4092
V2012-02-22 16:38:00.000
p4093
ssVGLE001-POS1
p4094
(dp4095
Vtype
p4096
VWindows 7 Professional
p4097
sVinstallDate
p4098
V2011-08-31 11:07:00.000
p4099
ssVKIN040-POS2
p4100
(dp4101
Vtype
p4102
VWindows 7 Professional
p4103
sVinstallDate
p4104
V2011-08-31 11:07:00.000
p4105
ssVVFC001-POS1
p4106
(dp4107
Vtype
p4108
VWindows 7 Professional
p4109
sVinstallDate
p4110
V2015-02-02 16:25:00.000
p4111
ssVKIN040-POS1
p4112
(dp4113
Vtype
p4114
VWindows 7 Professional
p4115
sVinstallDate
p4116
V2011-08-31 11:07:00.000
p4117
ssVABC193-POS1
p4118
(dp4119
Vtype
p4120
VWindows 7 Professional
p4121
sVinstallDate
p4122
V2012-02-22 16:38:00.000
p4123
ssVTSQ204-S 
p4124
(dp4125
Vtype
p4126
VWindows 7 Professional
p4127
sVinstallDate
p4128
V2011-08-31 11:07:00.000
p4129
ssVTIS001-POS1
p4130
(dp4131
Vtype
p4132
VWindows 7 Professional
p4133
sVinstallDate
p4134
V2011-08-31 11:07:00.000
p4135
ssVMLH155-POS1
p4136
(dp4137
Vtype
p4138
VWindows XP Professional
p4139
sVinstallDate
p4140
V2008-07-22 07:51:00.000
p4141
ssVMLH155-POS2
p4142
(dp4143
Vtype
p4144
VWindows XP Professional
p4145
sVinstallDate
p4146
V2008-07-22 07:51:00.000
p4147
ssVTIS006-POS2
p4148
(dp4149
Vtype
p4150
VWindows 7 Professional
p4151
sVinstallDate
p4152
V2011-08-31 11:07:00.000
p4153
ssVQUK712-POS1
p4154
(dp4155
Vtype
p4156
VWindows 7 Professional
p4157
sVinstallDate
p4158
V2011-08-31 11:07:00.000
p4159
ssVTIS006-POS1
p4160
(dp4161
Vtype
p4162
VWindows 7 Professional
p4163
sVinstallDate
p4164
V2011-08-31 11:07:00.000
p4165
ssVABC077-S
p4166
(dp4167
Vtype
p4168
VWindows 7 Professional
p4169
sVinstallDate
p4170
V2011-08-31 11:07:00.000
p4171
ssVRPD020-POS1
p4172
(dp4173
Vtype
p4174
VWindows 7 Professional
p4175
sVinstallDate
p4176
V2011-08-31 11:07:00.000
p4177
ssVQUK711-POS1
p4178
(dp4179
Vtype
p4180
VWindows 7 Professional
p4181
sVinstallDate
p4182
V2011-08-31 11:07:00.000
p4183
ssVTSQ201-POS2
p4184
(dp4185
Vtype
p4186
VWindows 7 Professional
p4187
sVinstallDate
p4188
V2011-08-31 11:07:00.000
p4189
ssVMLH233-POS1
p4190
(dp4191
Vtype
p4192
VWindows 7 Professional
p4193
sVinstallDate
p4194
V2011-08-31 11:07:00.000
p4195
ssVMLH666-POS1
p4196
(dp4197
Vtype
p4198
VWindows 7 Professional
p4199
sVinstallDate
p4200
V2011-08-31 11:07:00.000
p4201
ssVMLH709-POS1
p4202
(dp4203
Vtype
p4204
VWindows 7 Professional
p4205
sVinstallDate
p4206
V2011-08-31 11:07:00.000
p4207
ssVMLH233-POS2
p4208
(dp4209
Vtype
p4210
VWindows 7 Professional
p4211
sVinstallDate
p4212
V2011-08-31 11:07:00.000
p4213
ssVMLH740-POS1
p4214
(dp4215
Vtype
p4216
VWindows 7 Professional
p4217
sVinstallDate
p4218
V2011-08-31 11:07:00.000
p4219
ssVMLH769-POS1
p4220
(dp4221
Vtype
p4222
VWindows 7 Professional
p4223
sVinstallDate
p4224
V2011-08-31 11:07:00.000
p4225
ssVGLE002-POS2
p4226
(dp4227
Vtype
p4228
VWindows 7 Professional
p4229
sVinstallDate
p4230
V2011-08-31 11:07:00.000
p4231
ssVMLH729-POS1
p4232
(dp4233
Vtype
p4234
VWindows 7 Professional
p4235
sVinstallDate
p4236
V2011-08-31 11:07:00.000
p4237
ssVSEL001-S
p4238
(dp4239
Vtype
p4240
VWindows XP Professional
p4241
sVinstallDate
p4242
V2008-06-26 14:23:00.000
p4243
ssVMLH049-POS2
p4244
(dp4245
Vtype
p4246
VWindows 7 Professional
p4247
sVinstallDate
p4248
V2011-08-31 11:07:00.000
p4249
ssVMLH049-POS1
p4250
(dp4251
Vtype
p4252
VWindows 7 Professional
p4253
sVinstallDate
p4254
V2011-08-31 11:07:00.000
p4255
ssVSEL054-W1
p4256
(dp4257
Vtype
p4258
VWindows XP Professional
p4259
sVinstallDate
p4260
V2008-06-26 14:23:00.000
p4261
ssVQUK064-POS1
p4262
(dp4263
Vtype
p4264
VWindows 7 Professional
p4265
sVinstallDate
p4266
V2011-08-31 11:07:00.000
p4267
ssVCPS054-S
p4268
(dp4269
Vtype
p4270
VWindows 7 Professional
p4271
sVinstallDate
p4272
V2011-08-31 11:07:00.000
p4273
ssVAMP003-POS2
p4274
(dp4275
Vtype
p4276
VWindows 7 Professional
p4277
sVinstallDate
p4278
V2012-02-22 16:38:00.000
p4279
ssVAMP003-POS1
p4280
(dp4281
Vtype
p4282
VWindows 7 Professional
p4283
sVinstallDate
p4284
V2012-02-22 16:38:00.000
p4285
ssVMLH039-POS1
p4286
(dp4287
Vtype
p4288
VWindows 7 Professional
p4289
sVinstallDate
p4290
V2011-08-31 11:07:00.000
p4291
ssVQUK022-POS1
p4292
(dp4293
Vtype
p4294
VWindows 7 Professional
p4295
sVinstallDate
p4296
V2011-08-31 11:07:00.000
p4297
ssVTSQ045-S
p4298
(dp4299
Vtype
p4300
VWindows 7 Professional
p4301
sVinstallDate
p4302
V2011-08-31 11:07:00.000
p4303
ssVSEL333-POS1
p4304
(dp4305
Vtype
p4306
VWindows 7 Professional
p4307
sVinstallDate
p4308
V2011-08-31 11:07:00.000
p4309
ssVABC021-POS1
p4310
(dp4311
Vtype
p4312
VWindows 7 Professional
p4313
sVinstallDate
p4314
V2011-08-31 11:07:00.000
p4315
ssVQUK361-POS1
p4316
(dp4317
Vtype
p4318
VWindows 7 Professional
p4319
sVinstallDate
p4320
V2015-02-02 16:25:00.000
p4321
ssVSEL131-S
p4322
(dp4323
Vtype
p4324
VWindows XP Professional
p4325
sVinstallDate
p4326
V2008-06-26 14:23:00.000
p4327
ssVMLH014-POS2
p4328
(dp4329
Vtype
p4330
VWindows XP Professional
p4331
sVinstallDate
p4332
V2008-07-22 07:51:00.000
p4333
ssVINT009-POS1
p4334
(dp4335
Vtype
p4336
VWindows 7 Professional
p4337
sVinstallDate
p4338
V2012-02-22 16:38:00.000
p4339
ssVABC253-POS2
p4340
(dp4341
Vtype
p4342
VWindows 7 Professional
p4343
sVinstallDate
p4344
V2011-08-31 11:07:00.000
p4345
ssVMLH880-POS3
p4346
(dp4347
Vtype
p4348
VWindows XP Professional
p4349
sVinstallDate
p4350
V2008-07-22 07:51:00.000
p4351
ssVQUK340-POS1
p4352
(dp4353
Vtype
p4354
VWindows 7 Professional
p4355
sVinstallDate
p4356
V2015-02-02 16:25:00.000
p4357
ssVMLH880-POS2
p4358
(dp4359
Vtype
p4360
VWindows XP Professional
p4361
sVinstallDate
p4362
V2008-07-22 07:51:00.000
p4363
ssVSEL185-W1
p4364
(dp4365
Vtype
p4366
VWindows XP Professional
p4367
sVinstallDate
p4368
V2008-06-26 14:23:00.000
p4369
ssVSPN002-S
p4370
(dp4371
Vtype
p4372
VWindows XP Professional
p4373
sVinstallDate
p4374
V2007-05-15 15:50:00.000
p4375
ssVMNH173-S
p4376
(dp4377
Vtype
p4378
VWindows 7 Professional
p4379
sVinstallDate
p4380
V2010-02-02 10:15:00.000
p4381
ssVMLH105-POS1
p4382
(dp4383
Vtype
p4384
VWindows XP Professional
p4385
sVinstallDate
p4386
V2008-06-26 14:23:00.000
p4387
ssVABC255-POS1
p4388
(dp4389
Vtype
p4390
VWindows 7 Professional
p4391
sVinstallDate
p4392
V2011-08-31 11:07:00.000
p4393
ssVMLH105-POS2
p4394
(dp4395
Vtype
p4396
VWindows XP Professional
p4397
sVinstallDate
p4398
V2008-06-26 14:23:00.000
p4399
ssVQUK311-POS1
p4400
(dp4401
Vtype
p4402
VWindows 7 Professional
p4403
sVinstallDate
p4404
V2011-08-31 11:07:00.000
p4405
ssVMLH703-POS1
p4406
(dp4407
Vtype
p4408
VWindows 7 Professional
p4409
sVinstallDate
p4410
V2011-08-31 11:07:00.000
p4411
ssVTSQ201-POS1
p4412
(dp4413
Vtype
p4414
VWindows 7 Professional
p4415
sVinstallDate
p4416
V2011-08-31 11:07:00.000
p4417
ssVSEL005-W1
p4418
(dp4419
Vtype
p4420
VWindows XP Professional
p4421
sVinstallDate
p4422
V2008-06-26 14:23:00.000
p4423
ssVQUK189-POS1
p4424
(dp4425
Vtype
p4426
VWindows 7 Professional
p4427
sVinstallDate
p4428
V2015-02-02 16:25:00.000
p4429
ssVMLH810-POS1
p4430
(dp4431
Vtype
p4432
VWindows XP Professional
p4433
sVinstallDate
p4434
V2008-07-22 07:51:00.000
p4435
ssVMLH810-POS2
p4436
(dp4437
Vtype
p4438
VWindows XP Professional
p4439
sVinstallDate
p4440
V2008-07-22 07:51:00.000
p4441
ssVABC092-S
p4442
(dp4443
Vtype
p4444
VWindows 7 Professional
p4445
sVinstallDate
p4446
V2011-08-31 11:07:00.000
p4447
ssVPPA011-S
p4448
(dp4449
Vtype
p4450
VWindows XP Professional
p4451
sVinstallDate
p4452
V2008-06-26 14:23:00.000
p4453
ssVEEP005-S
p4454
(dp4455
Vtype
p4456
VWindows 7 Professional
p4457
sVinstallDate
p4458
V2011-08-31 11:07:00.000
p4459
ssVQUK066-POS1
p4460
(dp4461
Vtype
p4462
VWindows 7 Professional
p4463
sVinstallDate
p4464
V2015-02-02 16:25:00.000
p4465
ssVMLHOFFICE-PC
p4466
(dp4467
Vtype
p4468
VWindows 7 Professional x64 Edition
p4469
sVinstallDate
p4470
V2016-02-09 08:29:00.000
p4471
ssVMLH107-POS1
p4472
(dp4473
Vtype
p4474
VWindows 7 Professional
p4475
sVinstallDate
p4476
V2011-08-31 11:07:00.000
p4477
ssVQUK102-POS1
p4478
(dp4479
Vtype
p4480
VWindows 7 Professional
p4481
sVinstallDate
p4482
V2012-02-22 16:38:00.000
p4483
ssVGMC063-POS1
p4484
(dp4485
Vtype
p4486
VWindows 7 Professional
p4487
sVinstallDate
p4488
V2011-08-31 11:07:00.000
p4489
ssVMLH027-POS1
p4490
(dp4491
Vtype
p4492
VWindows 7 Professional
p4493
sVinstallDate
p4494
V2011-08-31 11:07:00.000
p4495
ssVRDN052-POS2
p4496
(dp4497
Vtype
p4498
VWindows 7 Professional
p4499
sVinstallDate
p4500
V2011-08-31 11:07:00.000
p4501
ssVRDN052-POS1
p4502
(dp4503
Vtype
p4504
VWindows 7 Professional
p4505
sVinstallDate
p4506
V2011-08-31 11:07:00.000
p4507
ssVABC010-S
p4508
(dp4509
Vtype
p4510
VWindows 7 Professional
p4511
sVinstallDate
p4512
V2011-08-31 11:07:00.000
p4513
ssVMLH017-POS1
p4514
(dp4515
Vtype
p4516
VWindows 7 Professional
p4517
sVinstallDate
p4518
V2011-08-31 11:07:00.000
p4519
ssVGMC041-POS1
p4520
(dp4521
Vtype
p4522
VWindows 7 Professional
p4523
sVinstallDate
p4524
V2011-08-31 11:07:00.000
p4525
ssVGOT153-S
p4526
(dp4527
Vtype
p4528
VWindows XP Professional
p4529
sVinstallDate
p4530
V2008-06-26 14:23:00.000
p4531
ssVGMC030-S
p4532
(dp4533
Vtype
p4534
VWindows XP Professional
p4535
sVinstallDate
p4536
V2007-05-15 15:50:00.000
p4537
ssVMLH048-POS1
p4538
(dp4539
Vtype
p4540
VWindows 7 Professional
p4541
sVinstallDate
p4542
V2011-08-31 11:07:00.000
p4543
ssVVPN006-POS1
p4544
(dp4545
Vtype
p4546
VWindows 7 Professional
p4547
sVinstallDate
p4548
V2012-02-22 16:38:00.000
p4549
ssVGMC035-POS1
p4550
(dp4551
Vtype
p4552
VWindows 7 Professional
p4553
sVinstallDate
p4554
V2011-08-31 11:07:00.000
p4555
ssVABC234-POS1
p4556
(dp4557
Vtype
p4558
VWindows 7 Professional
p4559
sVinstallDate
p4560
V2014-02-18 09:11:00.000
p4561
ssVABC223-POS1
p4562
(dp4563
Vtype
p4564
VWindows 7 Professional
p4565
sVinstallDate
p4566
V2014-02-18 09:11:00.000
p4567
ssVMNH008-POS1
p4568
(dp4569
Vtype
p4570
VWindows 7 Professional
p4571
sVinstallDate
p4572
V2011-08-31 11:07:00.000
p4573
ssVIPK202-POS1
p4574
(dp4575
Vtype
p4576
VWindows 7 Professional
p4577
sVinstallDate
p4578
V2011-08-31 11:07:00.000
p4579
ssVSEL088-POS1
p4580
(dp4581
Vtype
p4582
VWindows 7 Professional
p4583
sVinstallDate
p4584
V2011-08-31 11:07:00.000
p4585
ssVABC253-POS1
p4586
(dp4587
Vtype
p4588
VWindows 7 Professional
p4589
sVinstallDate
p4590
V2012-02-22 16:38:00.000
p4591
ssVABC243-S
p4592
(dp4593
Vtype
p4594
VWindows 7 Professional
p4595
sVinstallDate
p4596
V2014-02-18 09:11:00.000
p4597
ssVMLH710-POS1
p4598
(dp4599
Vtype
p4600
VWindows 7 Professional
p4601
sVinstallDate
p4602
V2011-08-31 11:07:00.000
p4603
ssVQUK027-POS1
p4604
(dp4605
Vtype
p4606
VWindows 7 Professional
p4607
sVinstallDate
p4608
V2011-08-31 11:07:00.000
p4609
ssVMLH009-POS2
p4610
(dp4611
Vtype
p4612
VWindows 7 Professional
p4613
sVinstallDate
p4614
V2011-08-31 11:07:00.000
p4615
ssVRPD001-POS2
p4616
(dp4617
Vtype
p4618
VWindows 7 Professional
p4619
sVinstallDate
p4620
V2011-08-31 11:07:00.000
p4621
ssVAMP516-S
p4622
(dp4623
Vtype
p4624
VWindows 7 Professional
p4625
sVinstallDate
p4626
V2014-02-18 09:11:00.000
p4627
ssVMLH009-POS1
p4628
(dp4629
Vtype
p4630
VWindows 7 Professional
p4631
sVinstallDate
p4632
V2011-08-31 11:07:00.000
p4633
ssVPRI001-S
p4634
(dp4635
Vtype
p4636
VWindows XP Professional
p4637
sVinstallDate
p4638
V2008-06-26 14:23:00.000
p4639
ssVMLH731-POS1
p4640
(dp4641
Vtype
p4642
VWindows XP Professional
p4643
sVinstallDate
p4644
V2008-07-22 07:51:00.000
p4645
ssVMLH068-POS1
p4646
(dp4647
Vtype
p4648
VWindows 7 Professional
p4649
sVinstallDate
p4650
V2011-08-31 11:07:00.000
p4651
ssVQUK751-POS1
p4652
(dp4653
Vtype
p4654
VWindows 7 Professional
p4655
sVinstallDate
p4656
V2012-02-22 16:38:00.000
p4657
ssVTSQ020-S
p4658
(dp4659
Vtype
p4660
VWindows 7 Professional
p4661
sVinstallDate
p4662
V2011-08-31 11:07:00.000
p4663
ssVGMC090-POS1
p4664
(dp4665
Vtype
p4666
VWindows 7 Professional
p4667
sVinstallDate
p4668
V2011-08-31 11:07:00.000
p4669
ssVMLH758-POS1
p4670
(dp4671
Vtype
p4672
VWindows 7 Professional
p4673
sVinstallDate
p4674
V2012-02-22 16:38:00.000
p4675
ssVGLE002-POS1
p4676
(dp4677
Vtype
p4678
VWindows 7 Professional
p4679
sVinstallDate
p4680
V2011-08-31 11:07:00.000
p4681
ssVMLH758-POS3
p4682
(dp4683
Vtype
p4684
VWindows 7 Professional
p4685
sVinstallDate
p4686
V2012-02-22 16:38:00.000
p4687
ssVMLH758-POS2
p4688
(dp4689
Vtype
p4690
VWindows 7 Professional
p4691
sVinstallDate
p4692
V2012-02-22 16:38:00.000
p4693
ssVMLH736-POS1
p4694
(dp4695
Vtype
p4696
VWindows 7 Professional
p4697
sVinstallDate
p4698
V2011-08-31 11:07:00.000
p4699
ssVPVP004-POS1
p4700
(dp4701
Vtype
p4702
VWindows 7 Professional
p4703
sVinstallDate
p4704
V2012-02-22 16:38:00.000
p4705
ssVMLH435-POS1
p4706
(dp4707
Vtype
p4708
VWindows XP Professional
p4709
sVinstallDate
p4710
V2008-06-26 14:23:00.000
p4711
ssVKIN022-POS1
p4712
(dp4713
Vtype
p4714
VWindows 7 Professional
p4715
sVinstallDate
p4716
V2011-08-31 11:07:00.000
p4717
ssVMLH083-POS1
p4718
(dp4719
Vtype
p4720
VWindows 7 Professional
p4721
sVinstallDate
p4722
V2011-08-31 11:07:00.000
p4723
ssVMLH888-KIOSK
p4724
(dp4725
Vtype
p4726
VWindows XP Professional
p4727
sVinstallDate
p4728
V2011-01-06 06:26:00.000
p4729
ssVABC077-W1
p4730
(dp4731
Vtype
p4732
VWindows 7 Professional
p4733
sVinstallDate
p4734
V2011-08-31 11:07:00.000
p4735
ssVMLH755-POS1
p4736
(dp4737
Vtype
p4738
VWindows XP Professional
p4739
sVinstallDate
p4740
V2008-07-22 07:51:00.000
p4741
ssVABC044-POS1
p4742
(dp4743
Vtype
p4744
VWindows 7 Professional
p4745
sVinstallDate
p4746
V2012-02-22 16:38:00.000
p4747
ssVMAM117-S
p4748
(dp4749
Vtype
p4750
VWindows 7 Professional
p4751
sVinstallDate
p4752
V2011-08-31 11:07:00.000
p4753
ssVTSQ002-S
p4754
(dp4755
Vtype
p4756
VWindows 7 Professional
p4757
sVinstallDate
p4758
V2011-08-31 11:07:00.000
p4759
ssVRPD080-POS1
p4760
(dp4761
Vtype
p4762
VWindows 7 Professional
p4763
sVinstallDate
p4764
V2011-08-31 11:07:00.000
p4765
ssVQUK076-POS1
p4766
(dp4767
Vtype
p4768
VWindows 7 Professional
p4769
sVinstallDate
p4770
V2015-02-02 16:25:00.000
p4771
ssVKIN309-POS1
p4772
(dp4773
Vtype
p4774
VWindows 7 Professional
p4775
sVinstallDate
p4776
V2011-08-31 11:07:00.000
p4777
ssVMLH025-POS1
p4778
(dp4779
Vtype
p4780
VWindows XP Professional
p4781
sVinstallDate
p4782
V2008-07-22 07:51:00.000
p4783
ssVMLH025-POS2
p4784
(dp4785
Vtype
p4786
VWindows XP Professional
p4787
sVinstallDate
p4788
V2008-07-22 07:51:00.000
p4789
ssVABC075-S
p4790
(dp4791
Vtype
p4792
VWindows 7 Professional
p4793
sVinstallDate
p4794
V2011-08-31 11:07:00.000
p4795
ssVABC014-POS1
p4796
(dp4797
Vtype
p4798
VWindows 7 Professional
p4799
sVinstallDate
p4800
V2011-08-31 11:07:00.000
p4801
ssVMAM060-POS1
p4802
(dp4803
Vtype
p4804
VWindows 7 Professional
p4805
sVinstallDate
p4806
V2011-08-31 11:07:00.000
p4807
ssVMLH110-POS3
p4808
(dp4809
Vtype
p4810
VWindows 7 Professional
p4811
sVinstallDate
p4812
V2011-08-31 11:07:00.000
p4813
ssVMLH008-POS1
p4814
(dp4815
Vtype
p4816
NsVinstallDate
p4817
NssVMLH008-POS2
p4818
(dp4819
Vtype
p4820
VWindows XP Professional
p4821
sVinstallDate
p4822
V2008-06-26 14:23:00.000
p4823
ssVMLH744-POS1
p4824
(dp4825
Vtype
p4826
VWindows 7 Professional
p4827
sVinstallDate
p4828
V2011-08-31 11:07:00.000
p4829
ssVMLH066-POS1
p4830
(dp4831
Vtype
p4832
VWindows XP Professional
p4833
sVinstallDate
p4834
V2008-06-26 14:23:00.000
p4835
ssVMLH701-POS2
p4836
(dp4837
Vtype
p4838
VWindows 7 Professional
p4839
sVinstallDate
p4840
V2011-08-31 11:07:00.000
p4841
ssVMLH701-POS1
p4842
(dp4843
Vtype
p4844
VWindows 7 Professional
p4845
sVinstallDate
p4846
V2011-08-31 11:07:00.000
p4847
ssVMLH066-POS2
p4848
(dp4849
Vtype
p4850
VWindows XP Professional
p4851
sVinstallDate
p4852
V2008-06-26 14:23:00.000
p4853
ssVIPK203-POS1
p4854
(dp4855
Vtype
p4856
VWindows 7 Professional
p4857
sVinstallDate
p4858
V2011-08-31 11:07:00.000
p4859
ssVMNH050-S
p4860
(dp4861
Vtype
p4862
VWindows XP Professional
p4863
sVinstallDate
p4864
V2008-06-26 14:23:00.000
p4865
ssVGMC028-POS1
p4866
(dp4867
Vtype
p4868
VWindows 7 Professional
p4869
sVinstallDate
p4870
V2011-08-31 11:07:00.000
p4871
ssVABC251-POS1
p4872
(dp4873
Vtype
p4874
VWindows 7 Professional
p4875
sVinstallDate
p4876
V2012-02-22 16:38:00.000
p4877
ssVTSQ095-POS1
p4878
(dp4879
Vtype
p4880
VWindows 7 Professional
p4881
sVinstallDate
p4882
V2011-08-31 11:07:00.000
p4883
ssVGMC001-S
p4884
(dp4885
Vtype
p4886
VWindows 7 Professional
p4887
sVinstallDate
p4888
V2011-08-31 11:07:00.000
p4889
ssVMLH087-POS1
p4890
(dp4891
Vtype
p4892
VWindows XP Professional
p4893
sVinstallDate
p4894
V2008-06-26 14:23:00.000
p4895
ssVMLH087-POS2
p4896
(dp4897
Vtype
p4898
VWindows XP Professional
p4899
sVinstallDate
p4900
V2008-06-26 14:23:00.000
p4901
ssVMLH074-POS1
p4902
(dp4903
Vtype
p4904
VWindows XP Professional
p4905
sVinstallDate
p4906
V2008-06-26 14:23:00.000
p4907
ssVQUK116-POS1
p4908
(dp4909
Vtype
p4910
VWindows 7 Professional
p4911
sVinstallDate
p4912
V2011-08-31 11:07:00.000
p4913
ssVABC016-POS1
p4914
(dp4915
Vtype
p4916
VWindows 7 Professional
p4917
sVinstallDate
p4918
V2011-08-31 11:07:00.000
p4919
ssVQUK727-POS1
p4920
(dp4921
Vtype
p4922
VWindows 7 Professional
p4923
sVinstallDate
p4924
V2012-02-22 16:38:00.000
p4925
ssVTSQ205-S
p4926
(dp4927
Vtype
p4928
VWindows XP Professional
p4929
sVinstallDate
p4930
V2008-06-26 14:23:00.000
p4931
ssVQUK732-POS1
p4932
(dp4933
Vtype
p4934
VWindows 7 Professional
p4935
sVinstallDate
p4936
V2012-02-22 16:38:00.000
p4937
ssVRPD070-POS1
p4938
(dp4939
Vtype
p4940
VWindows 7 Professional
p4941
sVinstallDate
p4942
V2011-08-31 11:07:00.000
p4943
ssVABC066-POS1
p4944
(dp4945
Vtype
p4946
VWindows 7 Professional
p4947
sVinstallDate
p4948
V2012-02-22 16:38:00.000
p4949
ssVABC048-S
p4950
(dp4951
Vtype
p4952
VWindows 7 Professional
p4953
sVinstallDate
p4954
V2011-08-31 11:07:00.000
p4955
ssVMLH116-POS1
p4956
(dp4957
Vtype
p4958
VWindows XP Professional
p4959
sVinstallDate
p4960
V2008-06-26 14:23:00.000
p4961
ssVMLH730-POS1
p4962
(dp4963
Vtype
p4964
VWindows 7 Professional
p4965
sVinstallDate
p4966
V2011-08-31 11:07:00.000
p4967
ssVMLH706-POS1
p4968
(dp4969
Vtype
p4970
VWindows 7 Professional
p4971
sVinstallDate
p4972
V2011-08-31 11:07:00.000
p4973
ssVQUK752-POS1
p4974
(dp4975
Vtype
p4976
VWindows 7 Professional
p4977
sVinstallDate
p4978
V2011-08-31 11:07:00.000
p4979
ssVMNH350-POS1
p4980
(dp4981
Vtype
p4982
VWindows 7 Professional
p4983
sVinstallDate
p4984
V2011-08-31 11:07:00.000
p4985
ssVGMC018-S
p4986
(dp4987
Vtype
p4988
VWindows 7 Professional
p4989
sVinstallDate
p4990
V2011-08-31 11:07:00.000
p4991
ssVABC078-S
p4992
(dp4993
Vtype
p4994
VWindows 7 Professional
p4995
sVinstallDate
p4996
V2011-08-31 11:07:00.000
p4997
ssVRDN021-POS1
p4998
(dp4999
Vtype
p5000
VWindows 7 Professional
p5001
sVinstallDate
p5002
V2014-02-18 09:11:00.000
p5003
ssVOPI003-POS1
p5004
(dp5005
Vtype
p5006
VWindows 7 Professional
p5007
sVinstallDate
p5008
V2011-08-31 11:07:00.000
p5009
ssVRDN021-POS2
p5010
(dp5011
Vtype
p5012
VWindows 7 Professional
p5013
sVinstallDate
p5014
V2011-08-31 11:07:00.000
p5015
ssVTSQ009-S
p5016
(dp5017
Vtype
p5018
VWindows 7 Professional
p5019
sVinstallDate
p5020
V2011-08-31 11:07:00.000
p5021
ssVMLH015-POS1
p5022
(dp5023
Vtype
p5024
VWindows 7 Professional
p5025
sVinstallDate
p5026
V2011-08-31 11:07:00.000
p5027
ssVMLH098-POS1
p5028
(dp5029
Vtype
p5030
VWindows XP Professional
p5031
sVinstallDate
p5032
V2008-06-26 14:23:00.000
p5033
ssVMLH051-POS1
p5034
(dp5035
Vtype
p5036
VWindows XP Professional
p5037
sVinstallDate
p5038
V2008-07-22 07:51:00.000
p5039
ssVSEL081-S
p5040
(dp5041
Vtype
p5042
VWindows XP Professional
p5043
sVinstallDate
p5044
V2008-06-26 14:23:00.000
p5045
ssVHIL175-S
p5046
(dp5047
Vtype
p5048
VWindows XP Professional
p5049
sVinstallDate
p5050
V2007-05-15 15:50:00.000
p5051
ssVMLH722-POS1
p5052
(dp5053
Vtype
p5054
VWindows 7 Professional
p5055
sVinstallDate
p5056
V2011-08-31 11:07:00.000
p5057
ssVMAM053-S
p5058
(dp5059
Vtype
p5060
VWindows 7 Professional
p5061
sVinstallDate
p5062
V2011-08-31 11:07:00.000
p5063
ssVMLH245-POS1
p5064
(dp5065
Vtype
p5066
VWindows XP Professional
p5067
sVinstallDate
p5068
V2008-06-26 14:23:00.000
p5069
ssVQUK301-POS1
p5070
(dp5071
Vtype
p5072
VWindows 7 Professional
p5073
sVinstallDate
p5074
V2015-02-02 16:25:00.000
p5075
ssVMAM074-POS1
p5076
(dp5077
Vtype
p5078
VWindows 7 Professional
p5079
sVinstallDate
p5080
V2011-08-31 11:07:00.000
p5081
ssVQUK360-POS1
p5082
(dp5083
Vtype
p5084
VWindows 7 Professional
p5085
sVinstallDate
p5086
V2011-08-31 11:07:00.000
p5087
ssVOPI034-POS1
p5088
(dp5089
Vtype
p5090
VWindows 7 Professional
p5091
sVinstallDate
p5092
V2011-08-31 11:07:00.000
p5093
ssVOPI034-POS2
p5094
(dp5095
Vtype
p5096
VWindows 7 Professional
p5097
sVinstallDate
p5098
NssVABC041-W1
p5099
(dp5100
Vtype
p5101
VWindows 7 Professional
p5102
sVinstallDate
p5103
V2011-08-31 11:07:00.000
p5104
ssVMLH705-POS1
p5105
(dp5106
Vtype
p5107
VWindows 7 Professional
p5108
sVinstallDate
p5109
V2011-08-31 11:07:00.000
p5110
ssVMLH093-POS1
p5111
(dp5112
Vtype
p5113
VWindows XP Professional
p5114
sVinstallDate
p5115
V2008-06-26 14:23:00.000
p5116
ssVQUK709-POS1
p5117
(dp5118
Vtype
p5119
VWindows 7 Professional
p5120
sVinstallDate
p5121
V2015-02-02 16:25:00.000
p5122
ssVMLH715-POS1
p5123
(dp5124
Vtype
p5125
VWindows 7 Professional
p5126
sVinstallDate
p5127
V2011-08-31 11:07:00.000
p5128
ssVOPI001-KIOSK
p5129
(dp5130
Vtype
p5131
NsVinstallDate
p5132
NssVABC001-POS1
p5133
(dp5134
Vtype
p5135
VWindows 7 Professional
p5136
sVinstallDate
p5137
V2011-08-31 11:07:00.000
p5138
ssVMLH738-POS1
p5139
(dp5140
Vtype
p5141
VWindows 7 Professional
p5142
sVinstallDate
p5143
V2011-08-31 11:07:00.000
p5144
ssVMNH065-POS1
p5145
(dp5146
Vtype
p5147
VWindows 7 Professional
p5148
sVinstallDate
p5149
V2011-08-31 11:07:00.000
p5150
ssVGMC031-S
p5151
(dp5152
Vtype
p5153
VWindows 7 Professional
p5154
sVinstallDate
p5155
V2011-08-31 11:07:00.000
p5156
ssVMLH707-POS1
p5157
(dp5158
Vtype
p5159
VWindows 7 Professional
p5160
sVinstallDate
p5161
V2011-08-31 11:07:00.000
p5162
ssVMLH756-POS1
p5163
(dp5164
Vtype
p5165
VWindows 7 Professional
p5166
sVinstallDate
p5167
V2011-08-31 11:07:00.000
p5168
ssVGOT139-S
p5169
(dp5170
Vtype
p5171
VWindows XP Professional
p5172
sVinstallDate
p5173
V2008-06-26 14:23:00.000
p5174
ssVMLH751-POS2
p5175
(dp5176
Vtype
p5177
VWindows 7 Professional
p5178
sVinstallDate
p5179
V2011-08-31 11:07:00.000
p5180
ssVMLH751-POS3
p5181
(dp5182
Vtype
p5183
VWindows 7 Professional
p5184
sVinstallDate
p5185
V2011-08-31 11:07:00.000
p5186
ssVMLH751-POS1
p5187
(dp5188
Vtype
p5189
VWindows 7 Professional
p5190
sVinstallDate
p5191
V2011-08-31 11:07:00.000
p5192
ssVINT029-S
p5193
(dp5194
Vtype
p5195
NsVinstallDate
p5196
NssVMLH769-POS2
p5197
(dp5198
Vtype
p5199
VWindows 7 Professional
p5200
sVinstallDate
p5201
V2011-08-31 11:07:00.000
p5202
ssVMPI002-S
p5203
(dp5204
Vtype
p5205
VWindows XP Professional
p5206
sVinstallDate
p5207
V2008-06-26 14:23:00.000
p5208
ssVMLH014-POS1
p5209
(dp5210
Vtype
p5211
VWindows 7 Professional
p5212
sVinstallDate
p5213
V2012-02-22 16:38:00.000
p5214
ssVKIN545-POS1
p5215
(dp5216
Vtype
p5217
VWindows 7 Professional
p5218
sVinstallDate
p5219
V2010-12-01 15:12:00.000
p5220
ssVKIN062-POS2
p5221
(dp5222
Vtype
p5223
VWindows 7 Professional
p5224
sVinstallDate
p5225
V2011-08-31 11:07:00.000
p5226
ssVMLH010-POS1
p5227
(dp5228
Vtype
p5229
VWindows XP Professional
p5230
sVinstallDate
p5231
V2008-07-22 07:51:00.000
p5232
ssVMLH010-POS2
p5233
(dp5234
Vtype
p5235
VWindows XP Professional
p5236
sVinstallDate
p5237
V2008-07-22 07:51:00.000
p5238
ssVKIN062-POS1
p5239
(dp5240
Vtype
p5241
VWindows 7 Professional
p5242
sVinstallDate
p5243
V2011-08-31 11:07:00.000
p5244
ss.