(dp0
VOPI040-POS2
p1
(dp2
Vtype
p3
VWindows 7 Professional
p4
sVinstallDate
p5
V2012-02-22 16:38:00.000
p6
ssVGMC088-POS1
p7
(dp8
Vtype
p9
VWindows 7 Professional
p10
sVinstallDate
p11
V2011-08-31 11:07:00.000
p12
ssVMLH717-POS1
p13
(dp14
Vtype
p15
VWindows 7 Professional
p16
sVinstallDate
p17
V2011-08-31 11:07:00.000
p18
ssVABC233-POS1
p19
(dp20
Vtype
p21
VWindows 7 Professional
p22
sVinstallDate
p23
V2014-02-18 09:11:00.000
p24
ssVMLH100-POS1
p25
(dp26
Vtype
p27
VWindows XP Professional
p28
sVinstallDate
p29
V2008-06-26 14:23:00.000
p30
ssVGLE081-POS1
p31
(dp32
Vtype
p33
VWindows 7 Professional
p34
sVinstallDate
p35
V2011-08-31 11:07:00.000
p36
ssVGMC025-POS1
p37
(dp38
Vtype
p39
VWindows 7 Professional
p40
sVinstallDate
p41
V2011-08-31 11:07:00.000
p42
ssVTIS010-POS1
p43
(dp44
Vtype
p45
VWindows 7 Professional
p46
sVinstallDate
p47
V2011-08-31 11:07:00.000
p48
ssVINT009-POS2
p49
(dp50
Vtype
p51
VWindows 7 Professional
p52
sVinstallDate
p53
V2012-02-22 16:38:00.000
p54
ssVQUK015-POS1
p55
(dp56
Vtype
p57
VWindows 7 Professional
p58
sVinstallDate
p59
V2011-08-31 11:07:00.000
p60
ssVABC022-POS1
p61
(dp62
Vtype
p63
VWindows 7 Professional
p64
sVinstallDate
p65
V2011-08-31 11:07:00.000
p66
ssVQUK801-POS1
p67
(dp68
Vtype
p69
VWindows 7 Professional
p70
sVinstallDate
p71
V2011-08-31 11:07:00.000
p72
ssVINT046-POS1
p73
(dp74
Vtype
p75
VWindows 7 Professional
p76
sVinstallDate
p77
V2014-02-18 09:11:00.000
p78
ssVQUK024-POS1
p79
(dp80
Vtype
p81
VWindows 7 Professional
p82
sVinstallDate
p83
V2011-08-31 11:07:00.000
p84
ssVPAI002-S
p85
(dp86
Vtype
p87
VWindows XP Professional
p88
sVinstallDate
p89
V2008-06-26 14:23:00.000
p90
ssVMNH110-POS1
p91
(dp92
Vtype
p93
VWindows 7 Professional
p94
sVinstallDate
p95
V2011-08-31 11:07:00.000
p96
ssVGMC029-POS1
p97
(dp98
Vtype
p99
VWindows 7 Professional
p100
sVinstallDate
p101
V2011-08-31 11:07:00.000
p102
ssVABC019-POS1
p103
(dp104
Vtype
p105
VWindows 7 Professional
p106
sVinstallDate
p107
V2011-08-31 11:07:00.000
p108
ssVABC094-POS1
p109
(dp110
Vtype
p111
VWindows 7 Professional
p112
sVinstallDate
p113
NssVGMC066-S
p114
(dp115
Vtype
p116
VWindows XP Professional
p117
sVinstallDate
p118
V2007-05-15 15:50:00.000
p119
ssVTSQ200-S
p120
(dp121
Vtype
p122
VWindows 7 Professional
p123
sVinstallDate
p124
V2011-08-31 11:07:00.000
p125
ssVABC076-S
p126
(dp127
Vtype
p128
VWindows 7 Professional
p129
sVinstallDate
p130
V2011-08-31 11:07:00.000
p131
ssVPAI001-S
p132
(dp133
Vtype
p134
VWindows XP Professional
p135
sVinstallDate
p136
V2008-06-26 14:23:00.000
p137
ssVBNV011-S
p138
(dp139
Vtype
p140
VWindows XP Professional
p141
sVinstallDate
p142
V2007-05-15 15:50:00.000
p143
ssVMNH056-POS1
p144
(dp145
Vtype
p146
VWindows 7 Professional
p147
sVinstallDate
p148
V2011-08-31 11:07:00.000
p149
ssVMLH103-POS1
p150
(dp151
Vtype
p152
VWindows XP Professional
p153
sVinstallDate
p154
V2008-06-26 14:23:00.000
p155
ssVMAM031-S
p156
(dp157
Vtype
p158
VWindows XP Professional
p159
sVinstallDate
p160
V2007-05-15 15:50:00.000
p161
ssVMAM075-POS1
p162
(dp163
Vtype
p164
VWindows 7 Professional
p165
sVinstallDate
p166
V2011-08-31 11:07:00.000
p167
ssV_JunoPC
p168
(dp169
Vtype
p170
VWindows 7 Professional
p171
sVinstallDate
p172
V2015-05-22 17:23:00.000
p173
ssVGMC081-POS1
p174
(dp175
Vtype
p176
VWindows 7 Professional
p177
sVinstallDate
p178
V2011-08-31 11:07:00.000
p179
ssVMLH096-POS2
p180
(dp181
Vtype
p182
VWindows 7 Professional
p183
sVinstallDate
p184
V2011-08-31 11:07:00.000
p185
ssVMLH096-POS1
p186
(dp187
Vtype
p188
VWindows 7 Professional
p189
sVinstallDate
p190
V2011-08-31 11:07:00.000
p191
ssVKIN024-POS1
p192
(dp193
Vtype
p194
VWindows 7 Professional
p195
sVinstallDate
p196
V2011-08-31 11:07:00.000
p197
ssVABC005-POS1
p198
(dp199
Vtype
p200
VWindows 7 Professional
p201
sVinstallDate
p202
V2011-08-31 11:07:00.000
p203
ssVMLH732-POS1
p204
(dp205
Vtype
p206
VWindows XP Professional
p207
sVinstallDate
p208
V2008-06-26 14:23:00.000
p209
ssVMLH170-POS1
p210
(dp211
Vtype
p212
VWindows 7 Professional
p213
sVinstallDate
p214
V2011-08-31 11:07:00.000
p215
ssVINT650-S
p216
(dp217
Vtype
p218
VWindows XP Professional
p219
sVinstallDate
p220
V2008-06-26 14:23:00.000
p221
ssVGMC059-S
p222
(dp223
Vtype
p224
VWindows 7 Professional
p225
sVinstallDate
p226
V2011-08-31 11:07:00.000
p227
ssVIPK004-POS1
p228
(dp229
Vtype
p230
NsVinstallDate
p231
NssVMLH743-POS1
p232
(dp233
Vtype
p234
VWindows XP Professional
p235
sVinstallDate
p236
V2008-06-26 14:23:00.000
p237
ssVQUK184-POS1
p238
(dp239
Vtype
p240
VWindows 7 Professional
p241
sVinstallDate
p242
V2011-08-31 11:07:00.000
p243
ssVMLH065-POS1
p244
(dp245
Vtype
p246
VWindows XP Professional
p247
sVinstallDate
p248
V2008-06-26 14:23:00.000
p249
ssVMNH026-POS1
p250
(dp251
Vtype
p252
VWindows 7 Professional
p253
sVinstallDate
p254
V2011-08-31 11:07:00.000
p255
ssVCCA009-S
p256
(dp257
Vtype
p258
NsVinstallDate
p259
NssVMLH734-POS1
p260
(dp261
Vtype
p262
VWindows 7 Professional
p263
sVinstallDate
p264
V2011-08-31 11:07:00.000
p265
ssVABC-Office
p266
(dp267
Vtype
p268
VWindows 7 Professional
p269
sVinstallDate
p270
V2014-02-18 09:11:00.000
p271
ssVQUK100-POS2
p272
(dp273
Vtype
p274
VWindows 7 Professional
p275
sVinstallDate
p276
V2014-02-18 09:11:00.000
p277
ssVQUK100-POS1
p278
(dp279
Vtype
p280
VWindows 7 Professional
p281
sVinstallDate
p282
V2011-08-31 11:07:00.000
p283
ssVRDN055-S
p284
(dp285
Vtype
p286
VWindows 7 Professional
p287
sVinstallDate
p288
V2011-08-31 11:07:00.000
p289
ssVABC011-POS1
p290
(dp291
Vtype
p292
VWindows 7 Professional
p293
sVinstallDate
p294
V2011-08-31 11:07:00.000
p295
ssVABC257-POS1
p296
(dp297
Vtype
p298
VWindows 7 Professional
p299
sVinstallDate
p300
V2012-02-22 16:38:00.000
p301
ssVABC225-POS1
p302
(dp303
Vtype
p304
VWindows 7 Professional
p305
sVinstallDate
p306
V2014-02-18 09:11:00.000
p307
ssV_MichaelPC
p308
(dp309
Vtype
p310
VWindows 7 Professional x64 Edition
p311
sVinstallDate
p312
V2015-05-29 22:52:00.000
p313
ssVQUK058-POS1
p314
(dp315
Vtype
p316
VWindows 7 Professional
p317
sVinstallDate
p318
V2011-08-31 11:07:00.000
p319
ssV_MPK005-Test
p320
(dp321
Vtype
p322
VWindows 7 Professional
p323
sVinstallDate
p324
V2011-08-31 11:07:00.000
p325
ssVINT087-POS1
p326
(dp327
Vtype
p328
VWindows 7 Professional
p329
sVinstallDate
p330
V2012-02-22 16:38:00.000
p331
ssVABC248-POS2
p332
(dp333
Vtype
p334
VWindows 7 Professional
p335
sVinstallDate
p336
V2012-02-22 16:38:00.000
p337
ssVABC248-POS1
p338
(dp339
Vtype
p340
VWindows 7 Professional
p341
sVinstallDate
p342
V2012-02-22 16:38:00.000
p343
ssVRPD102-S
p344
(dp345
Vtype
p346
VWindows 7 Professional
p347
sVinstallDate
p348
V2011-08-31 11:07:00.000
p349
ssVMLH350-POS1
p350
(dp351
Vtype
p352
VWindows XP Professional
p353
sVinstallDate
p354
V2008-07-22 07:51:00.000
p355
ssVMLH350-POS2
p356
(dp357
Vtype
p358
VWindows XP Professional
p359
sVinstallDate
p360
V2008-07-22 07:51:00.000
p361
ssVMLH070-POS2
p362
(dp363
Vtype
p364
VWindows XP Professional
p365
sVinstallDate
p366
V2008-07-22 07:51:00.000
p367
ssVMLH797-POS1
p368
(dp369
Vtype
p370
VWindows XP Professional
p371
sVinstallDate
p372
V2008-07-22 07:51:00.000
p373
ssVMLH370-POS1
p374
(dp375
Vtype
p376
VWindows XP Professional
p377
sVinstallDate
p378
V2008-07-22 07:51:00.000
p379
ssVMLH070-POS1
p380
(dp381
Vtype
p382
VWindows XP Professional
p383
sVinstallDate
p384
V2008-07-22 07:51:00.000
p385
ssVRPD030-POS1
p386
(dp387
Vtype
p388
VWindows 7 Professional
p389
sVinstallDate
p390
V2011-08-31 11:07:00.000
p391
ssVRPD030-POS2
p392
(dp393
Vtype
p394
VWindows 7 Professional
p395
sVinstallDate
p396
V2011-08-31 11:07:00.000
p397
ssVMLH220-POS1
p398
(dp399
Vtype
p400
VWindows 7 Professional
p401
sVinstallDate
p402
V2011-08-31 11:07:00.000
p403
ssVMLH728-POS1
p404
(dp405
Vtype
p406
VWindows 7 Professional
p407
sVinstallDate
p408
V2011-08-31 11:07:00.000
p409
ssVMLH742-POS1
p410
(dp411
Vtype
p412
VWindows 7 Professional
p413
sVinstallDate
p414
V2011-08-31 11:07:00.000
p415
ssVABC053-S
p416
(dp417
Vtype
p418
VWindows 7 Professional
p419
sVinstallDate
p420
V2011-08-31 11:07:00.000
p421
ssVGLE003-POS1
p422
(dp423
Vtype
p424
VWindows 7 Professional
p425
sVinstallDate
p426
V2012-02-22 16:38:00.000
p427
ssVABC028-S
p428
(dp429
Vtype
p430
VWindows 7 Professional
p431
sVinstallDate
p432
V2011-08-31 11:07:00.000
p433
ssVTSQ202-POS1
p434
(dp435
Vtype
p436
VWindows 7 Professional
p437
sVinstallDate
p438
V2011-08-31 11:07:00.000
p439
ssVCCA008-S
p440
(dp441
Vtype
p442
NsVinstallDate
p443
NssVABC097-S
p444
(dp445
Vtype
p446
VWindows 7 Professional
p447
sVinstallDate
p448
V2011-08-31 11:07:00.000
p449
ssVMLH106-POS1
p450
(dp451
Vtype
p452
VWindows XP Professional
p453
sVinstallDate
p454
V2008-06-26 14:23:00.000
p455
ssVABC095-POS1
p456
(dp457
Vtype
p458
VWindows 7 Professional
p459
sVinstallDate
p460
V2014-02-18 09:11:00.000
p461
ssVSEL036-POS1
p462
(dp463
Vtype
p464
NsVinstallDate
p465
NssVKIN070-POS1
p466
(dp467
Vtype
p468
VWindows 7 Professional
p469
sVinstallDate
p470
V2011-08-31 11:07:00.000
p471
ssVSYL001-S
p472
(dp473
Vtype
p474
VWindows 7 Professional
p475
sVinstallDate
p476
V2011-08-31 11:07:00.000
p477
ssVQUK720-POS1
p478
(dp479
Vtype
p480
VWindows 7 Professional
p481
sVinstallDate
p482
V2012-02-22 16:38:00.000
p483
ssVQUK017-POS1
p484
(dp485
Vtype
p486
VWindows 7 Professional
p487
sVinstallDate
p488
V2011-08-31 11:07:00.000
p489
ssVMNH030-S
p490
(dp491
Vtype
p492
VWindows XP Professional
p493
sVinstallDate
p494
V2008-06-26 14:23:00.000
p495
ssVGLE102-POS1
p496
(dp497
Vtype
p498
VWindows 7 Professional
p499
sVinstallDate
p500
V2011-08-31 11:07:00.000
p501
ssVABC154-POS1
p502
(dp503
Vtype
p504
VWindows 7 Professional
p505
sVinstallDate
p506
V2012-02-22 16:38:00.000
p507
ssVPRK043-S
p508
(dp509
Vtype
p510
VWindows 7 Professional
p511
sVinstallDate
p512
V2011-08-31 11:07:00.000
p513
ssVQUK090-POS1
p514
(dp515
Vtype
p516
VWindows 7 Professional
p517
sVinstallDate
p518
V2011-08-31 11:07:00.000
p519
ssVRDN071-S
p520
(dp521
Vtype
p522
VWindows 7 Professional
p523
sVinstallDate
p524
V2011-08-31 11:07:00.000
p525
ssVQUK587-POS1
p526
(dp527
Vtype
p528
VWindows 7 Professional
p529
sVinstallDate
p530
V2011-08-31 11:07:00.000
p531
ssVABC058-S
p532
(dp533
Vtype
p534
VWindows 7 Professional
p535
sVinstallDate
p536
V2011-08-31 11:07:00.000
p537
ssVMLH763-POS1
p538
(dp539
Vtype
p540
VWindows XP Professional
p541
sVinstallDate
p542
V2008-06-26 14:23:00.000
p543
ssVOPI503-POS1
p544
(dp545
Vtype
p546
VWindows 7 Professional
p547
sVinstallDate
p548
V2011-08-31 11:07:00.000
p549
ssVMLH741-POS1
p550
(dp551
Vtype
p552
VWindows 7 Professional
p553
sVinstallDate
p554
V2011-08-31 11:07:00.000
p555
ssVABC067-S
p556
(dp557
Vtype
p558
VWindows 7 Professional
p559
sVinstallDate
p560
V2011-08-31 11:07:00.000
p561
ssVABC019-S
p562
(dp563
Vtype
p564
VWindows 7 Professional
p565
sVinstallDate
p566
V2011-08-31 11:07:00.000
p567
ssV_MPK064-POS1
p568
(dp569
Vtype
p570
VWindows 7 Professional
p571
sVinstallDate
p572
V2014-02-18 09:11:00.000
p573
ssVGLE046-POS1
p574
(dp575
Vtype
p576
VWindows 7 Professional
p577
sVinstallDate
p578
V2011-08-31 11:07:00.000
p579
ssVMLH911-POS1
p580
(dp581
Vtype
p582
VWindows 7 Professional
p583
sVinstallDate
p584
V2011-08-31 11:07:00.000
p585
ssVMLH746-POS1
p586
(dp587
Vtype
p588
VWindows XP Professional
p589
sVinstallDate
p590
V2008-06-26 14:23:00.000
p591
ssVMLH750-POS1
p592
(dp593
Vtype
p594
VWindows XP Professional
p595
sVinstallDate
p596
V2008-07-22 07:51:00.000
p597
ssVMLH112-POS1
p598
(dp599
Vtype
p600
VWindows XP Professional
p601
sVinstallDate
p602
V2008-06-26 14:23:00.000
p603
ssVMLH256-POS1
p604
(dp605
Vtype
p606
VWindows 7 Professional
p607
sVinstallDate
p608
V2011-08-31 11:07:00.000
p609
ssVCPS029-S
p610
(dp611
Vtype
p612
VWindows 7 Professional
p613
sVinstallDate
p614
V2011-08-31 11:07:00.000
p615
ssVABC240-S
p616
(dp617
Vtype
p618
VWindows 7 Professional
p619
sVinstallDate
p620
V2014-02-18 09:11:00.000
p621
ssVABC049-S
p622
(dp623
Vtype
p624
VWindows 7 Professional
p625
sVinstallDate
p626
V2011-08-31 11:07:00.000
p627
ssVCPS026-S
p628
(dp629
Vtype
p630
VWindows 7 Professional
p631
sVinstallDate
p632
V2011-08-31 11:07:00.000
p633
ssVABC007-POS1
p634
(dp635
Vtype
p636
VWindows 7 Professional
p637
sVinstallDate
p638
V2011-08-31 11:07:00.000
p639
ssVTIS016-POS1
p640
(dp641
Vtype
p642
NsVinstallDate
p643
NssVOPI084-POS1
p644
(dp645
Vtype
p646
VWindows 7 Professional
p647
sVinstallDate
p648
V2012-02-22 16:38:00.000
p649
ssVMLH880-POS1
p650
(dp651
Vtype
p652
VWindows XP Professional
p653
sVinstallDate
p654
V2008-07-22 07:51:00.000
p655
ssVMLH110-POS2
p656
(dp657
Vtype
p658
VWindows 7 Professional
p659
sVinstallDate
p660
V2011-08-31 11:07:00.000
p661
ssVMLH110-POS1
p662
(dp663
Vtype
p664
VWindows 7 Professional
p665
sVinstallDate
p666
V2011-08-31 11:07:00.000
p667
ssVMLH610-POS1
p668
(dp669
Vtype
p670
VWindows 7 Professional
p671
sVinstallDate
p672
V2011-08-31 11:07:00.000
p673
ssVSEL185-S
p674
(dp675
Vtype
p676
VWindows XP Professional
p677
sVinstallDate
p678
V2008-06-26 14:23:00.000
p679
ssVMTP057-POS1
p680
(dp681
Vtype
p682
VWindows 7 Professional
p683
sVinstallDate
p684
V2011-08-31 11:07:00.000
p685
ssVTSQ100-S
p686
(dp687
Vtype
p688
VWindows 7 Professional
p689
sVinstallDate
p690
V2011-08-31 11:07:00.000
p691
ssVMLH761-POS1
p692
(dp693
Vtype
p694
VWindows 7 Professional
p695
sVinstallDate
p696
V2012-02-22 16:38:00.000
p697
ssVMLH752-POS2
p698
(dp699
Vtype
p700
VWindows XP Professional
p701
sVinstallDate
p702
V2008-07-22 07:51:00.000
p703
ssVMLH752-POS1
p704
(dp705
Vtype
p706
VWindows XP Professional
p707
sVinstallDate
p708
V2008-07-22 07:51:00.000
p709
ssVMLH048-POS2
p710
(dp711
Vtype
p712
VWindows 7 Professional
p713
sVinstallDate
p714
V2011-08-31 11:07:00.000
p715
ssVMLH107-POS2
p716
(dp717
Vtype
p718
VWindows 7 Professional
p719
sVinstallDate
p720
V2011-08-31 11:07:00.000
p721
ssVABC034-S
p722
(dp723
Vtype
p724
VWindows 7 Professional
p725
sVinstallDate
p726
V2011-08-31 11:07:00.000
p727
ssVSEL047-S
p728
(dp729
Vtype
p730
VWindows XP Professional
p731
sVinstallDate
p732
V2008-06-26 14:23:00.000
p733
ssVGMC077-POS1
p734
(dp735
Vtype
p736
VWindows 7 Professional
p737
sVinstallDate
p738
V2011-08-31 11:07:00.000
p739
ssVSEL180-S
p740
(dp741
Vtype
p742
NsVinstallDate
p743
NssVMLH900-POS2
p744
(dp745
Vtype
p746
VWindows XP Professional
p747
sVinstallDate
p748
V2008-07-22 07:51:00.000
p749
ssVMLH766-POS1
p750
(dp751
Vtype
p752
VWindows XP Professional
p753
sVinstallDate
p754
V2008-06-26 14:23:00.000
p755
ssVMLH900-POS1
p756
(dp757
Vtype
p758
VWindows XP Professional
p759
sVinstallDate
p760
V2008-07-22 07:51:00.000
p761
ssVABC093-S
p762
(dp763
Vtype
p764
VWindows 7 Professional
p765
sVinstallDate
p766
V2011-08-31 11:07:00.000
p767
ssVBNV010-S
p768
(dp769
Vtype
p770
VWindows XP Professional
p771
sVinstallDate
p772
V2007-02-14 14:44:00.000
p773
ssVQUK706-POS1
p774
(dp775
Vtype
p776
VWindows 7 Professional
p777
sVinstallDate
p778
V2011-08-31 11:07:00.000
p779
ssVSBU001-POS1
p780
(dp781
Vtype
p782
VWindows XP Professional
p783
sVinstallDate
p784
V2008-07-22 07:51:00.000
p785
ssVRPD480-POS2
p786
(dp787
Vtype
p788
VWindows 7 Professional
p789
sVinstallDate
p790
V2011-08-31 11:07:00.000
p791
ssVRPD480-POS1
p792
(dp793
Vtype
p794
VWindows 7 Professional
p795
sVinstallDate
p796
V2011-08-31 11:07:00.000
p797
ssVMLH727-POS1
p798
(dp799
Vtype
p800
VWindows 7 Professional
p801
sVinstallDate
p802
V2011-08-31 11:07:00.000
p803
ssVMNH073-POS1
p804
(dp805
Vtype
p806
VWindows 7 Professional
p807
sVinstallDate
p808
V2015-02-02 16:25:00.000
p809
ssVMLH119-POS1
p810
(dp811
Vtype
p812
VWindows 7 Professional
p813
sVinstallDate
p814
V2010-12-01 15:12:00.000
p815
ssVQUK065-POS1
p816
(dp817
Vtype
p818
VWindows 7 Professional
p819
sVinstallDate
p820
V2011-08-31 11:07:00.000
p821
ssVMLH240-POS1
p822
(dp823
Vtype
p824
VWindows 7 Professional
p825
sVinstallDate
p826
V2011-08-31 11:07:00.000
p827
ssVMLH089-POS1
p828
(dp829
Vtype
p830
VWindows 7 Professional
p831
sVinstallDate
p832
V2011-08-31 11:07:00.000
p833
ssVKIN004-POS1
p834
(dp835
Vtype
p836
VWindows 7 Professional
p837
sVinstallDate
p838
V2011-08-31 11:07:00.000
p839
ssVRDN002-POS2
p840
(dp841
Vtype
p842
VWindows 7 Professional
p843
sVinstallDate
p844
V2011-08-31 11:07:00.000
p845
ssVGMC040-POS1
p846
(dp847
Vtype
p848
VWindows 7 Professional
p849
sVinstallDate
p850
V2011-08-31 11:07:00.000
p851
ssVPRK100-S
p852
(dp853
Vtype
p854
VWindows 7 Professional
p855
sVinstallDate
p856
V2011-08-31 11:07:00.000
p857
ssVRDN002-POS1
p858
(dp859
Vtype
p860
VWindows 7 Professional
p861
sVinstallDate
p862
V2011-08-31 11:07:00.000
p863
ssVABC030-S
p864
(dp865
Vtype
p866
VWindows 7 Professional
p867
sVinstallDate
p868
V2011-08-31 11:07:00.000
p869
ssVTIS009-KIOSK
p870
(dp871
Vtype
p872
NsVinstallDate
p873
NssVRPD089-POS1
p874
(dp875
Vtype
p876
VWindows 7 Professional
p877
sVinstallDate
p878
V2011-08-31 11:07:00.000
p879
ssVKIN005-POS1
p880
(dp881
Vtype
p882
VWindows 7 Professional
p883
sVinstallDate
p884
V2011-08-31 11:07:00.000
p885
ssVMLH102-POS1
p886
(dp887
Vtype
p888
VWindows XP Professional
p889
sVinstallDate
p890
V2008-06-26 14:23:00.000
p891
ssVMLH102-POS2
p892
(dp893
Vtype
p894
VWindows XP Professional
p895
sVinstallDate
p896
V2008-06-26 14:23:00.000
p897
ssVMNH320-POS1
p898
(dp899
Vtype
p900
VWindows 7 Professional
p901
sVinstallDate
p902
V2011-08-31 11:07:00.000
p903
ssV_MarcoPC
p904
(dp905
Vtype
p906
VWindows 7 Professional x64 Edition
p907
sVinstallDate
p908
V2015-04-07 13:44:00.000
p909
ssVABC249-POS1
p910
(dp911
Vtype
p912
VWindows 7 Professional
p913
sVinstallDate
p914
V2012-02-22 16:38:00.000
p915
ssVABC079-S
p916
(dp917
Vtype
p918
VWindows 7 Professional
p919
sVinstallDate
p920
V2011-08-31 11:07:00.000
p921
ssVQUK020-POS1
p922
(dp923
Vtype
p924
VWindows 7 Professional
p925
sVinstallDate
p926
V2011-08-31 11:07:00.000
p927
ssVRPD045-S
p928
(dp929
Vtype
p930
VWindows 7 Professional
p931
sVinstallDate
p932
V2011-08-31 11:07:00.000
p933
ssVGMC082-POS1
p934
(dp935
Vtype
p936
VWindows 7 Professional
p937
sVinstallDate
p938
V2011-08-31 11:07:00.000
p939
ssVSPN179-S
p940
(dp941
Vtype
p942
VWindows XP Professional
p943
sVinstallDate
p944
V2008-06-26 14:23:00.000
p945
ssVMLH050-POS1
p946
(dp947
Vtype
p948
VWindows 7 Professional
p949
sVinstallDate
p950
V2011-08-31 11:07:00.000
p951
ssVCPS002-S
p952
(dp953
Vtype
p954
VWindows 7 Professional
p955
sVinstallDate
p956
V2011-08-31 11:07:00.000
p957
ssVQUK707-POS1
p958
(dp959
Vtype
p960
VWindows 7 Professional
p961
sVinstallDate
p962
V2011-08-31 11:07:00.000
p963
ssVQUK034-POS2
p964
(dp965
Vtype
p966
VWindows 7 Professional
p967
sVinstallDate
p968
V2014-02-18 09:11:00.000
p969
ssVTIS009-POS2
p970
(dp971
Vtype
p972
VWindows 7 Professional
p973
sVinstallDate
p974
V2011-08-31 11:07:00.000
p975
ssVTIS009-POS1
p976
(dp977
Vtype
p978
VWindows 7 Professional
p979
sVinstallDate
p980
V2011-08-31 11:07:00.000
p981
ssVMLH047-POS1
p982
(dp983
Vtype
p984
VWindows XP Professional
p985
sVinstallDate
p986
V2008-07-22 07:51:00.000
p987
ssVMAM081-S
p988
(dp989
Vtype
p990
VWindows XP Professional
p991
sVinstallDate
p992
V2007-05-15 15:50:00.000
p993
ssVRDN001-POS2
p994
(dp995
Vtype
p996
VWindows 7 Professional
p997
sVinstallDate
p998
V2011-08-31 11:07:00.000
p999
ssVRDN001-POS1
p1000
(dp1001
Vtype
p1002
VWindows 7 Professional
p1003
sVinstallDate
p1004
V2011-08-31 11:07:00.000
p1005
ssVMNH060-S
p1006
(dp1007
Vtype
p1008
VWindows 7 Professional
p1009
sVinstallDate
p1010
V2011-08-31 11:07:00.000
p1011
ssVMLH047-POS2
p1012
(dp1013
Vtype
p1014
VWindows XP Professional
p1015
sVinstallDate
p1016
V2008-07-22 07:51:00.000
p1017
ssVMLH757-POS1
p1018
(dp1019
Vtype
p1020
VWindows 7 Professional
p1021
sVinstallDate
p1022
V2011-08-31 11:07:00.000
p1023
ssVMLH058-POS2
p1024
(dp1025
Vtype
p1026
VWindows XP Professional
p1027
sVinstallDate
p1028
V2008-07-22 07:51:00.000
p1029
ssVGMC048-POS2
p1030
(dp1031
Vtype
p1032
VWindows 7 Professional
p1033
sVinstallDate
p1034
V2011-08-31 11:07:00.000
p1035
ssVSPN162-S
p1036
(dp1037
Vtype
p1038
VWindows XP Professional
p1039
sVinstallDate
p1040
V2007-05-15 15:50:00.000
p1041
ssVQUK097-POS1
p1042
(dp1043
Vtype
p1044
VWindows 7 Professional
p1045
sVinstallDate
p1046
V2011-08-31 11:07:00.000
p1047
ssVWOC001-POS1
p1048
(dp1049
Vtype
p1050
VWindows 7 Professional
p1051
sVinstallDate
p1052
V2012-02-22 16:38:00.000
p1053
ssVQUK728-POS1
p1054
(dp1055
Vtype
p1056
VWindows 7 Professional
p1057
sVinstallDate
p1058
V2012-02-22 16:38:00.000
p1059
ssVQUK034-POS1
p1060
(dp1061
Vtype
p1062
VWindows 7 Professional
p1063
sVinstallDate
p1064
V2011-08-31 11:07:00.000
p1065
ssVABC051-S
p1066
(dp1067
Vtype
p1068
VWindows 7 Professional
p1069
sVinstallDate
p1070
V2011-08-31 11:07:00.000
p1071
ssVMLH739-POS1
p1072
(dp1073
Vtype
p1074
VWindows 7 Professional
p1075
sVinstallDate
p1076
V2011-08-31 11:07:00.000
p1077
ssVQUK019-POS1
p1078
(dp1079
Vtype
p1080
VWindows 7 Professional
p1081
sVinstallDate
p1082
V2011-08-31 11:07:00.000
p1083
ssVQUK300-POS1
p1084
(dp1085
Vtype
p1086
VWindows 7 Professional
p1087
sVinstallDate
p1088
V2015-02-02 16:25:00.000
p1089
ssVRPD033-POS1
p1090
(dp1091
Vtype
p1092
VWindows 7 Professional
p1093
sVinstallDate
p1094
V2011-08-31 11:07:00.000
p1095
ssVMNH003-S
p1096
(dp1097
Vtype
p1098
VWindows XP Professional
p1099
sVinstallDate
p1100
V2007-09-14 11:49:00.000
p1101
ssVEXC002-POS1
p1102
(dp1103
Vtype
p1104
VWindows 7 Professional
p1105
sVinstallDate
p1106
V2011-08-31 11:07:00.000
p1107
ssVQUK702-POS1
p1108
(dp1109
Vtype
p1110
VWindows 7 Professional
p1111
sVinstallDate
p1112
V2011-08-31 11:07:00.000
p1113
ssV_PlusPC-Test
p1114
(dp1115
Vtype
p1116
VWindows 7 Professional
p1117
sVinstallDate
p1118
V2011-08-31 11:07:00.000
p1119
ssVMLH330-POS2
p1120
(dp1121
Vtype
p1122
VWindows XP Professional
p1123
sVinstallDate
p1124
V2008-06-26 14:23:00.000
p1125
ssVMLH330-POS1
p1126
(dp1127
Vtype
p1128
VWindows XP Professional
p1129
sVinstallDate
p1130
V2008-06-26 14:23:00.000
p1131
ssVINT175-POS1
p1132
(dp1133
Vtype
p1134
VWindows 7 Professional
p1135
sVinstallDate
p1136
V2012-02-22 16:38:00.000
p1137
ssVMLH702-POS2
p1138
(dp1139
Vtype
p1140
VWindows XP Professional
p1141
sVinstallDate
p1142
V2008-07-22 07:51:00.000
p1143
ssVMLH702-POS1
p1144
(dp1145
Vtype
p1146
VWindows XP Professional
p1147
sVinstallDate
p1148
V2008-07-22 07:51:00.000
p1149
ssVINT210-POS1
p1150
(dp1151
Vtype
p1152
VWindows 7 Professional
p1153
sVinstallDate
p1154
V2012-02-22 16:38:00.000
p1155
ssVPVP003-POS1
p1156
(dp1157
Vtype
p1158
VWindows 7 Professional
p1159
sVinstallDate
p1160
V2012-02-22 16:38:00.000
p1161
ssVMLH754-POS1
p1162
(dp1163
Vtype
p1164
VWindows XP Professional
p1165
sVinstallDate
p1166
V2008-06-26 14:23:00.000
p1167
ssVKIN011-POS1
p1168
(dp1169
Vtype
p1170
VWindows 7 Professional
p1171
sVinstallDate
p1172
V2011-08-31 11:07:00.000
p1173
ssVMLH007-POS2
p1174
(dp1175
Vtype
p1176
VWindows 7 Professional
p1177
sVinstallDate
p1178
V2012-02-22 16:38:00.000
p1179
ssVFBR001-POS2
p1180
(dp1181
Vtype
p1182
VWindows 7 Professional
p1183
sVinstallDate
p1184
V2012-02-22 16:38:00.000
p1185
ssVTIS007-POS1
p1186
(dp1187
Vtype
p1188
VWindows 7 Professional
p1189
sVinstallDate
p1190
V2011-08-31 11:07:00.000
p1191
ssVMLH042-POS2
p1192
(dp1193
Vtype
p1194
VWindows XP Professional
p1195
sVinstallDate
p1196
V2008-07-22 07:51:00.000
p1197
ssVMLH042-POS1
p1198
(dp1199
Vtype
p1200
VWindows XP Professional
p1201
sVinstallDate
p1202
V2008-07-22 07:51:00.000
p1203
ssVSEL043-S
p1204
(dp1205
Vtype
p1206
VWindows XP Professional
p1207
sVinstallDate
p1208
V2008-05-29 15:39:00.000
p1209
ssVOPI010-POS1
p1210
(dp1211
Vtype
p1212
VWindows 7 Professional
p1213
sVinstallDate
p1214
V2011-08-31 11:07:00.000
p1215
ssVMLH058-POS1
p1216
(dp1217
Vtype
p1218
VWindows XP Professional
p1219
sVinstallDate
p1220
V2008-07-22 07:51:00.000
p1221
ssVABC229-POS1
p1222
(dp1223
Vtype
p1224
VWindows 7 Professional
p1225
sVinstallDate
p1226
V2012-02-22 16:38:00.000
p1227
ssVMLH069-POS1
p1228
(dp1229
Vtype
p1230
VWindows XP Professional
p1231
sVinstallDate
p1232
V2008-06-26 14:23:00.000
p1233
ssVMLH069-POS2
p1234
(dp1235
Vtype
p1236
VWindows XP Professional
p1237
sVinstallDate
p1238
V2008-06-26 14:23:00.000
p1239
ssVGLE039-POS1
p1240
(dp1241
Vtype
p1242
VWindows 7 Professional
p1243
sVinstallDate
p1244
V2011-08-31 11:07:00.000
p1245
ssVMLH018-POS1
p1246
(dp1247
Vtype
p1248
VWindows 7 Professional
p1249
sVinstallDate
p1250
V2011-08-31 11:07:00.000
p1251
ssVMLH018-POS2
p1252
(dp1253
Vtype
p1254
VWindows 7 Professional
p1255
sVinstallDate
p1256
V2011-08-31 11:07:00.000
p1257
ssVMNH177-POS1
p1258
(dp1259
Vtype
p1260
VWindows 7 Professional
p1261
sVinstallDate
p1262
V2011-08-31 11:07:00.000
p1263
ssVABC230-S
p1264
(dp1265
Vtype
p1266
VWindows 7 Professional
p1267
sVinstallDate
p1268
V2011-08-31 11:07:00.000
p1269
ssVMNH330-POS1
p1270
(dp1271
Vtype
p1272
VWindows 7 Professional
p1273
sVinstallDate
p1274
V2011-08-31 11:07:00.000
p1275
ssVMLH716-POS1
p1276
(dp1277
Vtype
p1278
VWindows XP Professional
p1279
sVinstallDate
p1280
V2008-06-26 14:23:00.000
p1281
ssVTSQ010-S
p1282
(dp1283
Vtype
p1284
VWindows 7 Professional
p1285
sVinstallDate
p1286
V2010-02-02 10:15:00.000
p1287
ssVMLH725-POS1
p1288
(dp1289
Vtype
p1290
VWindows 7 Professional
p1291
sVinstallDate
p1292
V2011-08-31 11:07:00.000
p1293
ssVQUK037-POS1
p1294
(dp1295
Vtype
p1296
VWindows 7 Professional
p1297
sVinstallDate
p1298
V2011-08-31 11:07:00.000
p1299
ssVMLH052-POS2
p1300
(dp1301
Vtype
p1302
VWindows XP Professional
p1303
sVinstallDate
p1304
V2008-07-22 07:51:00.000
p1305
ssVMLH052-POS3
p1306
(dp1307
Vtype
p1308
VWindows 7 Professional
p1309
sVinstallDate
p1310
V2012-02-22 16:38:00.000
p1311
ssVMLH052-POS1
p1312
(dp1313
Vtype
p1314
VWindows XP Professional
p1315
sVinstallDate
p1316
V2008-07-22 07:51:00.000
p1317
ssVMLH714-POS1
p1318
(dp1319
Vtype
p1320
VWindows 7 Professional
p1321
sVinstallDate
p1322
V2011-08-31 11:07:00.000
p1323
ssVEXP001-S
p1324
(dp1325
Vtype
p1326
VWindows 7 Professional
p1327
sVinstallDate
p1328
V2012-02-22 16:38:00.000
p1329
ssVABC047-POS2
p1330
(dp1331
Vtype
p1332
VWindows 7 Professional
p1333
sVinstallDate
p1334
V2014-02-18 09:11:00.000
p1335
ssVABC003-S
p1336
(dp1337
Vtype
p1338
VWindows 7 Professional
p1339
sVinstallDate
p1340
V2014-02-18 09:11:00.000
p1341
ssVPVP001-POS1
p1342
(dp1343
Vtype
p1344
VWindows XP Professional
p1345
sVinstallDate
p1346
V2008-07-22 07:51:00.000
p1347
ssVMNH061-POS1
p1348
(dp1349
Vtype
p1350
VWindows 7 Professional
p1351
sVinstallDate
p1352
V2011-08-31 11:07:00.000
p1353
ssVMLH072-POS1
p1354
(dp1355
Vtype
p1356
VWindows 7 Professional
p1357
sVinstallDate
p1358
V2011-08-31 11:07:00.000
p1359
ssVMLH072-POS2
p1360
(dp1361
Vtype
p1362
VWindows 7 Professional
p1363
sVinstallDate
p1364
V2011-08-31 11:07:00.000
p1365
ssVSEL127-S
p1366
(dp1367
Vtype
p1368
VWindows XP Professional
p1369
sVinstallDate
p1370
V2008-06-26 14:23:00.000
p1371
ssVMLH748-POS1
p1372
(dp1373
Vtype
p1374
VWindows 7 Professional
p1375
sVinstallDate
p1376
V2011-08-31 11:07:00.000
p1377
ssVSEL005-S
p1378
(dp1379
Vtype
p1380
VWindows XP Professional
p1381
sVinstallDate
p1382
V2008-06-26 14:23:00.000
p1383
ssVIPK005-POS1
p1384
(dp1385
Vtype
p1386
NsVinstallDate
p1387
NssVMLH719-POS1
p1388
(dp1389
Vtype
p1390
VWindows 7 Professional
p1391
sVinstallDate
p1392
V2011-08-31 11:07:00.000
p1393
ssVSPM001-POS1
p1394
(dp1395
Vtype
p1396
VWindows 7 Professional
p1397
sVinstallDate
p1398
V2011-08-31 11:07:00.000
p1399
ssVMLH097-POS1
p1400
(dp1401
Vtype
p1402
VWindows XP Professional
p1403
sVinstallDate
p1404
V2008-06-26 14:23:00.000
p1405
ssVABC091-S
p1406
(dp1407
Vtype
p1408
VWindows 7 Professional
p1409
sVinstallDate
p1410
V2011-08-31 11:07:00.000
p1411
ssVMLH097-POS2
p1412
(dp1413
Vtype
p1414
VWindows XP Professional
p1415
sVinstallDate
p1416
V2008-06-26 14:23:00.000
p1417
ssVMLH888-POS1
p1418
(dp1419
Vtype
p1420
VWindows XP Professional
p1421
sVinstallDate
p1422
V2008-07-22 07:51:00.000
p1423
ssVABC065-W1
p1424
(dp1425
Vtype
p1426
VWindows 7 Professional
p1427
sVinstallDate
p1428
V2011-08-31 11:07:00.000
p1429
ssVMLH888-POS3
p1430
(dp1431
Vtype
p1432
VWindows XP Professional
p1433
sVinstallDate
p1434
V2008-07-22 07:51:00.000
p1435
ssVMLH888-POS2
p1436
(dp1437
Vtype
p1438
VWindows XP Professional
p1439
sVinstallDate
p1440
V2008-07-22 07:51:00.000
p1441
ssVQUK725-POS1
p1442
(dp1443
Vtype
p1444
VWindows 7 Professional
p1445
sVinstallDate
p1446
V2012-02-22 16:38:00.000
p1447
ssVQUK734-POS2
p1448
(dp1449
Vtype
p1450
VWindows 7 Professional
p1451
sVinstallDate
p1452
V2012-02-22 16:38:00.000
p1453
ssVQUK734-POS1
p1454
(dp1455
Vtype
p1456
VWindows 7 Professional
p1457
sVinstallDate
p1458
V2012-02-22 16:38:00.000
p1459
ssVGLE056-POS2
p1460
(dp1461
Vtype
p1462
VWindows 7 Professional
p1463
sVinstallDate
p1464
V2011-08-31 11:07:00.000
p1465
ssVSERVERPLUS
p1466
(dp1467
Vtype
p1468
VWindows 7 Professional
p1469
sVinstallDate
p1470
V2011-08-31 11:07:00.000
p1471
ssVMLH700-POS1
p1472
(dp1473
Vtype
p1474
VWindows XP Professional
p1475
sVinstallDate
p1476
V2008-07-22 07:51:00.000
p1477
ssVMLH700-POS2
p1478
(dp1479
Vtype
p1480
VWindows XP Professional
p1481
sVinstallDate
p1482
V2008-07-22 07:51:00.000
p1483
ssV_FPU-PC
p1484
(dp1485
Vtype
p1486
VWindows 7 Professional
p1487
sVinstallDate
p1488
V2014-02-05 16:24:00.000
p1489
ssVMLH079-POS1
p1490
(dp1491
Vtype
p1492
VWindows XP Professional
p1493
sVinstallDate
p1494
V2008-07-22 07:51:00.000
p1495
ssVGLE090-POS1
p1496
(dp1497
Vtype
p1498
VWindows 7 Professional
p1499
sVinstallDate
p1500
V2011-08-31 11:07:00.000
p1501
ssVMLH079-POS2
p1502
(dp1503
Vtype
p1504
VWindows XP Professional
p1505
sVinstallDate
p1506
V2008-07-22 07:51:00.000
p1507
ssVMLH150-POS2
p1508
(dp1509
Vtype
p1510
VWindows XP Professional
p1511
sVinstallDate
p1512
V2008-06-26 14:23:00.000
p1513
ssVMLH150-POS1
p1514
(dp1515
Vtype
p1516
VWindows XP Professional
p1517
sVinstallDate
p1518
V2008-06-26 14:23:00.000
p1519
ssVQUK152-POS1
p1520
(dp1521
Vtype
p1522
VWindows 7 Professional
p1523
sVinstallDate
p1524
V2015-02-02 16:25:00.000
p1525
ssVKIN087-POS1
p1526
(dp1527
Vtype
p1528
VWindows 7 Professional
p1529
sVinstallDate
p1530
V2011-08-31 11:07:00.000
p1531
ssVCPS048-S
p1532
(dp1533
Vtype
p1534
VWindows 7 Professional
p1535
sVinstallDate
p1536
V2011-08-31 11:07:00.000
p1537
ssVABC224-W1
p1538
(dp1539
Vtype
p1540
VWindows 7 Professional
p1541
sVinstallDate
p1542
V2011-08-31 11:07:00.000
p1543
ssVMLH030-POS1
p1544
(dp1545
Vtype
p1546
VWindows 7 Professional
p1547
sVinstallDate
p1548
V2014-02-18 09:11:00.000
p1549
ssVMLH044-POS1
p1550
(dp1551
Vtype
p1552
VWindows XP Professional
p1553
sVinstallDate
p1554
V2008-06-26 14:23:00.000
p1555
ssVSEL222-S
p1556
(dp1557
Vtype
p1558
VWindows XP Professional
p1559
sVinstallDate
p1560
V2007-05-15 15:50:00.000
p1561
ssVMLH708-POS1
p1562
(dp1563
Vtype
p1564
VWindows 7 Professional
p1565
sVinstallDate
p1566
V2011-08-31 11:07:00.000
p1567
ssVMLH034-POS1
p1568
(dp1569
Vtype
p1570
VWindows 7 Professional
p1571
sVinstallDate
p1572
V2011-08-31 11:07:00.000
p1573
ssVGLE038-POS1
p1574
(dp1575
Vtype
p1576
VWindows 7 Professional
p1577
sVinstallDate
p1578
V2011-08-31 11:07:00.000
p1579
ssVGMC064-POS1
p1580
(dp1581
Vtype
p1582
VWindows 7 Professional
p1583
sVinstallDate
p1584
V2011-08-31 11:07:00.000
p1585
ssVGMC078-POS1
p1586
(dp1587
Vtype
p1588
VWindows 7 Professional
p1589
sVinstallDate
p1590
V2011-08-31 11:07:00.000
p1591
ssVRPD072-POS1
p1592
(dp1593
Vtype
p1594
VWindows 7 Professional
p1595
sVinstallDate
p1596
V2011-08-31 11:07:00.000
p1597
ssVOPI501-POS1
p1598
(dp1599
Vtype
p1600
VWindows 7 Professional
p1601
sVinstallDate
p1602
V2011-08-31 11:07:00.000
p1603
ssVMLH114-POS2
p1604
(dp1605
Vtype
p1606
VWindows 7 Professional
p1607
sVinstallDate
p1608
V2010-12-01 15:12:00.000
p1609
ssVMLH114-POS1
p1610
(dp1611
Vtype
p1612
VWindows 7 Professional
p1613
sVinstallDate
p1614
V2010-12-01 15:12:00.000
p1615
ssVMLH771-POS1
p1616
(dp1617
Vtype
p1618
VWindows 7 Professional
p1619
sVinstallDate
p1620
V2011-08-31 11:07:00.000
p1621
ssVQUK600-POS1
p1622
(dp1623
Vtype
p1624
VWindows 7 Professional
p1625
sVinstallDate
p1626
V2011-08-31 11:07:00.000
p1627
ssVGMC020-S
p1628
(dp1629
Vtype
p1630
VWindows 7 Professional
p1631
sVinstallDate
p1632
NssVGMC027-S
p1633
(dp1634
Vtype
p1635
VWindows 7 Professional
p1636
sVinstallDate
p1637
V2011-08-31 11:07:00.000
p1638
ssVABC144-POS1
p1639
(dp1640
Vtype
p1641
VWindows 7 Professional
p1642
sVinstallDate
p1643
V2012-02-22 16:38:00.000
p1644
ssVGMC033-POS1
p1645
(dp1646
Vtype
p1647
VWindows 7 Professional
p1648
sVinstallDate
p1649
V2011-08-31 11:07:00.000
p1650
ssVKIN060-POS1
p1651
(dp1652
Vtype
p1653
VWindows 7 Professional
p1654
sVinstallDate
p1655
V2011-08-31 11:07:00.000
p1656
ssVKIN060-POS2
p1657
(dp1658
Vtype
p1659
VWindows 7 Professional
p1660
sVinstallDate
p1661
V2011-08-31 11:07:00.000
p1662
ssVQUK048-POS1
p1663
(dp1664
Vtype
p1665
VWindows 7 Professional
p1666
sVinstallDate
p1667
V2011-08-31 11:07:00.000
p1668
ssVINT072-POS1
p1669
(dp1670
Vtype
p1671
VWindows 7 Professional
p1672
sVinstallDate
p1673
V2012-02-22 16:38:00.000
p1674
ssVQUK866-POS1
p1675
(dp1676
Vtype
p1677
VWindows 7 Professional
p1678
sVinstallDate
p1679
V2011-08-31 11:07:00.000
p1680
ssVINT067-POS1
p1681
(dp1682
Vtype
p1683
VWindows 7 Professional
p1684
sVinstallDate
p1685
V2012-02-22 16:38:00.000
p1686
ssVMLH200-POS1
p1687
(dp1688
Vtype
p1689
VWindows 7 Professional
p1690
sVinstallDate
p1691
V2011-08-31 11:07:00.000
p1692
ssVMLH108-POS2
p1693
(dp1694
Vtype
p1695
VWindows 7 Professional
p1696
sVinstallDate
p1697
V2011-08-31 11:07:00.000
p1698
ssVMLH108-POS1
p1699
(dp1700
Vtype
p1701
VWindows 7 Professional
p1702
sVinstallDate
p1703
V2011-08-31 11:07:00.000
p1704
ssVRPD047-S
p1705
(dp1706
Vtype
p1707
VWindows 7 Professional
p1708
sVinstallDate
p1709
V2011-08-31 11:07:00.000
p1710
ssVSEL037-POS1
p1711
(dp1712
Vtype
p1713
VWindows 7 Professional
p1714
sVinstallDate
p1715
V2011-08-31 11:07:00.000
p1716
ssVMLH059-POS2
p1717
(dp1718
Vtype
p1719
VWindows XP Professional
p1720
sVinstallDate
p1721
V2008-07-22 07:51:00.000
p1722
ssVMLH059-POS1
p1723
(dp1724
Vtype
p1725
VWindows XP Professional
p1726
sVinstallDate
p1727
V2008-07-22 07:51:00.000
p1728
ssVABC025-S
p1729
(dp1730
Vtype
p1731
VWindows 7 Professional
p1732
sVinstallDate
p1733
V2011-08-31 11:07:00.000
p1734
ssVABC022-S
p1735
(dp1736
Vtype
p1737
VWindows 7 Professional
p1738
sVinstallDate
p1739
V2011-08-31 11:07:00.000
p1740
ssVABC006-POS1
p1741
(dp1742
Vtype
p1743
VWindows 7 Professional
p1744
sVinstallDate
p1745
V2011-08-31 11:07:00.000
p1746
ssVPRI070-S
p1747
(dp1748
Vtype
p1749
VWindows XP Professional
p1750
sVinstallDate
p1751
V2008-06-26 14:23:00.000
p1752
ssVMLH712-POS1
p1753
(dp1754
Vtype
p1755
VWindows 7 Professional
p1756
sVinstallDate
p1757
V2011-08-31 11:07:00.000
p1758
ssVQUK105-POS1
p1759
(dp1760
Vtype
p1761
VWindows 7 Professional
p1762
sVinstallDate
p1763
V2015-02-02 16:25:00.000
p1764
ssVQUK021-POS1
p1765
(dp1766
Vtype
p1767
VWindows 7 Professional
p1768
sVinstallDate
p1769
V2011-08-31 11:07:00.000
p1770
ssVABC031-S
p1771
(dp1772
Vtype
p1773
VWindows 7 Professional
p1774
sVinstallDate
p1775
V2011-08-31 11:07:00.000
p1776
ssVPRK096-S
p1777
(dp1778
Vtype
p1779
VWindows 7 Professional
p1780
sVinstallDate
p1781
V2011-08-31 11:07:00.000
p1782
ssVGLE080-POS1
p1783
(dp1784
Vtype
p1785
VWindows 7 Professional
p1786
sVinstallDate
p1787
V2011-08-31 11:07:00.000
p1788
ssVMNH028-POS1
p1789
(dp1790
Vtype
p1791
VWindows 7 Professional
p1792
sVinstallDate
p1793
V2011-08-31 11:07:00.000
p1794
ssVMNH049-S
p1795
(dp1796
Vtype
p1797
VWindows XP Professional
p1798
sVinstallDate
p1799
V2008-06-26 14:23:00.000
p1800
ssVGLE064-POS1
p1801
(dp1802
Vtype
p1803
NsVinstallDate
p1804
NssVQUK222-POS1
p1805
(dp1806
Vtype
p1807
VWindows 7 Professional
p1808
sVinstallDate
p1809
V2010-12-01 15:12:00.000
p1810
ssVABC065-POS2
p1811
(dp1812
Vtype
p1813
VWindows 7 Professional
p1814
sVinstallDate
p1815
V2011-08-31 11:07:00.000
p1816
ssVMLH021-POS1
p1817
(dp1818
Vtype
p1819
VWindows 7 Professional
p1820
sVinstallDate
p1821
V2011-08-31 11:07:00.000
p1822
ssVQUK730-POS1
p1823
(dp1824
Vtype
p1825
VWindows 7 Professional
p1826
sVinstallDate
p1827
V2011-08-31 11:07:00.000
p1828
ssVMLH081-POS1
p1829
(dp1830
Vtype
p1831
VWindows 7 Professional
p1832
sVinstallDate
p1833
V2011-08-31 11:07:00.000
p1834
ssVRPD075-POS1
p1835
(dp1836
Vtype
p1837
VWindows 7 Professional
p1838
sVinstallDate
p1839
V2011-08-31 11:07:00.000
p1840
ssVQUK715-POS1
p1841
(dp1842
Vtype
p1843
VWindows 7 Professional
p1844
sVinstallDate
p1845
V2011-08-31 11:07:00.000
p1846
ssV_AlexPC
p1847
(dp1848
Vtype
p1849
VWindows 7 Professional
p1850
sVinstallDate
p1851
V2014-03-31 14:17:00.000
p1852
ssVIPK006-POS1
p1853
(dp1854
Vtype
p1855
NsVinstallDate
p1856
NssVMLH057-POS1
p1857
(dp1858
Vtype
p1859
VWindows XP Professional
p1860
sVinstallDate
p1861
V2008-07-22 07:51:00.000
p1862
ssVMLH258-POS2
p1863
(dp1864
Vtype
p1865
VWindows XP Professional
p1866
sVinstallDate
p1867
V2008-07-22 07:51:00.000
p1868
ssVTSQ074-S
p1869
(dp1870
Vtype
p1871
VWindows 7 Professional
p1872
sVinstallDate
p1873
V2011-08-31 11:07:00.000
p1874
ssVMLH258-POS1
p1875
(dp1876
Vtype
p1877
VWindows XP Professional
p1878
sVinstallDate
p1879
V2008-07-22 07:51:00.000
p1880
ssVGMC060-POS1
p1881
(dp1882
Vtype
p1883
VWindows 7 Professional
p1884
sVinstallDate
p1885
V2011-08-31 11:07:00.000
p1886
ssVGMC060-POS2
p1887
(dp1888
Vtype
p1889
VWindows 7 Professional
p1890
sVinstallDate
p1891
V2011-08-31 11:07:00.000
p1892
ssVEPA001-POS1
p1893
(dp1894
Vtype
p1895
VWindows 7 Professional
p1896
sVinstallDate
p1897
V2012-02-22 16:38:00.000
p1898
ssVPRK009-S
p1899
(dp1900
Vtype
p1901
VWindows XP Professional
p1902
sVinstallDate
p1903
V2007-05-15 15:50:00.000
p1904
ssVTSQ135-POS1
p1905
(dp1906
Vtype
p1907
VWindows 7 Professional
p1908
sVinstallDate
p1909
V2011-08-31 11:07:00.000
p1910
ssVMLH057-POS2
p1911
(dp1912
Vtype
p1913
VWindows XP Professional
p1914
sVinstallDate
p1915
V2008-07-22 07:51:00.000
p1916
ssVTIS004-POS1
p1917
(dp1918
Vtype
p1919
VWindows 7 Professional
p1920
sVinstallDate
p1921
V2011-08-31 11:07:00.000
p1922
ssVABC089-S
p1923
(dp1924
Vtype
p1925
VWindows 7 Professional
p1926
sVinstallDate
p1927
V2011-08-31 11:07:00.000
p1928
ssVRPD003-S
p1929
(dp1930
Vtype
p1931
VWindows 7 Professional
p1932
sVinstallDate
p1933
V2011-08-31 11:07:00.000
p1934
ssVGMC017-POS2
p1935
(dp1936
Vtype
p1937
VWindows 7 Professional
p1938
sVinstallDate
p1939
V2011-08-31 11:07:00.000
p1940
ssVGMC017-POS1
p1941
(dp1942
Vtype
p1943
VWindows 7 Professional
p1944
sVinstallDate
p1945
V2011-08-31 11:07:00.000
p1946
ssVMLH753-POS1
p1947
(dp1948
Vtype
p1949
VWindows XP Professional
p1950
sVinstallDate
p1951
V2008-07-22 07:51:00.000
p1952
ssVMLH753-POS2
p1953
(dp1954
Vtype
p1955
VWindows XP Professional
p1956
sVinstallDate
p1957
V2008-07-22 07:51:00.000
p1958
ssVQUK703-POS1
p1959
(dp1960
Vtype
p1961
VWindows 7 Professional
p1962
sVinstallDate
p1963
V2011-08-31 11:07:00.000
p1964
ssVQUK025-POS1
p1965
(dp1966
Vtype
p1967
VWindows 7 Professional
p1968
sVinstallDate
p1969
V2011-08-31 11:07:00.000
p1970
ssV_VingPC
p1971
(dp1972
Vtype
p1973
VWindows 7 Professional
p1974
sVinstallDate
p1975
V2015-03-10 13:24:00.000
p1976
ssVMLH001-POS2
p1977
(dp1978
Vtype
p1979
VWindows XP Professional
p1980
sVinstallDate
p1981
V2008-07-22 07:51:00.000
p1982
ssVKIN045-POS1
p1983
(dp1984
Vtype
p1985
VWindows 7 Professional
p1986
sVinstallDate
p1987
V2011-08-31 11:07:00.000
p1988
ssVQUK705-POS1
p1989
(dp1990
Vtype
p1991
VWindows 7 Professional
p1992
sVinstallDate
p1993
V2011-08-31 11:07:00.000
p1994
ssVMLH080-POS1
p1995
(dp1996
Vtype
p1997
VWindows 7 Professional
p1998
sVinstallDate
p1999
V2011-08-31 11:07:00.000
p2000
ssVKIN051-POS1
p2001
(dp2002
Vtype
p2003
VWindows 7 Professional
p2004
sVinstallDate
p2005
V2011-08-31 11:07:00.000
p2006
ssVABC239-S
p2007
(dp2008
Vtype
p2009
VWindows 7 Professional
p2010
sVinstallDate
p2011
V2011-08-31 11:07:00.000
p2012
ssVRDN069-S
p2013
(dp2014
Vtype
p2015
VWindows 7 Professional
p2016
sVinstallDate
p2017
V2011-08-31 11:07:00.000
p2018
ssVGLE092-POS1
p2019
(dp2020
Vtype
p2021
VWindows 7 Professional
p2022
sVinstallDate
p2023
V2011-08-31 11:07:00.000
p2024
ssVABC012-POS1
p2025
(dp2026
Vtype
p2027
VWindows 7 Professional
p2028
sVinstallDate
p2029
V2012-11-19 13:36:00.000
p2030
ssVMLH001-POS1
p2031
(dp2032
Vtype
p2033
VWindows XP Professional
p2034
sVinstallDate
p2035
V2008-07-22 07:51:00.000
p2036
ssVEXP001-H
p2037
(dp2038
Vtype
p2039
VWindows Vista Home Premium
p2040
sVinstallDate
p2041
V2007-10-15 13:13:00.000
p2042
ssVQUK701-POS1
p2043
(dp2044
Vtype
p2045
VWindows 7 Professional
p2046
sVinstallDate
p2047
V2012-02-22 16:38:00.000
p2048
ssVMAURICIOC-TKTWIN7
p2049
(dp2050
Vtype
p2051
VWindows 10 Pro
p2052
sVinstallDate
p2053
V2015-09-10 10:00:00.000
p2054
ssVCCP001-W1
p2055
(dp2056
Vtype
p2057
VWindows 7 Professional
p2058
sVinstallDate
p2059
V2010-02-02 10:15:00.000
p2060
ssVKIN069-POS1
p2061
(dp2062
Vtype
p2063
VWindows 7 Professional
p2064
sVinstallDate
p2065
V2011-08-31 11:07:00.000
p2066
ssVABC007-S
p2067
(dp2068
Vtype
p2069
VWindows 7 Professional
p2070
sVinstallDate
p2071
V2011-08-31 11:07:00.000
p2072
ssVGLE079-POS1
p2073
(dp2074
Vtype
p2075
VWindows 7 Professional
p2076
sVinstallDate
p2077
V2011-08-31 11:07:00.000
p2078
ssVGMC085-S
p2079
(dp2080
Vtype
p2081
VWindows XP Professional
p2082
sVinstallDate
p2083
NssVSYL071-S
p2084
(dp2085
Vtype
p2086
VWindows 7 Professional
p2087
sVinstallDate
p2088
V2011-08-31 11:07:00.000
p2089
ssVQUK036-POS1
p2090
(dp2091
Vtype
p2092
VWindows 7 Professional
p2093
sVinstallDate
p2094
V2011-08-31 11:07:00.000
p2095
ssVKIN017-POS1
p2096
(dp2097
Vtype
p2098
VWindows 7 Professional
p2099
sVinstallDate
p2100
V2011-08-31 11:07:00.000
p2101
ssVABC232-S
p2102
(dp2103
Vtype
p2104
VWindows 7 Professional
p2105
sVinstallDate
p2106
V2011-08-31 11:07:00.000
p2107
ssVGMC045-POS1
p2108
(dp2109
Vtype
p2110
VWindows 7 Professional
p2111
sVinstallDate
p2112
V2011-08-31 11:07:00.000
p2113
ssVABC231-S
p2114
(dp2115
Vtype
p2116
VWindows 7 Professional
p2117
sVinstallDate
p2118
V2011-08-31 11:07:00.000
p2119
ssVQUK575-POS1
p2120
(dp2121
Vtype
p2122
VWindows 7 Professional
p2123
sVinstallDate
p2124
V2012-02-22 16:38:00.000
p2125
ssVQUK053-POS1
p2126
(dp2127
Vtype
p2128
VWindows 7 Professional
p2129
sVinstallDate
p2130
V2011-08-31 11:07:00.000
p2131
ssVSEL145-S
p2132
(dp2133
Vtype
p2134
VWindows XP Professional
p2135
sVinstallDate
p2136
V2008-06-26 14:23:00.000
p2137
ssVMNH190-S
p2138
(dp2139
Vtype
p2140
VWindows XP Professional
p2141
sVinstallDate
p2142
V2008-06-26 14:23:00.000
p2143
ssVMLH749-POS1
p2144
(dp2145
Vtype
p2146
VWindows 7 Professional
p2147
sVinstallDate
p2148
V2011-08-31 11:07:00.000
p2149
ssVABC026-S
p2150
(dp2151
Vtype
p2152
VWindows 7 Professional
p2153
sVinstallDate
p2154
V2011-08-31 11:07:00.000
p2155
ssVVGC057-POS1
p2156
(dp2157
Vtype
p2158
VWindows 7 Professional
p2159
sVinstallDate
p2160
V2011-08-31 11:07:00.000
p2161
ssVTSQ056-S
p2162
(dp2163
Vtype
p2164
VWindows 7 Professional
p2165
sVinstallDate
p2166
V2011-08-31 11:07:00.000
p2167
ssVMLH064-POS2
p2168
(dp2169
Vtype
p2170
VWindows XP Professional
p2171
sVinstallDate
p2172
V2008-07-22 07:51:00.000
p2173
ssVMLH064-POS1
p2174
(dp2175
Vtype
p2176
VWindows XP Professional
p2177
sVinstallDate
p2178
V2008-07-22 07:51:00.000
p2179
ssVTSQ012-S
p2180
(dp2181
Vtype
p2182
VWindows 7 Professional
p2183
sVinstallDate
p2184
V2010-02-02 10:15:00.000
p2185
ssVGMC083-POS1
p2186
(dp2187
Vtype
p2188
VWindows 7 Professional
p2189
sVinstallDate
p2190
V2011-08-31 11:07:00.000
p2191
ssVKIN230-POS1
p2192
(dp2193
Vtype
p2194
VWindows 7 Professional
p2195
sVinstallDate
p2196
V2011-08-31 11:07:00.000
p2197
ssVMLH006-POS1
p2198
(dp2199
Vtype
p2200
VWindows 7 Professional
p2201
sVinstallDate
p2202
V2011-08-31 11:07:00.000
p2203
ssVMLH745-POS1
p2204
(dp2205
Vtype
p2206
VWindows 7 Professional
p2207
sVinstallDate
p2208
V2010-12-01 15:12:00.000
p2209
ssVMLH713-POS1
p2210
(dp2211
Vtype
p2212
VWindows 7 Professional
p2213
sVinstallDate
p2214
V2011-08-31 11:07:00.000
p2215
ssVKIN014-POS1
p2216
(dp2217
Vtype
p2218
VWindows 7 Professional
p2219
sVinstallDate
p2220
V2011-08-31 11:07:00.000
p2221
ssVFBR001-POS1
p2222
(dp2223
Vtype
p2224
VWindows 7 Professional
p2225
sVinstallDate
p2226
V2012-02-22 16:38:00.000
p2227
ssVEZP002-S
p2228
(dp2229
Vtype
p2230
VWindows XP Professional
p2231
sVinstallDate
p2232
V2008-06-26 14:23:00.000
p2233
ssVGLE060-POS1
p2234
(dp2235
Vtype
p2236
VWindows 7 Professional
p2237
sVinstallDate
p2238
V2011-08-31 11:07:00.000
p2239
ssVGLE060-POS2
p2240
(dp2241
Vtype
p2242
VWindows 7 Professional
p2243
sVinstallDate
p2244
V2011-08-31 11:07:00.000
p2245
ssVABC056-S
p2246
(dp2247
Vtype
p2248
VWindows 7 Professional
p2249
sVinstallDate
p2250
V2011-08-31 11:07:00.000
p2251
ssVMLH035-POS1
p2252
(dp2253
Vtype
p2254
VWindows 7 Professional
p2255
sVinstallDate
p2256
V2011-08-31 11:07:00.000
p2257
ssVMNH041-POS1
p2258
(dp2259
Vtype
p2260
VWindows 7 Professional
p2261
sVinstallDate
p2262
V2010-12-01 15:12:00.000
p2263
ssVQUK252-S
p2264
(dp2265
Vtype
p2266
VWindows 7 Professional
p2267
sVinstallDate
p2268
V2011-08-31 11:07:00.000
p2269
ssVMLH300-POS1
p2270
(dp2271
Vtype
p2272
VWindows 7 Professional
p2273
sVinstallDate
p2274
V2010-12-01 15:12:00.000
p2275
ssVSYL014-S
p2276
(dp2277
Vtype
p2278
VWindows 7 Professional
p2279
sVinstallDate
p2280
V2011-08-31 11:07:00.000
p2281
ssVSYL013-S
p2282
(dp2283
Vtype
p2284
VWindows 7 Professional
p2285
sVinstallDate
p2286
V2011-08-31 11:07:00.000
p2287
ssVABC245-POS1
p2288
(dp2289
Vtype
p2290
VWindows 7 Professional
p2291
sVinstallDate
p2292
V2012-02-22 16:38:00.000
p2293
ssVGLE246-POS1
p2294
(dp2295
Vtype
p2296
VWindows 7 Professional
p2297
sVinstallDate
p2298
V2011-08-31 11:07:00.000
p2299
ssVMLH085-POS1
p2300
(dp2301
Vtype
p2302
VWindows 7 Professional
p2303
sVinstallDate
p2304
V2011-08-31 11:07:00.000
p2305
ssVQUK093-POS1
p2306
(dp2307
Vtype
p2308
VWindows 7 Professional
p2309
sVinstallDate
p2310
V2011-08-31 11:07:00.000
p2311
ssVQUK213-POS1
p2312
(dp2313
Vtype
p2314
VWindows 7 Professional
p2315
sVinstallDate
p2316
V2011-08-31 11:07:00.000
p2317
ssVMLH737-POS1
p2318
(dp2319
Vtype
p2320
VWindows XP Professional
p2321
sVinstallDate
p2322
V2008-07-22 07:51:00.000
p2323
ssVCPS022-S 
p2324
(dp2325
Vtype
p2326
VWindows 7 Professional
p2327
sVinstallDate
p2328
V2011-08-31 11:07:00.000
p2329
ssVABC021-S
p2330
(dp2331
Vtype
p2332
VWindows 7 Professional
p2333
sVinstallDate
p2334
V2011-08-31 11:07:00.000
p2335
ssVMLH747-POS1
p2336
(dp2337
Vtype
p2338
VWindows 7 Professional
p2339
sVinstallDate
p2340
V2011-08-31 11:07:00.000
p2341
ssVMLH037-POS2
p2342
(dp2343
Vtype
p2344
VWindows XP Professional
p2345
sVinstallDate
p2346
V2008-06-26 14:23:00.000
p2347
ssVMLH037-POS1
p2348
(dp2349
Vtype
p2350
VWindows XP Professional
p2351
sVinstallDate
p2352
V2008-06-26 14:23:00.000
p2353
ssVMLH724-POS1
p2354
(dp2355
Vtype
p2356
VWindows 7 Professional
p2357
sVinstallDate
p2358
V2011-08-31 11:07:00.000
p2359
ssVMNH351-POS1
p2360
(dp2361
Vtype
p2362
VWindows 7 Professional
p2363
sVinstallDate
p2364
V2011-08-31 11:07:00.000
p2365
ssVMLH370-POS2
p2366
(dp2367
Vtype
p2368
VWindows XP Professional
p2369
sVinstallDate
p2370
V2008-07-22 07:51:00.000
p2371
ssVMLH798-POS1
p2372
(dp2373
Vtype
p2374
VWindows 7 Professional
p2375
sVinstallDate
p2376
V2011-08-31 11:07:00.000
p2377
ssVMNH046-POS1
p2378
(dp2379
Vtype
p2380
VWindows 7 Professional
p2381
sVinstallDate
p2382
V2011-08-31 11:07:00.000
p2383
ssVMLH115-POS1
p2384
(dp2385
Vtype
p2386
VWindows 7 Professional
p2387
sVinstallDate
p2388
V2010-12-01 15:12:00.000
p2389
ssVMLH115-POS2
p2390
(dp2391
Vtype
p2392
VWindows 7 Professional
p2393
sVinstallDate
p2394
V2010-12-01 15:12:00.000
p2395
ssVOPI375-POS1
p2396
(dp2397
Vtype
p2398
VWindows 7 Professional
p2399
sVinstallDate
p2400
V2012-02-22 16:38:00.000
p2401
ssVTIS015-POS1
p2402
(dp2403
Vtype
p2404
VWindows 7 Professional
p2405
sVinstallDate
p2406
V2015-02-02 16:25:00.000
p2407
ssVMLH029-POS1
p2408
(dp2409
Vtype
p2410
VWindows XP Professional
p2411
sVinstallDate
p2412
V2008-06-26 14:23:00.000
p2413
ssVQUK633-POS1
p2414
(dp2415
Vtype
p2416
VWindows 7 Professional
p2417
sVinstallDate
p2418
V2011-08-31 11:07:00.000
p2419
ssVSYL050-POS1
p2420
(dp2421
Vtype
p2422
VWindows 7 Professional
p2423
sVinstallDate
p2424
V2011-08-31 11:07:00.000
p2425
ssVMNH007-POS1
p2426
(dp2427
Vtype
p2428
VWindows 7 Professional
p2429
sVinstallDate
p2430
V2011-08-31 11:07:00.000
p2431
ssVMLH007-POS1
p2432
(dp2433
Vtype
p2434
VWindows 7 Professional
p2435
sVinstallDate
p2436
V2012-02-22 16:38:00.000
p2437
ssVMLH026-POS1
p2438
(dp2439
Vtype
p2440
VWindows 7 Professional
p2441
sVinstallDate
p2442
V2011-08-31 11:07:00.000
p2443
ssVMLH026-POS2
p2444
(dp2445
Vtype
p2446
VWindows 7 Professional
p2447
sVinstallDate
p2448
V2011-08-31 11:07:00.000
p2449
ssVQUK714-POS1
p2450
(dp2451
Vtype
p2452
VWindows 7 Professional
p2453
sVinstallDate
p2454
V2012-02-22 16:38:00.000
p2455
ssVABC229-POS2
p2456
(dp2457
Vtype
p2458
VWindows 7 Professional
p2459
sVinstallDate
p2460
V2014-02-18 09:11:00.000
p2461
ssVMLH060-POS1
p2462
(dp2463
Vtype
p2464
VWindows XP Professional
p2465
sVinstallDate
p2466
V2008-06-26 14:23:00.000
p2467
ssVGLE085-POS1
p2468
(dp2469
Vtype
p2470
VWindows 7 Professional
p2471
sVinstallDate
p2472
V2011-08-31 11:07:00.000
p2473
ssVABC004-POS1
p2474
(dp2475
Vtype
p2476
VWindows 7 Professional
p2477
sVinstallDate
p2478
V2011-08-31 11:07:00.000
p2479
ssVABC079-W1
p2480
(dp2481
Vtype
p2482
VWindows 7 Professional
p2483
sVinstallDate
p2484
V2011-08-31 11:07:00.000
p2485
ssVGOT004-S
p2486
(dp2487
Vtype
p2488
NsVinstallDate
p2489
NssVMLH004-POS3
p2490
(dp2491
Vtype
p2492
VWindows 7 Professional
p2493
sVinstallDate
p2494
V2011-08-31 11:07:00.000
p2495
ssVSHH001-POS1
p2496
(dp2497
Vtype
p2498
VWindows 7 Professional
p2499
sVinstallDate
p2500
V2012-02-22 16:38:00.000
p2501
ssVSHH001-POS2
p2502
(dp2503
Vtype
p2504
VWindows 7 Professional
p2505
sVinstallDate
p2506
V2012-02-22 16:38:00.000
p2507
ssVABC002-POS1
p2508
(dp2509
Vtype
p2510
VWindows 7 Professional
p2511
sVinstallDate
p2512
V2011-08-31 11:07:00.000
p2513
ssVTIS011-POS1
p2514
(dp2515
Vtype
p2516
VWindows 7 Professional
p2517
sVinstallDate
p2518
V2011-08-31 11:07:00.000
p2519
ssVQUK196-POS1
p2520
(dp2521
Vtype
p2522
VWindows 7 Professional
p2523
sVinstallDate
p2524
V2011-08-31 11:07:00.000
p2525
ssVSPN200-S
p2526
(dp2527
Vtype
p2528
VWindows XP Professional
p2529
sVinstallDate
p2530
V2007-05-15 15:50:00.000
p2531
ssVGMC048-POS1
p2532
(dp2533
Vtype
p2534
VWindows 7 Professional
p2535
sVinstallDate
p2536
V2011-08-31 11:07:00.000
p2537
ssVABC228-S
p2538
(dp2539
Vtype
p2540
VWindows 7 Professional
p2541
sVinstallDate
p2542
V2011-08-31 11:07:00.000
p2543
ssVQUK158-POS1
p2544
(dp2545
Vtype
p2546
VWindows 7 Professional
p2547
sVinstallDate
p2548
V2011-08-31 11:07:00.000
p2549
ssVMNH040-S
p2550
(dp2551
Vtype
p2552
VWindows XP Professional
p2553
sVinstallDate
p2554
V2008-06-26 14:23:00.000
p2555
ssVRPD076-POS1
p2556
(dp2557
Vtype
p2558
VWindows 7 Professional
p2559
sVinstallDate
p2560
V2011-08-31 11:07:00.000
p2561
ssVINT200-POS1
p2562
(dp2563
Vtype
p2564
VWindows 7 Professional
p2565
sVinstallDate
p2566
V2012-02-22 16:38:00.000
p2567
ssVCPS006-S
p2568
(dp2569
Vtype
p2570
VWindows 7 Professional
p2571
sVinstallDate
p2572
V2011-08-31 11:07:00.000
p2573
ssVABC084-S
p2574
(dp2575
Vtype
p2576
VWindows 7 Professional
p2577
sVinstallDate
p2578
V2011-08-31 11:07:00.000
p2579
ssVMLH111-POS1
p2580
(dp2581
Vtype
p2582
VWindows XP Professional
p2583
sVinstallDate
p2584
V2008-06-26 14:23:00.000
p2585
ssVMLH111-POS2
p2586
(dp2587
Vtype
p2588
VWindows XP Professional
p2589
sVinstallDate
p2590
V2008-06-26 14:23:00.000
p2591
ssVOPI040-POS1
p2592
(dp2593
Vtype
p2594
VWindows 7 Professional
p2595
sVinstallDate
p2596
V2012-02-22 16:38:00.000
p2597
ssVMLH160-POS1
p2598
(dp2599
Vtype
p2600
VWindows 7 Professional
p2601
sVinstallDate
p2602
V2011-08-31 11:07:00.000
p2603
ssVABC027-S
p2604
(dp2605
Vtype
p2606
VWindows 7 Professional
p2607
sVinstallDate
p2608
V2011-08-31 11:07:00.000
p2609
ssVABC073-S
p2610
(dp2611
Vtype
p2612
VWindows 7 Professional
p2613
sVinstallDate
p2614
V2011-08-31 11:07:00.000
p2615
ssVINT502-POS1
p2616
(dp2617
Vtype
p2618
VWindows 7 Professional
p2619
sVinstallDate
p2620
V2011-08-31 11:07:00.000
p2621
ssVABC247-POS1
p2622
(dp2623
Vtype
p2624
VWindows 7 Professional
p2625
sVinstallDate
p2626
V2012-11-19 13:36:00.000
p2627
ssVMLH053-POS1
p2628
(dp2629
Vtype
p2630
VWindows XP Professional
p2631
sVinstallDate
p2632
V2008-07-22 07:51:00.000
p2633
ssVMLH019-POS2
p2634
(dp2635
Vtype
p2636
VWindows 7 Professional
p2637
sVinstallDate
p2638
V2011-08-31 11:07:00.000
p2639
ssVMLH019-POS1
p2640
(dp2641
Vtype
p2642
VWindows 7 Professional
p2643
sVinstallDate
p2644
V2011-08-31 11:07:00.000
p2645
ssVMLH053-POS2
p2646
(dp2647
Vtype
p2648
VWindows XP Professional
p2649
sVinstallDate
p2650
V2008-07-22 07:51:00.000
p2651
ssVQUK708-POS1
p2652
(dp2653
Vtype
p2654
VWindows 7 Professional
p2655
sVinstallDate
p2656
V2011-08-31 11:07:00.000
p2657
ssVGMC086-POS1
p2658
(dp2659
Vtype
p2660
VWindows 7 Professional
p2661
sVinstallDate
p2662
V2011-08-31 11:07:00.000
p2663
ssVMLH076-POS1
p2664
(dp2665
Vtype
p2666
VWindows XP Professional
p2667
sVinstallDate
p2668
V2008-06-26 14:23:00.000
p2669
ssVMLH076-POS2
p2670
(dp2671
Vtype
p2672
VWindows XP Professional
p2673
sVinstallDate
p2674
V2008-06-26 14:23:00.000
p2675
ssVABC054-S
p2676
(dp2677
Vtype
p2678
VWindows 7 Professional
p2679
sVinstallDate
p2680
V2011-08-31 11:07:00.000
p2681
ssVABC062-S
p2682
(dp2683
Vtype
p2684
VWindows 7 Professional
p2685
sVinstallDate
p2686
V2011-08-31 11:07:00.000
p2687
ssVQUK012-POS1
p2688
(dp2689
Vtype
p2690
VWindows 7 Professional
p2691
sVinstallDate
p2692
V2015-02-02 16:25:00.000
p2693
ssVKIN009-POS1
p2694
(dp2695
Vtype
p2696
VWindows 7 Professional
p2697
sVinstallDate
p2698
V2011-08-31 11:07:00.000
p2699
ssVTSQ010-W1
p2700
(dp2701
Vtype
p2702
VWindows 7 Professional
p2703
sVinstallDate
p2704
V2010-02-02 10:15:00.000
p2705
ssVMLH032-POS1
p2706
(dp2707
Vtype
p2708
VWindows XP Professional
p2709
sVinstallDate
p2710
V2008-07-22 07:51:00.000
p2711
ssVMLH032-POS2
p2712
(dp2713
Vtype
p2714
VWindows XP Professional
p2715
sVinstallDate
p2716
V2008-07-22 07:51:00.000
p2717
ssVMLH032-POS3
p2718
(dp2719
Vtype
p2720
VWindows XP Professional
p2721
sVinstallDate
p2722
V2008-07-22 07:51:00.000
p2723
ssVMLH071-POS1
p2724
(dp2725
Vtype
p2726
VWindows XP Professional
p2727
sVinstallDate
p2728
V2008-06-26 14:23:00.000
p2729
ssVGMC084-S
p2730
(dp2731
Vtype
p2732
VWindows 7 Professional
p2733
sVinstallDate
p2734
V2011-08-31 11:07:00.000
p2735
ssVABC065-S
p2736
(dp2737
Vtype
p2738
VWindows 7 Professional
p2739
sVinstallDate
p2740
V2011-08-31 11:07:00.000
p2741
ssVSYL011-S
p2742
(dp2743
Vtype
p2744
VWindows 7 Professional
p2745
sVinstallDate
p2746
V2011-08-31 11:07:00.000
p2747
ssVMLH016-POS2
p2748
(dp2749
Vtype
p2750
VWindows XP Professional
p2751
sVinstallDate
p2752
V2008-06-26 14:23:00.000
p2753
ssVRPD061-POS2
p2754
(dp2755
Vtype
p2756
VWindows 7 Professional
p2757
sVinstallDate
p2758
V2011-08-31 11:07:00.000
p2759
ssVRPD061-POS1
p2760
(dp2761
Vtype
p2762
VWindows 7 Professional
p2763
sVinstallDate
p2764
V2011-08-31 11:07:00.000
p2765
ssVMLH016-POS1
p2766
(dp2767
Vtype
p2768
VWindows XP Professional
p2769
sVinstallDate
p2770
V2008-06-26 14:23:00.000
p2771
ssVMLH765-POS1
p2772
(dp2773
Vtype
p2774
VWindows 7 Professional
p2775
sVinstallDate
p2776
V2011-08-31 11:07:00.000
p2777
ssVABC083-S
p2778
(dp2779
Vtype
p2780
VWindows 7 Professional
p2781
sVinstallDate
p2782
V2011-08-31 11:07:00.000
p2783
ssVMLH094-POS1
p2784
(dp2785
Vtype
p2786
VWindows XP Professional
p2787
sVinstallDate
p2788
V2008-06-26 14:23:00.000
p2789
ssVMLH094-POS2
p2790
(dp2791
Vtype
p2792
VWindows XP Professional
p2793
sVinstallDate
p2794
V2008-06-26 14:23:00.000
p2795
ssVQUK101-POS1
p2796
(dp2797
Vtype
p2798
VWindows 7 Professional
p2799
sVinstallDate
p2800
V2011-08-31 11:07:00.000
p2801
ssVABC099-S
p2802
(dp2803
Vtype
p2804
VWindows 7 Professional
p2805
sVinstallDate
p2806
V2011-08-31 11:07:00.000
p2807
ssVRPD004-S
p2808
(dp2809
Vtype
p2810
VWindows 7 Professional
p2811
sVinstallDate
p2812
V2011-08-31 11:07:00.000
p2813
ssVMNH054-POS1
p2814
(dp2815
Vtype
p2816
VWindows 7 Professional
p2817
sVinstallDate
p2818
V2011-08-31 11:07:00.000
p2819
ssVMLH088-POS1
p2820
(dp2821
Vtype
p2822
VWindows XP Professional
p2823
sVinstallDate
p2824
V2008-06-26 14:23:00.000
p2825
ssVMLHOFFICE-2016
p2826
(dp2827
Vtype
p2828
VWindows 7 Home Premium x64 Edition
p2829
sVinstallDate
p2830
V2013-01-18 10:08:00.000
p2831
ssVMLH260-POS1
p2832
(dp2833
Vtype
p2834
VWindows 7 Professional
p2835
sVinstallDate
p2836
V2011-08-31 11:07:00.000
p2837
ssV_TroyPC
p2838
(dp2839
Vtype
p2840
VWindows 7 Professional
p2841
sVinstallDate
p2842
V2014-04-04 07:30:00.000
p2843
ssVQUK028-POS1
p2844
(dp2845
Vtype
p2846
VWindows 7 Professional
p2847
sVinstallDate
p2848
V2011-08-31 11:07:00.000
p2849
ssVQUK088-POS1
p2850
(dp2851
Vtype
p2852
NsVinstallDate
p2853
NssVQUK038-POS1
p2854
(dp2855
Vtype
p2856
VWindows 7 Professional
p2857
sVinstallDate
p2858
V2015-02-02 16:25:00.000
p2859
ssVSYL031-POS1
p2860
(dp2861
Vtype
p2862
VWindows 7 Professional
p2863
sVinstallDate
p2864
V2011-08-31 11:07:00.000
p2865
ssVMLH768-POS1
p2866
(dp2867
Vtype
p2868
VWindows XP Professional
p2869
sVinstallDate
p2870
V2008-06-26 14:23:00.000
p2871
ssVRPD100-POS1
p2872
(dp2873
Vtype
p2874
VWindows 7 Professional
p2875
sVinstallDate
p2876
V2011-08-31 11:07:00.000
p2877
ssVTSQ002-W1
p2878
(dp2879
Vtype
p2880
VWindows 7 Professional
p2881
sVinstallDate
p2882
V2011-08-31 11:07:00.000
p2883
ssVABC129-POS1
p2884
(dp2885
Vtype
p2886
VWindows 7 Professional
p2887
sVinstallDate
p2888
V2014-02-18 09:11:00.000
p2889
ssVMLH024-POS1
p2890
(dp2891
Vtype
p2892
VWindows 7 Professional
p2893
sVinstallDate
p2894
V2011-08-31 11:07:00.000
p2895
ssVGMC044-S
p2896
(dp2897
Vtype
p2898
VWindows 7 Professional
p2899
sVinstallDate
p2900
V2011-08-31 11:07:00.000
p2901
ssVGLE075-POS1
p2902
(dp2903
Vtype
p2904
VWindows 7 Professional
p2905
sVinstallDate
p2906
V2011-08-31 11:07:00.000
p2907
ssVABC061-S
p2908
(dp2909
Vtype
p2910
VWindows 7 Professional
p2911
sVinstallDate
p2912
V2011-08-31 11:07:00.000
p2913
ssV_JohnPC
p2914
(dp2915
Vtype
p2916
VWindows 7 Professional
p2917
sVinstallDate
p2918
V2013-08-12 16:52:00.000
p2919
ssVINT018-S
p2920
(dp2921
Vtype
p2922
VWindows 7 Professional
p2923
sVinstallDate
p2924
V2010-02-02 10:15:00.000
p2925
ssVMLH084-POS1
p2926
(dp2927
Vtype
p2928
VWindows 7 Professional
p2929
sVinstallDate
p2930
V2011-08-31 11:07:00.000
p2931
ssVTIS008-POS1
p2932
(dp2933
Vtype
p2934
VWindows 7 Professional
p2935
sVinstallDate
p2936
V2011-08-31 11:07:00.000
p2937
ssVQUK250-S
p2938
(dp2939
Vtype
p2940
VWindows 7 Professional
p2941
sVinstallDate
p2942
V2011-08-31 11:07:00.000
p2943
ssVMLH084-POS2
p2944
(dp2945
Vtype
p2946
VWindows 7 Professional
p2947
sVinstallDate
p2948
V2011-08-31 11:07:00.000
p2949
ssVABC080-S
p2950
(dp2951
Vtype
p2952
VWindows 7 Professional
p2953
sVinstallDate
p2954
V2011-08-31 11:07:00.000
p2955
ssVGLE088-POS1
p2956
(dp2957
Vtype
p2958
VWindows 7 Professional
p2959
sVinstallDate
p2960
V2011-08-31 11:07:00.000
p2961
ssVQUK055-POS1
p2962
(dp2963
Vtype
p2964
VWindows 7 Professional
p2965
sVinstallDate
p2966
V2011-08-31 11:07:00.000
p2967
ssVABC029-POS1
p2968
(dp2969
Vtype
p2970
VWindows 7 Professional
p2971
sVinstallDate
p2972
V2014-02-18 09:11:00.000
p2973
ssVQUK586-POS1
p2974
(dp2975
Vtype
p2976
VWindows 7 Professional
p2977
sVinstallDate
p2978
V2011-08-31 11:07:00.000
p2979
ssVPAT002-POS1
p2980
(dp2981
Vtype
p2982
VWindows 7 Professional
p2983
sVinstallDate
p2984
V2011-08-31 11:07:00.000
p2985
ssVMLH770-POS2
p2986
(dp2987
Vtype
p2988
VWindows 7 Professional
p2989
sVinstallDate
p2990
V2011-08-31 11:07:00.000
p2991
ssVMLH770-POS1
p2992
(dp2993
Vtype
p2994
VWindows 7 Professional
p2995
sVinstallDate
p2996
V2011-08-31 11:07:00.000
p2997
ssVQUK041-POS1
p2998
(dp2999
Vtype
p3000
VWindows 7 Professional
p3001
sVinstallDate
p3002
V2011-08-31 11:07:00.000
p3003
ssVQUK624-POS1
p3004
(dp3005
Vtype
p3006
VWindows 7 Professional
p3007
sVinstallDate
p3008
V2015-02-02 16:25:00.000
p3009
ssVMLH077-POS2
p3010
(dp3011
Vtype
p3012
VWindows XP Professional
p3013
sVinstallDate
p3014
V2008-06-26 14:23:00.000
p3015
ssVMLH077-POS1
p3016
(dp3017
Vtype
p3018
VWindows XP Professional
p3019
sVinstallDate
p3020
V2008-06-26 14:23:00.000
p3021
ssVMLH062-POS1
p3022
(dp3023
Vtype
p3024
VWindows XP Professional
p3025
sVinstallDate
p3026
V2008-06-26 14:23:00.000
p3027
ssVMLH062-POS2
p3028
(dp3029
Vtype
p3030
VWindows 7 Professional
p3031
sVinstallDate
p3032
V2011-08-31 11:07:00.000
p3033
ssVABC088-S
p3034
(dp3035
Vtype
p3036
VWindows 7 Professional
p3037
sVinstallDate
p3038
V2011-08-31 11:07:00.000
p3039
ssVMLH086-POS1
p3040
(dp3041
Vtype
p3042
VWindows XP Professional
p3043
sVinstallDate
p3044
V2008-06-26 14:23:00.000
p3045
ssVSYL016-S
p3046
(dp3047
Vtype
p3048
VWindows XP Professional
p3049
sVinstallDate
p3050
V2008-06-26 14:23:00.000
p3051
ssVABC237-POS1
p3052
(dp3053
Vtype
p3054
VWindows 7 Professional
p3055
sVinstallDate
p3056
V2014-02-18 09:11:00.000
p3057
ssVGLE072-POS1
p3058
(dp3059
Vtype
p3060
VWindows 7 Professional
p3061
sVinstallDate
p3062
V2011-08-31 11:07:00.000
p3063
ssVQUK049-POS2
p3064
(dp3065
Vtype
p3066
VWindows 7 Professional
p3067
sVinstallDate
p3068
V2014-02-18 09:11:00.000
p3069
ssVRPD083-S
p3070
(dp3071
Vtype
p3072
VWindows 7 Professional
p3073
sVinstallDate
p3074
V2011-08-31 11:07:00.000
p3075
ssVSYL015-S
p3076
(dp3077
Vtype
p3078
VWindows 7 Professional
p3079
sVinstallDate
p3080
V2011-08-31 11:07:00.000
p3081
ssVQUK049-POS1
p3082
(dp3083
Vtype
p3084
VWindows 7 Professional
p3085
sVinstallDate
p3086
V2014-02-18 09:11:00.000
p3087
ssVRPD079-POS1
p3088
(dp3089
Vtype
p3090
VWindows 7 Professional
p3091
sVinstallDate
p3092
V2011-08-31 11:07:00.000
p3093
ssVVPN003-S
p3094
(dp3095
Vtype
p3096
VWindows XP Professional
p3097
sVinstallDate
p3098
NssVVPN004-S
p3099
(dp3100
Vtype
p3101
VWindows XP Professional
p3102
sVinstallDate
p3103
V2008-07-22 07:51:00.000
p3104
ssVOPI001-POS1
p3105
(dp3106
Vtype
p3107
VWindows 7 Professional
p3108
sVinstallDate
p3109
V2014-02-18 09:11:00.000
p3110
ssV_NickPC
p3111
(dp3112
Vtype
p3113
VWindows 7 Professional
p3114
sVinstallDate
p3115
V2013-08-12 16:52:00.000
p3116
ssVOPI001-POS2
p3117
(dp3118
Vtype
p3119
VWindows 7 Professional
p3120
sVinstallDate
p3121
V2014-02-18 09:11:00.000
p3122
ssVKIN077-POS1
p3123
(dp3124
Vtype
p3125
VWindows 7 Professional
p3126
sVinstallDate
p3127
V2011-08-31 11:07:00.000
p3128
ssVGMC022-POS1
p3129
(dp3130
Vtype
p3131
VWindows 7 Professional
p3132
sVinstallDate
p3133
V2011-08-31 11:07:00.000
p3134
ssVSYL001-W1
p3135
(dp3136
Vtype
p3137
VWindows 7 Professional
p3138
sVinstallDate
p3139
V2011-08-31 11:07:00.000
p3140
ssVCPS031-S
p3141
(dp3142
Vtype
p3143
VWindows 7 Professional
p3144
sVinstallDate
p3145
V2011-08-31 11:07:00.000
p3146
ssVAMP001-W1
p3147
(dp3148
Vtype
p3149
VWindows 7 Professional
p3150
sVinstallDate
p3151
V2012-02-22 16:38:00.000
p3152
ssVABC256-POS1
p3153
(dp3154
Vtype
p3155
VWindows 7 Professional
p3156
sVinstallDate
p3157
V2012-02-22 16:38:00.000
p3158
ssVSEL200-S
p3159
(dp3160
Vtype
p3161
NsVinstallDate
p3162
NssVQUK485-POS1
p3163
(dp3164
Vtype
p3165
VWindows 7 Professional
p3166
sVinstallDate
p3167
V2011-08-31 11:07:00.000
p3168
ssVQUK062-POS1
p3169
(dp3170
Vtype
p3171
VWindows 7 Professional
p3172
sVinstallDate
p3173
V2015-02-02 16:25:00.000
p3174
ssVQUK099-POS1
p3175
(dp3176
Vtype
p3177
VWindows 7 Professional
p3178
sVinstallDate
p3179
V2011-08-31 11:07:00.000
p3180
ssVABC246-S
p3181
(dp3182
Vtype
p3183
VWindows 7 Professional
p3184
sVinstallDate
p3185
V2011-08-31 11:07:00.000
p3186
ssVQUK095-POS2
p3187
(dp3188
Vtype
p3189
VWindows 7 Professional
p3190
sVinstallDate
p3191
V2011-08-31 11:07:00.000
p3192
ssVQUK095-POS1
p3193
(dp3194
Vtype
p3195
VWindows 7 Professional
p3196
sVinstallDate
p3197
V2011-08-31 11:07:00.000
p3198
ssVMLH020-POS2
p3199
(dp3200
Vtype
p3201
VWindows 7 Professional
p3202
sVinstallDate
p3203
V2011-08-31 11:07:00.000
p3204
ssVMLH020-POS1
p3205
(dp3206
Vtype
p3207
VWindows 7 Professional
p3208
sVinstallDate
p3209
V2011-08-31 11:07:00.000
p3210
ssVMLH104-POS1
p3211
(dp3212
Vtype
p3213
VWindows 7 Professional
p3214
sVinstallDate
p3215
V2011-08-31 11:07:00.000
p3216
ssVMLH056-POS2
p3217
(dp3218
Vtype
p3219
VWindows 7 Professional
p3220
sVinstallDate
p3221
V2010-12-01 15:12:00.000
p3222
ssVMLH759-POS1
p3223
(dp3224
Vtype
p3225
VWindows 7 Professional
p3226
sVinstallDate
p3227
V2012-02-22 16:38:00.000
p3228
ssVEZP001-S
p3229
(dp3230
Vtype
p3231
VWindows XP Professional
p3232
sVinstallDate
p3233
V2008-06-26 14:23:00.000
p3234
ssVKIN150-POS1
p3235
(dp3236
Vtype
p3237
VWindows 7 Professional
p3238
sVinstallDate
p3239
V2011-08-31 11:07:00.000
p3240
ssVQUK089-POS1
p3241
(dp3242
Vtype
p3243
VWindows 7 Professional
p3244
sVinstallDate
p3245
V2011-08-31 11:07:00.000
p3246
ssVABC254-POS1
p3247
(dp3248
Vtype
p3249
VWindows 7 Professional
p3250
sVinstallDate
p3251
V2012-02-22 16:38:00.000
p3252
ssVQUK742-POS1
p3253
(dp3254
Vtype
p3255
VWindows 7 Professional
p3256
sVinstallDate
p3257
V2012-02-22 16:38:00.000
p3258
ssVMLH022-POS1
p3259
(dp3260
Vtype
p3261
VWindows 7 Professional
p3262
sVinstallDate
p3263
V2011-08-31 11:07:00.000
p3264
ssVMLH043-POS1
p3265
(dp3266
Vtype
p3267
VWindows XP Professional
p3268
sVinstallDate
p3269
V2008-06-26 14:23:00.000
p3270
ssVMLH718-POS1
p3271
(dp3272
Vtype
p3273
VWindows XP Professional
p3274
sVinstallDate
p3275
V2008-06-26 14:23:00.000
p3276
ssVMLH762-POS1
p3277
(dp3278
Vtype
p3279
VWindows 7 Professional
p3280
sVinstallDate
p3281
V2012-02-22 16:38:00.000
p3282
ssVMLH721-POS1
p3283
(dp3284
Vtype
p3285
VWindows 7 Professional
p3286
sVinstallDate
p3287
V2011-08-31 11:07:00.000
p3288
ssVMLH043-POS2
p3289
(dp3290
Vtype
p3291
VWindows XP Professional
p3292
sVinstallDate
p3293
V2008-06-26 14:23:00.000
p3294
ssVMLH012-POS1
p3295
(dp3296
Vtype
p3297
VWindows 7 Professional
p3298
sVinstallDate
p3299
V2011-08-31 11:07:00.000
p3300
ssVMLH090-POS1
p3301
(dp3302
Vtype
p3303
VWindows XP Professional
p3304
sVinstallDate
p3305
V2008-07-22 07:51:00.000
p3306
ssVMLH090-POS2
p3307
(dp3308
Vtype
p3309
VWindows XP Professional
p3310
sVinstallDate
p3311
V2008-07-22 07:51:00.000
p3312
ssVGMC052-POS1
p3313
(dp3314
Vtype
p3315
VWindows 7 Professional
p3316
sVinstallDate
p3317
V2011-08-31 11:07:00.000
p3318
ssVABC068-S
p3319
(dp3320
Vtype
p3321
VWindows 7 Professional
p3322
sVinstallDate
p3323
V2011-08-31 11:07:00.000
p3324
ssVMLH063-POS1
p3325
(dp3326
Vtype
p3327
VWindows 7 Professional
p3328
sVinstallDate
p3329
V2011-08-31 11:07:00.000
p3330
ssVMLH054-POS1
p3331
(dp3332
Vtype
p3333
VWindows 7 Professional
p3334
sVinstallDate
p3335
V2011-08-31 11:07:00.000
p3336
ssVABC010-POS1
p3337
(dp3338
Vtype
p3339
VWindows 7 Professional
p3340
sVinstallDate
p3341
V2011-08-31 11:07:00.000
p3342
ssVMLH056-POS1
p3343
(dp3344
Vtype
p3345
VWindows 7 Professional
p3346
sVinstallDate
p3347
V2010-12-01 15:12:00.000
p3348
ssVQUK086-POS1
p3349
(dp3350
Vtype
p3351
VWindows 7 Professional
p3352
sVinstallDate
p3353
V2015-02-02 16:25:00.000
p3354
ssVABC259-POS1
p3355
(dp3356
Vtype
p3357
VWindows 7 Professional
p3358
sVinstallDate
p3359
V2012-02-22 16:38:00.000
p3360
ssVABC063-S
p3361
(dp3362
Vtype
p3363
VWindows 7 Professional
p3364
sVinstallDate
p3365
V2011-08-31 11:07:00.000
p3366
ssVQUK236-POS1
p3367
(dp3368
Vtype
p3369
VWindows 7 Professional
p3370
sVinstallDate
p3371
V2011-08-31 11:07:00.000
p3372
ssVABC047-POS1
p3373
(dp3374
Vtype
p3375
VWindows 7 Professional
p3376
sVinstallDate
p3377
V2014-02-18 09:11:00.000
p3378
ssVMLH726-POS1
p3379
(dp3380
Vtype
p3381
VWindows 7 Professional
p3382
sVinstallDate
p3383
V2011-08-31 11:07:00.000
p3384
ssVMLH764-POS1
p3385
(dp3386
Vtype
p3387
VWindows XP Professional
p3388
sVinstallDate
p3389
V2008-06-26 14:23:00.000
p3390
ssVMLH723-POS1
p3391
(dp3392
Vtype
p3393
VWindows 7 Professional
p3394
sVinstallDate
p3395
V2011-08-31 11:07:00.000
p3396
ssVMLH711-POS1
p3397
(dp3398
Vtype
p3399
VWindows 7 Professional
p3400
sVinstallDate
p3401
V2011-08-31 11:07:00.000
p3402
ssVPPA010-S
p3403
(dp3404
Vtype
p3405
VWindows XP Professional
p3406
sVinstallDate
p3407
V2008-06-26 14:23:00.000
p3408
ssVRDN067-S
p3409
(dp3410
Vtype
p3411
VWindows 7 Professional
p3412
sVinstallDate
p3413
V2011-08-31 11:07:00.000
p3414
ssVMLH033-POS1
p3415
(dp3416
Vtype
p3417
VWindows 7 Professional
p3418
sVinstallDate
p3419
V2011-08-31 11:07:00.000
p3420
ssVOPI500-POS1
p3421
(dp3422
Vtype
p3423
VWindows XP Professional
p3424
sVinstallDate
p3425
NssVMAURICIO-WIN7-HOME
p3426
(dp3427
Vtype
p3428
VWindows 10 Pro x64 Edition
p3429
sVinstallDate
p3430
V2015-08-11 23:14:00.000
p3431
ssVMLH092-POS1
p3432
(dp3433
Vtype
p3434
VWindows 7 Professional
p3435
sVinstallDate
p3436
V2011-08-31 11:07:00.000
p3437
ssVMLH735-POS1
p3438
(dp3439
Vtype
p3440
VWindows 7 Professional
p3441
sVinstallDate
p3442
V2011-08-31 11:07:00.000
p3443
ssVABC212-POS1
p3444
(dp3445
Vtype
p3446
VWindows 7 Professional
p3447
sVinstallDate
p3448
V2014-02-18 09:11:00.000
p3449
ssVABC046-S
p3450
(dp3451
Vtype
p3452
VWindows 7 Professional
p3453
sVinstallDate
p3454
V2011-08-31 11:07:00.000
p3455
ssVPVP005-POS1
p3456
(dp3457
Vtype
p3458
VWindows 7 Professional
p3459
sVinstallDate
p3460
V2012-02-22 16:38:00.000
p3461
ssVKIN058-POS1
p3462
(dp3463
Vtype
p3464
VWindows 7 Professional
p3465
sVinstallDate
p3466
V2011-08-31 11:07:00.000
p3467
ssVQUK390-POS1
p3468
(dp3469
Vtype
p3470
VWindows 7 Professional
p3471
sVinstallDate
p3472
V2011-08-31 11:07:00.000
p3473
ssVMLH036-POS1
p3474
(dp3475
Vtype
p3476
VWindows XP Professional
p3477
sVinstallDate
p3478
V2008-07-22 07:51:00.000
p3479
ssVGLE004-POS2
p3480
(dp3481
Vtype
p3482
VWindows 7 Professional
p3483
sVinstallDate
p3484
V2011-08-31 11:07:00.000
p3485
ssV_UltraPC-Test
p3486
(dp3487
Vtype
p3488
VWindows 7 Professional
p3489
sVinstallDate
p3490
V2011-08-31 11:07:00.000
p3491
ssVQUK635-POS1
p3492
(dp3493
Vtype
p3494
VWindows 7 Professional
p3495
sVinstallDate
p3496
V2011-08-31 11:07:00.000
p3497
ssVGLE004-POS1
p3498
(dp3499
Vtype
p3500
VWindows 7 Professional
p3501
sVinstallDate
p3502
V2011-08-31 11:07:00.000
p3503
ssVABC226-POS1
p3504
(dp3505
Vtype
p3506
VWindows 7 Professional
p3507
sVinstallDate
p3508
V2014-02-18 09:11:00.000
p3509
ssVQUK350-POS1
p3510
(dp3511
Vtype
p3512
VWindows 7 Professional
p3513
sVinstallDate
p3514
V2011-08-31 11:07:00.000
p3515
ssVGMC009-POS1
p3516
(dp3517
Vtype
p3518
VWindows 7 Professional
p3519
sVinstallDate
p3520
V2011-08-31 11:07:00.000
p3521
ssVGMC009-POS2
p3522
(dp3523
Vtype
p3524
VWindows 7 Professional
p3525
sVinstallDate
p3526
V2011-08-31 11:07:00.000
p3527
ssVGMC009-POS3
p3528
(dp3529
Vtype
p3530
VWindows 7 Professional
p3531
sVinstallDate
p3532
V2011-08-31 11:07:00.000
p3533
ssVCPS036-S
p3534
(dp3535
Vtype
p3536
VWindows 7 Professional
p3537
sVinstallDate
p3538
V2011-08-31 11:07:00.000
p3539
ssVIPK201-POS1
p3540
(dp3541
Vtype
p3542
VWindows 7 Professional
p3543
sVinstallDate
p3544
V2011-08-31 11:07:00.000
p3545
ssVMNH048-POS1
p3546
(dp3547
Vtype
p3548
VWindows 7 Professional
p3549
sVinstallDate
p3550
V2011-08-31 11:07:00.000
p3551
ssVMLH075-POS1
p3552
(dp3553
Vtype
p3554
VWindows XP Professional
p3555
sVinstallDate
p3556
V2008-07-22 07:51:00.000
p3557
ssVMLH075-POS2
p3558
(dp3559
Vtype
p3560
VWindows XP Professional
p3561
sVinstallDate
p3562
V2008-07-22 07:51:00.000
p3563
ssVABC097-W1
p3564
(dp3565
Vtype
p3566
VWindows 7 Professional
p3567
sVinstallDate
p3568
V2011-08-31 11:07:00.000
p3569
ssVGMC006-POS1
p3570
(dp3571
Vtype
p3572
VWindows 7 Professional
p3573
sVinstallDate
p3574
V2011-08-31 11:07:00.000
p3575
ssVRDN280-S
p3576
(dp3577
Vtype
p3578
VWindows 7 Professional
p3579
sVinstallDate
p3580
V2011-08-31 11:07:00.000
p3581
ssVCPS014-S
p3582
(dp3583
Vtype
p3584
VWindows 7 Professional
p3585
sVinstallDate
p3586
V2011-08-31 11:07:00.000
p3587
ssVABC034-POS1
p3588
(dp3589
Vtype
p3590
VWindows 7 Professional
p3591
sVinstallDate
p3592
V2011-08-31 11:07:00.000
p3593
ssVSEL400-S
p3594
(dp3595
Vtype
p3596
VWindows XP Professional
p3597
sVinstallDate
p3598
V2007-05-15 15:50:00.000
p3599
ssVKIN034-POS1
p3600
(dp3601
Vtype
p3602
VWindows 7 Professional
p3603
sVinstallDate
p3604
V2011-08-31 11:07:00.000
p3605
ssVKIN038-POS1
p3606
(dp3607
Vtype
p3608
VWindows 7 Professional
p3609
sVinstallDate
p3610
V2011-08-31 11:07:00.000
p3611
ssVKIN038-POS2
p3612
(dp3613
Vtype
p3614
VWindows 7 Professional
p3615
sVinstallDate
p3616
V2011-08-31 11:07:00.000
p3617
ssVMLH028-POS1
p3618
(dp3619
Vtype
p3620
VWindows 7 Professional
p3621
sVinstallDate
p3622
V2011-08-31 11:07:00.000
p3623
ssVMLH036-POS2
p3624
(dp3625
Vtype
p3626
VWindows XP Professional
p3627
sVinstallDate
p3628
V2008-07-22 07:51:00.000
p3629
ssVCCP001-S
p3630
(dp3631
Vtype
p3632
VWindows 7 Professional
p3633
sVinstallDate
p3634
V2010-02-02 10:15:00.000
p3635
ssVMNH165-POS1
p3636
(dp3637
Vtype
p3638
VWindows 7 Professional
p3639
sVinstallDate
p3640
V2011-08-31 11:07:00.000
p3641
ssVQUK710-POS1
p3642
(dp3643
Vtype
p3644
VWindows 7 Professional
p3645
sVinstallDate
p3646
V2011-08-31 11:07:00.000
p3647
ssVABC082-S
p3648
(dp3649
Vtype
p3650
VWindows 7 Professional
p3651
sVinstallDate
p3652
V2011-08-31 11:07:00.000
p3653
ssVMLH012-POS2
p3654
(dp3655
Vtype
p3656
VWindows 7 Professional
p3657
sVinstallDate
p3658
V2011-08-31 11:07:00.000
p3659
ssVKIN063-POS1
p3660
(dp3661
Vtype
p3662
VWindows 7 Professional
p3663
sVinstallDate
p3664
V2011-08-31 11:07:00.000
p3665
ssVRPD055-S
p3666
(dp3667
Vtype
p3668
VWindows 7 Professional
p3669
sVinstallDate
p3670
V2011-08-31 11:07:00.000
p3671
ssVMNH012-POS1
p3672
(dp3673
Vtype
p3674
VWindows 7 Professional
p3675
sVinstallDate
p3676
V2011-08-31 11:07:00.000
p3677
ssVABC227-POS1
p3678
(dp3679
Vtype
p3680
VWindows 7 Professional
p3681
sVinstallDate
p3682
V2014-02-18 09:11:00.000
p3683
ssVGMC067-POS1
p3684
(dp3685
Vtype
p3686
VWindows 7 Professional
p3687
sVinstallDate
p3688
V2011-08-31 11:07:00.000
p3689
ssVAMP001-S
p3690
(dp3691
Vtype
p3692
VWindows 7 Professional
p3693
sVinstallDate
p3694
V2012-02-22 16:38:00.000
p3695
ssVCPS034-S
p3696
(dp3697
Vtype
p3698
VWindows 7 Professional
p3699
sVinstallDate
p3700
V2011-08-31 11:07:00.000
p3701
ssVPRK415-S
p3702
(dp3703
Vtype
p3704
VWindows XP Professional
p3705
sVinstallDate
p3706
V2007-05-15 15:50:00.000
p3707
ssVMNH014-S
p3708
(dp3709
Vtype
p3710
VWindows XP Professional
p3711
sVinstallDate
p3712
V2007-05-15 15:50:00.000
p3713
ssVQUK010-POS1
p3714
(dp3715
Vtype
p3716
VWindows 7 Professional
p3717
sVinstallDate
p3718
V2011-08-31 11:07:00.000
p3719
ssVABC221-POS1
p3720
(dp3721
Vtype
p3722
VWindows 7 Professional
p3723
sVinstallDate
p3724
V2014-02-18 09:11:00.000
p3725
ssVGLE056-POS1
p3726
(dp3727
Vtype
p3728
VWindows 7 Professional
p3729
sVinstallDate
p3730
V2011-08-31 11:07:00.000
p3731
ssVQUK091-POS1
p3732
(dp3733
Vtype
p3734
VWindows 7 Professional
p3735
sVinstallDate
p3736
V2011-08-31 11:07:00.000
p3737
ssVABC224-S
p3738
(dp3739
Vtype
p3740
VWindows 7 Professional
p3741
sVinstallDate
p3742
V2011-08-31 11:07:00.000
p3743
ssVGLE073-POS1
p3744
(dp3745
Vtype
p3746
VWindows 7 Professional
p3747
sVinstallDate
p3748
V2011-08-31 11:07:00.000
p3749
ssVQUK731-POS1
p3750
(dp3751
Vtype
p3752
VWindows 7 Professional
p3753
sVinstallDate
p3754
V2012-02-22 16:38:00.000
p3755
ssVSPN003-S
p3756
(dp3757
Vtype
p3758
VWindows 7 Professional
p3759
sVinstallDate
p3760
V2010-02-02 10:15:00.000
p3761
ssVRPD001-POS1
p3762
(dp3763
Vtype
p3764
VWindows 7 Professional
p3765
sVinstallDate
p3766
V2011-08-31 11:07:00.000
p3767
ssVSEL076-S
p3768
(dp3769
Vtype
p3770
VWindows XP Professional
p3771
sVinstallDate
p3772
V2008-05-29 15:39:00.000
p3773
ssVVPN007-POS1
p3774
(dp3775
Vtype
p3776
VWindows 7 Professional
p3777
sVinstallDate
p3778
V2014-02-18 09:11:00.000
p3779
ssVMLH704-POS1
p3780
(dp3781
Vtype
p3782
VWindows 7 Professional
p3783
sVinstallDate
p3784
V2011-08-31 11:07:00.000
p3785
ssVRGC015-S
p3786
(dp3787
Vtype
p3788
VWindows XP Professional
p3789
sVinstallDate
p3790
V2007-11-05 13:36:00.000
p3791
ssVABC065-POS1
p3792
(dp3793
Vtype
p3794
VWindows 7 Professional
p3795
sVinstallDate
p3796
V2011-08-31 11:07:00.000
p3797
ssVABC071-POS1
p3798
(dp3799
Vtype
p3800
VWindows 7 Professional
p3801
sVinstallDate
p3802
V2014-02-18 09:11:00.000
p3803
ssVRPD039-POS1
p3804
(dp3805
Vtype
p3806
VWindows 7 Professional
p3807
sVinstallDate
p3808
V2011-08-31 11:07:00.000
p3809
ssVQUK050-POS1
p3810
(dp3811
Vtype
p3812
VWindows 7 Professional
p3813
sVinstallDate
p3814
V2014-02-18 09:11:00.000
p3815
ssVPRK029-S
p3816
(dp3817
Vtype
p3818
VWindows XP Professional
p3819
sVinstallDate
p3820
V2008-06-26 14:23:00.000
p3821
ssVGLE091-POS1
p3822
(dp3823
Vtype
p3824
VWindows 7 Professional
p3825
sVinstallDate
p3826
V2011-08-31 11:07:00.000
p3827
ssVTIS005-POS1
p3828
(dp3829
Vtype
p3830
VWindows 7 Professional
p3831
sVinstallDate
p3832
V2011-08-31 11:07:00.000
p3833
ssVVPN005-POS1
p3834
(dp3835
Vtype
p3836
VWindows 7 Professional
p3837
sVinstallDate
p3838
V2012-02-22 16:38:00.000
p3839
ssVPRK077-S
p3840
(dp3841
Vtype
p3842
VWindows 7 Professional
p3843
sVinstallDate
p3844
V2011-08-31 11:07:00.000
p3845
ssVEXP001-W1
p3846
(dp3847
Vtype
p3848
VWindows XP Professional
p3849
sVinstallDate
p3850
V2008-07-22 07:51:00.000
p3851
ssVKIN010-POS1
p3852
(dp3853
Vtype
p3854
VWindows 7 Professional
p3855
sVinstallDate
p3856
V2011-08-31 11:07:00.000
p3857
ssVABC015-POS1
p3858
(dp3859
Vtype
p3860
VWindows 7 Professional
p3861
sVinstallDate
p3862
V2011-08-31 11:07:00.000
p3863
ssVMNH002-POS1
p3864
(dp3865
Vtype
p3866
VWindows 7 Professional
p3867
sVinstallDate
p3868
V2011-08-31 11:07:00.000
p3869
ssVMNH071-S
p3870
(dp3871
Vtype
p3872
VWindows 7 Professional
p3873
sVinstallDate
p3874
V2011-08-31 11:07:00.000
p3875
ssVABC087-POS1
p3876
(dp3877
Vtype
p3878
VWindows 7 Professional
p3879
sVinstallDate
p3880
V2014-02-18 09:11:00.000
p3881
ssVABC041-S
p3882
(dp3883
Vtype
p3884
VWindows 7 Professional
p3885
sVinstallDate
p3886
V2011-08-31 11:07:00.000
p3887
ssVSEL054-S
p3888
(dp3889
Vtype
p3890
VWindows XP Professional
p3891
sVinstallDate
p3892
V2008-06-26 14:23:00.000
p3893
ssVABC252-POS1
p3894
(dp3895
Vtype
p3896
VWindows 7 Professional
p3897
sVinstallDate
p3898
V2012-02-22 16:38:00.000
p3899
ssVGLE077-POS1
p3900
(dp3901
Vtype
p3902
VWindows 7 Professional
p3903
sVinstallDate
p3904
V2011-08-31 11:07:00.000
p3905
ssVMLH082-POS1
p3906
(dp3907
Vtype
p3908
VWindows 7 Professional
p3909
sVinstallDate
p3910
V2011-08-31 11:07:00.000
p3911
ssVMLH078-POS2
p3912
(dp3913
Vtype
p3914
VWindows XP Professional
p3915
sVinstallDate
p3916
V2008-06-26 14:23:00.000
p3917
ssVMNH004-POS1
p3918
(dp3919
Vtype
p3920
VWindows 7 Professional
p3921
sVinstallDate
p3922
V2011-08-31 11:07:00.000
p3923
ssVMLH078-POS1
p3924
(dp3925
Vtype
p3926
VWindows XP Professional
p3927
sVinstallDate
p3928
V2008-06-26 14:23:00.000
p3929
ssVABC009-POS1
p3930
(dp3931
Vtype
p3932
VWindows 7 Professional
p3933
sVinstallDate
p3934
V2014-02-18 09:11:00.000
p3935
ssVMLH051-POS2
p3936
(dp3937
Vtype
p3938
VWindows XP Professional
p3939
sVinstallDate
p3940
V2008-07-22 07:51:00.000
p3941
ssVMLH161-POS2
p3942
(dp3943
Vtype
p3944
VWindows 7 Professional
p3945
sVinstallDate
p3946
V2010-12-01 15:12:00.000
p3947
ssVMLH161-POS1
p3948
(dp3949
Vtype
p3950
VWindows 7 Professional
p3951
sVinstallDate
p3952
V2010-12-01 15:12:00.000
p3953
ssVABC222-POS1
p3954
(dp3955
Vtype
p3956
VWindows 7 Professional
p3957
sVinstallDate
p3958
V2012-02-22 16:38:00.000
p3959
ssVPPA030-S
p3960
(dp3961
Vtype
p3962
VWindows 7 Professional
p3963
sVinstallDate
p3964
V2012-02-22 16:38:00.000
p3965
ssVTSQ029-S
p3966
(dp3967
Vtype
p3968
VWindows 7 Professional
p3969
sVinstallDate
p3970
V2011-08-31 11:07:00.000
p3971
ssVABC017-POS1
p3972
(dp3973
Vtype
p3974
VWindows 7 Professional
p3975
sVinstallDate
p3976
V2011-08-31 11:07:00.000
p3977
ssVMLH257-POS3
p3978
(dp3979
Vtype
p3980
VWindows 7 Professional
p3981
sVinstallDate
p3982
V2011-08-31 11:07:00.000
p3983
ssVMLH257-POS2
p3984
(dp3985
Vtype
p3986
VWindows 7 Professional
p3987
sVinstallDate
p3988
V2011-08-31 11:07:00.000
p3989
ssVMLH257-POS1
p3990
(dp3991
Vtype
p3992
VWindows 7 Professional
p3993
sVinstallDate
p3994
V2011-08-31 11:07:00.000
p3995
ssVMLH004-POS1
p3996
(dp3997
Vtype
p3998
VWindows 7 Professional
p3999
sVinstallDate
p4000
V2011-08-31 11:07:00.000
p4001
ssVABC244-POS2
p4002
(dp4003
Vtype
p4004
VWindows 7 Professional
p4005
sVinstallDate
p4006
V2012-02-22 16:38:00.000
p4007
ssVMLH011-POS1
p4008
(dp4009
Vtype
p4010
VWindows 7 Professional
p4011
sVinstallDate
p4012
V2011-08-31 11:07:00.000
p4013
ssVMLH004-POS2
p4014
(dp4015
Vtype
p4016
VWindows 7 Professional
p4017
sVinstallDate
p4018
V2011-08-31 11:07:00.000
p4019
ssVMLH109-POS1
p4020
(dp4021
Vtype
p4022
VWindows 7 Professional
p4023
sVinstallDate
p4024
V2010-12-01 15:12:00.000
p4025
ssVQUK779-POS1
p4026
(dp4027
Vtype
p4028
VWindows 7 Professional
p4029
sVinstallDate
p4030
V2012-02-22 16:38:00.000
p4031
ssVMLH109-POS2
p4032
(dp4033
Vtype
p4034
VWindows 7 Professional
p4035
sVinstallDate
p4036
V2010-12-01 15:12:00.000
p4037
ssVMLH095-POS1
p4038
(dp4039
Vtype
p4040
VWindows XP Professional
p4041
sVinstallDate
p4042
V2008-07-22 07:51:00.000
p4043
ssVTSQ203-POS1
p4044
(dp4045
Vtype
p4046
VWindows 7 Professional
p4047
sVinstallDate
p4048
V2011-08-31 11:07:00.000
p4049
ssVABC244-POS1
p4050
(dp4051
Vtype
p4052
VWindows 7 Professional
p4053
sVinstallDate
p4054
V2012-02-22 16:38:00.000
p4055
ssVQUK808-POS1
p4056
(dp4057
Vtype
p4058
VWindows 7 Professional
p4059
sVinstallDate
p4060
V2011-08-31 11:07:00.000
p4061
ssVKIN015-POS1
p4062
(dp4063
Vtype
p4064
VWindows 7 Professional
p4065
sVinstallDate
p4066
V2011-08-31 11:07:00.000
p4067
ssVMNH055-POS1
p4068
(dp4069
Vtype
p4070
VWindows 7 Professional
p4071
sVinstallDate
p4072
V2011-08-31 11:07:00.000
p4073
ssVABC250-POS1
p4074
(dp4075
Vtype
p4076
VWindows 7 Professional
p4077
sVinstallDate
p4078
V2014-02-18 09:11:00.000
p4079
ssVMLH052-SERVER
p4080
(dp4081
Vtype
p4082
VWindows 7 Professional
p4083
sVinstallDate
p4084
V2012-02-22 16:38:00.000
p4085
ssVGLE001-POS1
p4086
(dp4087
Vtype
p4088
VWindows 7 Professional
p4089
sVinstallDate
p4090
V2011-08-31 11:07:00.000
p4091
ssVKIN040-POS2
p4092
(dp4093
Vtype
p4094
VWindows 7 Professional
p4095
sVinstallDate
p4096
V2011-08-31 11:07:00.000
p4097
ssVVFC001-POS1
p4098
(dp4099
Vtype
p4100
VWindows 7 Professional
p4101
sVinstallDate
p4102
V2015-02-02 16:25:00.000
p4103
ssVKIN040-POS1
p4104
(dp4105
Vtype
p4106
VWindows 7 Professional
p4107
sVinstallDate
p4108
V2011-08-31 11:07:00.000
p4109
ssVABC193-POS1
p4110
(dp4111
Vtype
p4112
VWindows 7 Professional
p4113
sVinstallDate
p4114
V2012-02-22 16:38:00.000
p4115
ssVTSQ204-S 
p4116
(dp4117
Vtype
p4118
VWindows 7 Professional
p4119
sVinstallDate
p4120
V2011-08-31 11:07:00.000
p4121
ssVSERVER_test
p4122
(dp4123
Vtype
p4124
VWindows XP Professional
p4125
sVinstallDate
p4126
V2008-06-26 14:23:00.000
p4127
ssVTIS001-POS1
p4128
(dp4129
Vtype
p4130
VWindows 7 Professional
p4131
sVinstallDate
p4132
V2011-08-31 11:07:00.000
p4133
ssVMLH155-POS1
p4134
(dp4135
Vtype
p4136
VWindows XP Professional
p4137
sVinstallDate
p4138
V2008-07-22 07:51:00.000
p4139
ssVMLH155-POS2
p4140
(dp4141
Vtype
p4142
VWindows XP Professional
p4143
sVinstallDate
p4144
V2008-07-22 07:51:00.000
p4145
ssVTIS006-POS2
p4146
(dp4147
Vtype
p4148
VWindows 7 Professional
p4149
sVinstallDate
p4150
V2011-08-31 11:07:00.000
p4151
ssVQUK712-POS1
p4152
(dp4153
Vtype
p4154
VWindows 7 Professional
p4155
sVinstallDate
p4156
V2011-08-31 11:07:00.000
p4157
ssVTIS006-POS1
p4158
(dp4159
Vtype
p4160
VWindows 7 Professional
p4161
sVinstallDate
p4162
V2011-08-31 11:07:00.000
p4163
ssVABC077-S
p4164
(dp4165
Vtype
p4166
VWindows 7 Professional
p4167
sVinstallDate
p4168
V2011-08-31 11:07:00.000
p4169
ssVRPD020-POS1
p4170
(dp4171
Vtype
p4172
VWindows 7 Professional
p4173
sVinstallDate
p4174
V2011-08-31 11:07:00.000
p4175
ssVQUK711-POS1
p4176
(dp4177
Vtype
p4178
VWindows 7 Professional
p4179
sVinstallDate
p4180
V2011-08-31 11:07:00.000
p4181
ssVTSQ201-POS2
p4182
(dp4183
Vtype
p4184
VWindows 7 Professional
p4185
sVinstallDate
p4186
V2011-08-31 11:07:00.000
p4187
ssVMLH233-POS1
p4188
(dp4189
Vtype
p4190
VWindows 7 Professional
p4191
sVinstallDate
p4192
V2011-08-31 11:07:00.000
p4193
ssVMLH666-POS1
p4194
(dp4195
Vtype
p4196
VWindows 7 Professional
p4197
sVinstallDate
p4198
V2011-08-31 11:07:00.000
p4199
ssVMLH709-POS1
p4200
(dp4201
Vtype
p4202
VWindows 7 Professional
p4203
sVinstallDate
p4204
V2011-08-31 11:07:00.000
p4205
ssVMLH233-POS2
p4206
(dp4207
Vtype
p4208
VWindows 7 Professional
p4209
sVinstallDate
p4210
V2011-08-31 11:07:00.000
p4211
ssVMLH740-POS1
p4212
(dp4213
Vtype
p4214
VWindows 7 Professional
p4215
sVinstallDate
p4216
V2011-08-31 11:07:00.000
p4217
ssVMLH769-POS1
p4218
(dp4219
Vtype
p4220
VWindows 7 Professional
p4221
sVinstallDate
p4222
V2011-08-31 11:07:00.000
p4223
ssVGLE002-POS2
p4224
(dp4225
Vtype
p4226
VWindows 7 Professional
p4227
sVinstallDate
p4228
V2011-08-31 11:07:00.000
p4229
ssVMLH729-POS1
p4230
(dp4231
Vtype
p4232
VWindows 7 Professional
p4233
sVinstallDate
p4234
V2011-08-31 11:07:00.000
p4235
ssVSEL001-S
p4236
(dp4237
Vtype
p4238
VWindows XP Professional
p4239
sVinstallDate
p4240
V2008-06-26 14:23:00.000
p4241
ssVMLH049-POS2
p4242
(dp4243
Vtype
p4244
VWindows 7 Professional
p4245
sVinstallDate
p4246
V2011-08-31 11:07:00.000
p4247
ssVMLH049-POS1
p4248
(dp4249
Vtype
p4250
VWindows 7 Professional
p4251
sVinstallDate
p4252
V2011-08-31 11:07:00.000
p4253
ssVSEL054-W1
p4254
(dp4255
Vtype
p4256
VWindows XP Professional
p4257
sVinstallDate
p4258
V2008-06-26 14:23:00.000
p4259
ssVQUK064-POS1
p4260
(dp4261
Vtype
p4262
VWindows 7 Professional
p4263
sVinstallDate
p4264
V2011-08-31 11:07:00.000
p4265
ssVCPS054-S
p4266
(dp4267
Vtype
p4268
VWindows 7 Professional
p4269
sVinstallDate
p4270
V2011-08-31 11:07:00.000
p4271
ssVAMP003-POS2
p4272
(dp4273
Vtype
p4274
VWindows 7 Professional
p4275
sVinstallDate
p4276
V2012-02-22 16:38:00.000
p4277
ssVAMP003-POS1
p4278
(dp4279
Vtype
p4280
VWindows 7 Professional
p4281
sVinstallDate
p4282
V2012-02-22 16:38:00.000
p4283
ssVMLH039-POS1
p4284
(dp4285
Vtype
p4286
VWindows 7 Professional
p4287
sVinstallDate
p4288
V2011-08-31 11:07:00.000
p4289
ssVQUK022-POS1
p4290
(dp4291
Vtype
p4292
VWindows 7 Professional
p4293
sVinstallDate
p4294
V2011-08-31 11:07:00.000
p4295
ssVTSQ045-S
p4296
(dp4297
Vtype
p4298
VWindows 7 Professional
p4299
sVinstallDate
p4300
V2011-08-31 11:07:00.000
p4301
ssVSEL333-POS1
p4302
(dp4303
Vtype
p4304
VWindows 7 Professional
p4305
sVinstallDate
p4306
V2011-08-31 11:07:00.000
p4307
ssVABC021-POS1
p4308
(dp4309
Vtype
p4310
VWindows 7 Professional
p4311
sVinstallDate
p4312
V2011-08-31 11:07:00.000
p4313
ssVQUK361-POS1
p4314
(dp4315
Vtype
p4316
VWindows 7 Professional
p4317
sVinstallDate
p4318
V2015-02-02 16:25:00.000
p4319
ssVSEL131-S
p4320
(dp4321
Vtype
p4322
VWindows XP Professional
p4323
sVinstallDate
p4324
V2008-06-26 14:23:00.000
p4325
ssVMLH014-POS2
p4326
(dp4327
Vtype
p4328
VWindows XP Professional
p4329
sVinstallDate
p4330
V2008-07-22 07:51:00.000
p4331
ssVINT009-POS1
p4332
(dp4333
Vtype
p4334
VWindows 7 Professional
p4335
sVinstallDate
p4336
V2012-02-22 16:38:00.000
p4337
ssVABC253-POS2
p4338
(dp4339
Vtype
p4340
VWindows 7 Professional
p4341
sVinstallDate
p4342
V2011-08-31 11:07:00.000
p4343
ssVMLH880-POS3
p4344
(dp4345
Vtype
p4346
VWindows XP Professional
p4347
sVinstallDate
p4348
V2008-07-22 07:51:00.000
p4349
ssVQUK340-POS1
p4350
(dp4351
Vtype
p4352
VWindows 7 Professional
p4353
sVinstallDate
p4354
V2015-02-02 16:25:00.000
p4355
ssVMLH880-POS2
p4356
(dp4357
Vtype
p4358
VWindows XP Professional
p4359
sVinstallDate
p4360
V2008-07-22 07:51:00.000
p4361
ssVSEL185-W1
p4362
(dp4363
Vtype
p4364
VWindows XP Professional
p4365
sVinstallDate
p4366
V2008-06-26 14:23:00.000
p4367
ssVSPN002-S
p4368
(dp4369
Vtype
p4370
VWindows XP Professional
p4371
sVinstallDate
p4372
V2007-05-15 15:50:00.000
p4373
ssVMNH173-S
p4374
(dp4375
Vtype
p4376
VWindows 7 Professional
p4377
sVinstallDate
p4378
V2010-02-02 10:15:00.000
p4379
ssVMLH105-POS1
p4380
(dp4381
Vtype
p4382
VWindows XP Professional
p4383
sVinstallDate
p4384
V2008-06-26 14:23:00.000
p4385
ssVABC255-POS1
p4386
(dp4387
Vtype
p4388
VWindows 7 Professional
p4389
sVinstallDate
p4390
V2011-08-31 11:07:00.000
p4391
ssVMLH105-POS2
p4392
(dp4393
Vtype
p4394
VWindows XP Professional
p4395
sVinstallDate
p4396
V2008-06-26 14:23:00.000
p4397
ssVQUK311-POS1
p4398
(dp4399
Vtype
p4400
VWindows 7 Professional
p4401
sVinstallDate
p4402
V2011-08-31 11:07:00.000
p4403
ssVMLH703-POS1
p4404
(dp4405
Vtype
p4406
VWindows 7 Professional
p4407
sVinstallDate
p4408
V2011-08-31 11:07:00.000
p4409
ssVTSQ201-POS1
p4410
(dp4411
Vtype
p4412
VWindows 7 Professional
p4413
sVinstallDate
p4414
V2011-08-31 11:07:00.000
p4415
ssVSEL005-W1
p4416
(dp4417
Vtype
p4418
VWindows XP Professional
p4419
sVinstallDate
p4420
V2008-06-26 14:23:00.000
p4421
ssVQUK189-POS1
p4422
(dp4423
Vtype
p4424
VWindows 7 Professional
p4425
sVinstallDate
p4426
V2015-02-02 16:25:00.000
p4427
ssVMLH810-POS1
p4428
(dp4429
Vtype
p4430
VWindows XP Professional
p4431
sVinstallDate
p4432
V2008-07-22 07:51:00.000
p4433
ssVMLH810-POS2
p4434
(dp4435
Vtype
p4436
VWindows XP Professional
p4437
sVinstallDate
p4438
V2008-07-22 07:51:00.000
p4439
ssVABC092-S
p4440
(dp4441
Vtype
p4442
VWindows 7 Professional
p4443
sVinstallDate
p4444
V2011-08-31 11:07:00.000
p4445
ssVPPA011-S
p4446
(dp4447
Vtype
p4448
VWindows XP Professional
p4449
sVinstallDate
p4450
V2008-06-26 14:23:00.000
p4451
ssVEEP005-S
p4452
(dp4453
Vtype
p4454
VWindows 7 Professional
p4455
sVinstallDate
p4456
V2011-08-31 11:07:00.000
p4457
ssVQUK066-POS1
p4458
(dp4459
Vtype
p4460
VWindows 7 Professional
p4461
sVinstallDate
p4462
V2015-02-02 16:25:00.000
p4463
ssVMLHOFFICE-PC
p4464
(dp4465
Vtype
p4466
VWindows 7 Professional x64 Edition
p4467
sVinstallDate
p4468
V2016-02-09 08:29:00.000
p4469
ssVMLH107-POS1
p4470
(dp4471
Vtype
p4472
VWindows 7 Professional
p4473
sVinstallDate
p4474
V2011-08-31 11:07:00.000
p4475
ssVQUK102-POS1
p4476
(dp4477
Vtype
p4478
VWindows 7 Professional
p4479
sVinstallDate
p4480
V2012-02-22 16:38:00.000
p4481
ssVGMC063-POS1
p4482
(dp4483
Vtype
p4484
VWindows 7 Professional
p4485
sVinstallDate
p4486
V2011-08-31 11:07:00.000
p4487
ssVMLH027-POS1
p4488
(dp4489
Vtype
p4490
VWindows 7 Professional
p4491
sVinstallDate
p4492
V2011-08-31 11:07:00.000
p4493
ssVRDN052-POS2
p4494
(dp4495
Vtype
p4496
VWindows 7 Professional
p4497
sVinstallDate
p4498
V2011-08-31 11:07:00.000
p4499
ssVRDN052-POS1
p4500
(dp4501
Vtype
p4502
VWindows 7 Professional
p4503
sVinstallDate
p4504
V2011-08-31 11:07:00.000
p4505
ssVABC010-S
p4506
(dp4507
Vtype
p4508
VWindows 7 Professional
p4509
sVinstallDate
p4510
V2011-08-31 11:07:00.000
p4511
ssVMLH017-POS1
p4512
(dp4513
Vtype
p4514
VWindows 7 Professional
p4515
sVinstallDate
p4516
V2011-08-31 11:07:00.000
p4517
ssVGMC041-POS1
p4518
(dp4519
Vtype
p4520
VWindows 7 Professional
p4521
sVinstallDate
p4522
V2011-08-31 11:07:00.000
p4523
ssVGOT153-S
p4524
(dp4525
Vtype
p4526
VWindows XP Professional
p4527
sVinstallDate
p4528
V2008-06-26 14:23:00.000
p4529
ssVGMC030-S
p4530
(dp4531
Vtype
p4532
VWindows XP Professional
p4533
sVinstallDate
p4534
V2007-05-15 15:50:00.000
p4535
ssVMLH048-POS1
p4536
(dp4537
Vtype
p4538
VWindows 7 Professional
p4539
sVinstallDate
p4540
V2011-08-31 11:07:00.000
p4541
ssVVPN006-POS1
p4542
(dp4543
Vtype
p4544
VWindows 7 Professional
p4545
sVinstallDate
p4546
V2012-02-22 16:38:00.000
p4547
ssVGMC035-POS1
p4548
(dp4549
Vtype
p4550
VWindows 7 Professional
p4551
sVinstallDate
p4552
V2011-08-31 11:07:00.000
p4553
ssVABC234-POS1
p4554
(dp4555
Vtype
p4556
VWindows 7 Professional
p4557
sVinstallDate
p4558
V2014-02-18 09:11:00.000
p4559
ssVABC223-POS1
p4560
(dp4561
Vtype
p4562
VWindows 7 Professional
p4563
sVinstallDate
p4564
V2014-02-18 09:11:00.000
p4565
ssVMNH008-POS1
p4566
(dp4567
Vtype
p4568
VWindows 7 Professional
p4569
sVinstallDate
p4570
V2011-08-31 11:07:00.000
p4571
ssVIPK202-POS1
p4572
(dp4573
Vtype
p4574
VWindows 7 Professional
p4575
sVinstallDate
p4576
V2011-08-31 11:07:00.000
p4577
ssVSEL088-POS1
p4578
(dp4579
Vtype
p4580
VWindows 7 Professional
p4581
sVinstallDate
p4582
V2011-08-31 11:07:00.000
p4583
ssVABC253-POS1
p4584
(dp4585
Vtype
p4586
VWindows 7 Professional
p4587
sVinstallDate
p4588
V2012-02-22 16:38:00.000
p4589
ssVABC243-S
p4590
(dp4591
Vtype
p4592
VWindows 7 Professional
p4593
sVinstallDate
p4594
V2014-02-18 09:11:00.000
p4595
ssVMLH710-POS1
p4596
(dp4597
Vtype
p4598
VWindows 7 Professional
p4599
sVinstallDate
p4600
V2011-08-31 11:07:00.000
p4601
ssVQUK027-POS1
p4602
(dp4603
Vtype
p4604
VWindows 7 Professional
p4605
sVinstallDate
p4606
V2011-08-31 11:07:00.000
p4607
ssVMLH009-POS2
p4608
(dp4609
Vtype
p4610
VWindows 7 Professional
p4611
sVinstallDate
p4612
V2011-08-31 11:07:00.000
p4613
ssVRPD001-POS2
p4614
(dp4615
Vtype
p4616
VWindows 7 Professional
p4617
sVinstallDate
p4618
V2011-08-31 11:07:00.000
p4619
ssVAMP516-S
p4620
(dp4621
Vtype
p4622
VWindows 7 Professional
p4623
sVinstallDate
p4624
V2014-02-18 09:11:00.000
p4625
ssVMLH009-POS1
p4626
(dp4627
Vtype
p4628
VWindows 7 Professional
p4629
sVinstallDate
p4630
V2011-08-31 11:07:00.000
p4631
ssVPRI001-S
p4632
(dp4633
Vtype
p4634
VWindows XP Professional
p4635
sVinstallDate
p4636
V2008-06-26 14:23:00.000
p4637
ssVMLH731-POS1
p4638
(dp4639
Vtype
p4640
VWindows XP Professional
p4641
sVinstallDate
p4642
V2008-07-22 07:51:00.000
p4643
ssVMLH068-POS1
p4644
(dp4645
Vtype
p4646
VWindows 7 Professional
p4647
sVinstallDate
p4648
V2011-08-31 11:07:00.000
p4649
ssVQUK751-POS1
p4650
(dp4651
Vtype
p4652
VWindows 7 Professional
p4653
sVinstallDate
p4654
V2012-02-22 16:38:00.000
p4655
ssVTSQ020-S
p4656
(dp4657
Vtype
p4658
VWindows 7 Professional
p4659
sVinstallDate
p4660
V2011-08-31 11:07:00.000
p4661
ssVGMC090-POS1
p4662
(dp4663
Vtype
p4664
VWindows 7 Professional
p4665
sVinstallDate
p4666
V2011-08-31 11:07:00.000
p4667
ssVMLH758-POS1
p4668
(dp4669
Vtype
p4670
VWindows 7 Professional
p4671
sVinstallDate
p4672
V2012-02-22 16:38:00.000
p4673
ssVGLE002-POS1
p4674
(dp4675
Vtype
p4676
VWindows 7 Professional
p4677
sVinstallDate
p4678
V2011-08-31 11:07:00.000
p4679
ssVMLH758-POS3
p4680
(dp4681
Vtype
p4682
VWindows 7 Professional
p4683
sVinstallDate
p4684
V2012-02-22 16:38:00.000
p4685
ssVMLH758-POS2
p4686
(dp4687
Vtype
p4688
VWindows 7 Professional
p4689
sVinstallDate
p4690
V2012-02-22 16:38:00.000
p4691
ssVMLH736-POS1
p4692
(dp4693
Vtype
p4694
VWindows 7 Professional
p4695
sVinstallDate
p4696
V2011-08-31 11:07:00.000
p4697
ssVPVP004-POS1
p4698
(dp4699
Vtype
p4700
VWindows 7 Professional
p4701
sVinstallDate
p4702
V2012-02-22 16:38:00.000
p4703
ssVMLH435-POS1
p4704
(dp4705
Vtype
p4706
VWindows XP Professional
p4707
sVinstallDate
p4708
V2008-06-26 14:23:00.000
p4709
ssVKIN022-POS1
p4710
(dp4711
Vtype
p4712
VWindows 7 Professional
p4713
sVinstallDate
p4714
V2011-08-31 11:07:00.000
p4715
ssVMLH083-POS1
p4716
(dp4717
Vtype
p4718
VWindows 7 Professional
p4719
sVinstallDate
p4720
V2011-08-31 11:07:00.000
p4721
ssVMLH888-KIOSK
p4722
(dp4723
Vtype
p4724
VWindows XP Professional
p4725
sVinstallDate
p4726
V2011-01-06 06:26:00.000
p4727
ssVABC077-W1
p4728
(dp4729
Vtype
p4730
VWindows 7 Professional
p4731
sVinstallDate
p4732
V2011-08-31 11:07:00.000
p4733
ssVMLH755-POS1
p4734
(dp4735
Vtype
p4736
VWindows XP Professional
p4737
sVinstallDate
p4738
V2008-07-22 07:51:00.000
p4739
ssVABC044-POS1
p4740
(dp4741
Vtype
p4742
VWindows 7 Professional
p4743
sVinstallDate
p4744
V2012-02-22 16:38:00.000
p4745
ssVMAM117-S
p4746
(dp4747
Vtype
p4748
VWindows 7 Professional
p4749
sVinstallDate
p4750
V2011-08-31 11:07:00.000
p4751
ssVTSQ002-S
p4752
(dp4753
Vtype
p4754
VWindows 7 Professional
p4755
sVinstallDate
p4756
V2011-08-31 11:07:00.000
p4757
ssVRPD080-POS1
p4758
(dp4759
Vtype
p4760
VWindows 7 Professional
p4761
sVinstallDate
p4762
V2011-08-31 11:07:00.000
p4763
ssVQUK076-POS1
p4764
(dp4765
Vtype
p4766
VWindows 7 Professional
p4767
sVinstallDate
p4768
V2015-02-02 16:25:00.000
p4769
ssVKIN309-POS1
p4770
(dp4771
Vtype
p4772
VWindows 7 Professional
p4773
sVinstallDate
p4774
V2011-08-31 11:07:00.000
p4775
ssVMLH025-POS1
p4776
(dp4777
Vtype
p4778
VWindows XP Professional
p4779
sVinstallDate
p4780
V2008-07-22 07:51:00.000
p4781
ssVMLH025-POS2
p4782
(dp4783
Vtype
p4784
VWindows XP Professional
p4785
sVinstallDate
p4786
V2008-07-22 07:51:00.000
p4787
ssVABC075-S
p4788
(dp4789
Vtype
p4790
VWindows 7 Professional
p4791
sVinstallDate
p4792
V2011-08-31 11:07:00.000
p4793
ssVABC014-POS1
p4794
(dp4795
Vtype
p4796
VWindows 7 Professional
p4797
sVinstallDate
p4798
V2011-08-31 11:07:00.000
p4799
ssVMAM060-POS1
p4800
(dp4801
Vtype
p4802
VWindows 7 Professional
p4803
sVinstallDate
p4804
V2011-08-31 11:07:00.000
p4805
ssVMLH110-POS3
p4806
(dp4807
Vtype
p4808
VWindows 7 Professional
p4809
sVinstallDate
p4810
V2011-08-31 11:07:00.000
p4811
ssVMLH008-POS1
p4812
(dp4813
Vtype
p4814
NsVinstallDate
p4815
NssVMLH008-POS2
p4816
(dp4817
Vtype
p4818
VWindows XP Professional
p4819
sVinstallDate
p4820
V2008-06-26 14:23:00.000
p4821
ssVMLH744-POS1
p4822
(dp4823
Vtype
p4824
VWindows 7 Professional
p4825
sVinstallDate
p4826
V2011-08-31 11:07:00.000
p4827
ssVMLH066-POS1
p4828
(dp4829
Vtype
p4830
VWindows XP Professional
p4831
sVinstallDate
p4832
V2008-06-26 14:23:00.000
p4833
ssVMLH701-POS2
p4834
(dp4835
Vtype
p4836
VWindows 7 Professional
p4837
sVinstallDate
p4838
V2011-08-31 11:07:00.000
p4839
ssVMLH701-POS1
p4840
(dp4841
Vtype
p4842
VWindows 7 Professional
p4843
sVinstallDate
p4844
V2011-08-31 11:07:00.000
p4845
ssVMLH066-POS2
p4846
(dp4847
Vtype
p4848
VWindows XP Professional
p4849
sVinstallDate
p4850
V2008-06-26 14:23:00.000
p4851
ssVIPK203-POS1
p4852
(dp4853
Vtype
p4854
VWindows 7 Professional
p4855
sVinstallDate
p4856
V2011-08-31 11:07:00.000
p4857
ssVMNH050-S
p4858
(dp4859
Vtype
p4860
VWindows XP Professional
p4861
sVinstallDate
p4862
V2008-06-26 14:23:00.000
p4863
ssVGMC028-POS1
p4864
(dp4865
Vtype
p4866
VWindows 7 Professional
p4867
sVinstallDate
p4868
V2011-08-31 11:07:00.000
p4869
ssVABC251-POS1
p4870
(dp4871
Vtype
p4872
VWindows 7 Professional
p4873
sVinstallDate
p4874
V2012-02-22 16:38:00.000
p4875
ssVTSQ095-POS1
p4876
(dp4877
Vtype
p4878
VWindows 7 Professional
p4879
sVinstallDate
p4880
V2011-08-31 11:07:00.000
p4881
ssVGMC001-S
p4882
(dp4883
Vtype
p4884
VWindows 7 Professional
p4885
sVinstallDate
p4886
V2011-08-31 11:07:00.000
p4887
ssVMLH087-POS1
p4888
(dp4889
Vtype
p4890
VWindows XP Professional
p4891
sVinstallDate
p4892
V2008-06-26 14:23:00.000
p4893
ssVMLH087-POS2
p4894
(dp4895
Vtype
p4896
VWindows XP Professional
p4897
sVinstallDate
p4898
V2008-06-26 14:23:00.000
p4899
ssVMLH074-POS1
p4900
(dp4901
Vtype
p4902
VWindows XP Professional
p4903
sVinstallDate
p4904
V2008-06-26 14:23:00.000
p4905
ssVQUK116-POS1
p4906
(dp4907
Vtype
p4908
VWindows 7 Professional
p4909
sVinstallDate
p4910
V2011-08-31 11:07:00.000
p4911
ssVABC016-POS1
p4912
(dp4913
Vtype
p4914
VWindows 7 Professional
p4915
sVinstallDate
p4916
V2011-08-31 11:07:00.000
p4917
ssVQUK727-POS1
p4918
(dp4919
Vtype
p4920
VWindows 7 Professional
p4921
sVinstallDate
p4922
V2012-02-22 16:38:00.000
p4923
ssVTSQ205-S
p4924
(dp4925
Vtype
p4926
VWindows XP Professional
p4927
sVinstallDate
p4928
V2008-06-26 14:23:00.000
p4929
ssVQUK732-POS1
p4930
(dp4931
Vtype
p4932
VWindows 7 Professional
p4933
sVinstallDate
p4934
V2012-02-22 16:38:00.000
p4935
ssVRPD070-POS1
p4936
(dp4937
Vtype
p4938
VWindows 7 Professional
p4939
sVinstallDate
p4940
V2011-08-31 11:07:00.000
p4941
ssVABC066-POS1
p4942
(dp4943
Vtype
p4944
VWindows 7 Professional
p4945
sVinstallDate
p4946
V2012-02-22 16:38:00.000
p4947
ssVABC048-S
p4948
(dp4949
Vtype
p4950
VWindows 7 Professional
p4951
sVinstallDate
p4952
V2011-08-31 11:07:00.000
p4953
ssVMLH116-POS1
p4954
(dp4955
Vtype
p4956
VWindows XP Professional
p4957
sVinstallDate
p4958
V2008-06-26 14:23:00.000
p4959
ssVMLH730-POS1
p4960
(dp4961
Vtype
p4962
VWindows 7 Professional
p4963
sVinstallDate
p4964
V2011-08-31 11:07:00.000
p4965
ssVMLH706-POS1
p4966
(dp4967
Vtype
p4968
VWindows 7 Professional
p4969
sVinstallDate
p4970
V2011-08-31 11:07:00.000
p4971
ssVQUK752-POS1
p4972
(dp4973
Vtype
p4974
VWindows 7 Professional
p4975
sVinstallDate
p4976
V2011-08-31 11:07:00.000
p4977
ssVMNH350-POS1
p4978
(dp4979
Vtype
p4980
VWindows 7 Professional
p4981
sVinstallDate
p4982
V2011-08-31 11:07:00.000
p4983
ssVGMC018-S
p4984
(dp4985
Vtype
p4986
VWindows 7 Professional
p4987
sVinstallDate
p4988
V2011-08-31 11:07:00.000
p4989
ssVABC078-S
p4990
(dp4991
Vtype
p4992
VWindows 7 Professional
p4993
sVinstallDate
p4994
V2011-08-31 11:07:00.000
p4995
ssVRDN021-POS1
p4996
(dp4997
Vtype
p4998
VWindows 7 Professional
p4999
sVinstallDate
p5000
V2014-02-18 09:11:00.000
p5001
ssVOPI003-POS1
p5002
(dp5003
Vtype
p5004
VWindows 7 Professional
p5005
sVinstallDate
p5006
V2011-08-31 11:07:00.000
p5007
ssVRDN021-POS2
p5008
(dp5009
Vtype
p5010
VWindows 7 Professional
p5011
sVinstallDate
p5012
V2011-08-31 11:07:00.000
p5013
ssVTSQ009-S
p5014
(dp5015
Vtype
p5016
VWindows 7 Professional
p5017
sVinstallDate
p5018
V2011-08-31 11:07:00.000
p5019
ssVMLH015-POS1
p5020
(dp5021
Vtype
p5022
VWindows 7 Professional
p5023
sVinstallDate
p5024
V2011-08-31 11:07:00.000
p5025
ssVMLH098-POS1
p5026
(dp5027
Vtype
p5028
VWindows XP Professional
p5029
sVinstallDate
p5030
V2008-06-26 14:23:00.000
p5031
ssVMLH051-POS1
p5032
(dp5033
Vtype
p5034
VWindows XP Professional
p5035
sVinstallDate
p5036
V2008-07-22 07:51:00.000
p5037
ssVSEL081-S
p5038
(dp5039
Vtype
p5040
VWindows XP Professional
p5041
sVinstallDate
p5042
V2008-06-26 14:23:00.000
p5043
ssVHIL175-S
p5044
(dp5045
Vtype
p5046
VWindows XP Professional
p5047
sVinstallDate
p5048
V2007-05-15 15:50:00.000
p5049
ssVMLH722-POS1
p5050
(dp5051
Vtype
p5052
VWindows 7 Professional
p5053
sVinstallDate
p5054
V2011-08-31 11:07:00.000
p5055
ssVMAM053-S
p5056
(dp5057
Vtype
p5058
VWindows 7 Professional
p5059
sVinstallDate
p5060
V2011-08-31 11:07:00.000
p5061
ssVMLH245-POS1
p5062
(dp5063
Vtype
p5064
VWindows XP Professional
p5065
sVinstallDate
p5066
V2008-06-26 14:23:00.000
p5067
ssVQUK301-POS1
p5068
(dp5069
Vtype
p5070
VWindows 7 Professional
p5071
sVinstallDate
p5072
V2015-02-02 16:25:00.000
p5073
ssVMAM074-POS1
p5074
(dp5075
Vtype
p5076
VWindows 7 Professional
p5077
sVinstallDate
p5078
V2011-08-31 11:07:00.000
p5079
ssVQUK360-POS1
p5080
(dp5081
Vtype
p5082
VWindows 7 Professional
p5083
sVinstallDate
p5084
V2011-08-31 11:07:00.000
p5085
ssVOPI034-POS1
p5086
(dp5087
Vtype
p5088
VWindows 7 Professional
p5089
sVinstallDate
p5090
V2011-08-31 11:07:00.000
p5091
ssVOPI034-POS2
p5092
(dp5093
Vtype
p5094
VWindows 7 Professional
p5095
sVinstallDate
p5096
NssVABC041-W1
p5097
(dp5098
Vtype
p5099
VWindows 7 Professional
p5100
sVinstallDate
p5101
V2011-08-31 11:07:00.000
p5102
ssVMLH705-POS1
p5103
(dp5104
Vtype
p5105
VWindows 7 Professional
p5106
sVinstallDate
p5107
V2011-08-31 11:07:00.000
p5108
ssVMLH093-POS1
p5109
(dp5110
Vtype
p5111
VWindows XP Professional
p5112
sVinstallDate
p5113
V2008-06-26 14:23:00.000
p5114
ssVQUK709-POS1
p5115
(dp5116
Vtype
p5117
VWindows 7 Professional
p5118
sVinstallDate
p5119
V2015-02-02 16:25:00.000
p5120
ssVMLH715-POS1
p5121
(dp5122
Vtype
p5123
VWindows 7 Professional
p5124
sVinstallDate
p5125
V2011-08-31 11:07:00.000
p5126
ssVOPI001-KIOSK
p5127
(dp5128
Vtype
p5129
NsVinstallDate
p5130
NssVABC001-POS1
p5131
(dp5132
Vtype
p5133
VWindows 7 Professional
p5134
sVinstallDate
p5135
V2011-08-31 11:07:00.000
p5136
ssVMLH738-POS1
p5137
(dp5138
Vtype
p5139
VWindows 7 Professional
p5140
sVinstallDate
p5141
V2011-08-31 11:07:00.000
p5142
ssVMNH065-POS1
p5143
(dp5144
Vtype
p5145
VWindows 7 Professional
p5146
sVinstallDate
p5147
V2011-08-31 11:07:00.000
p5148
ssVGMC031-S
p5149
(dp5150
Vtype
p5151
VWindows 7 Professional
p5152
sVinstallDate
p5153
V2011-08-31 11:07:00.000
p5154
ssVMLH707-POS1
p5155
(dp5156
Vtype
p5157
VWindows 7 Professional
p5158
sVinstallDate
p5159
V2011-08-31 11:07:00.000
p5160
ssVMLH756-POS1
p5161
(dp5162
Vtype
p5163
VWindows 7 Professional
p5164
sVinstallDate
p5165
V2011-08-31 11:07:00.000
p5166
ssVGOT139-S
p5167
(dp5168
Vtype
p5169
VWindows XP Professional
p5170
sVinstallDate
p5171
V2008-06-26 14:23:00.000
p5172
ssVMLH751-POS2
p5173
(dp5174
Vtype
p5175
VWindows 7 Professional
p5176
sVinstallDate
p5177
V2011-08-31 11:07:00.000
p5178
ssVMLH751-POS3
p5179
(dp5180
Vtype
p5181
VWindows 7 Professional
p5182
sVinstallDate
p5183
V2011-08-31 11:07:00.000
p5184
ssVMLH751-POS1
p5185
(dp5186
Vtype
p5187
VWindows 7 Professional
p5188
sVinstallDate
p5189
V2011-08-31 11:07:00.000
p5190
ssVINT029-S
p5191
(dp5192
Vtype
p5193
NsVinstallDate
p5194
NssVMLH769-POS2
p5195
(dp5196
Vtype
p5197
VWindows 7 Professional
p5198
sVinstallDate
p5199
V2011-08-31 11:07:00.000
p5200
ssVMPI002-S
p5201
(dp5202
Vtype
p5203
VWindows XP Professional
p5204
sVinstallDate
p5205
V2008-06-26 14:23:00.000
p5206
ssVMLH014-POS1
p5207
(dp5208
Vtype
p5209
VWindows 7 Professional
p5210
sVinstallDate
p5211
V2012-02-22 16:38:00.000
p5212
ssVKIN545-POS1
p5213
(dp5214
Vtype
p5215
VWindows 7 Professional
p5216
sVinstallDate
p5217
V2010-12-01 15:12:00.000
p5218
ssVKIN062-POS2
p5219
(dp5220
Vtype
p5221
VWindows 7 Professional
p5222
sVinstallDate
p5223
V2011-08-31 11:07:00.000
p5224
ssVMLH010-POS1
p5225
(dp5226
Vtype
p5227
VWindows XP Professional
p5228
sVinstallDate
p5229
V2008-07-22 07:51:00.000
p5230
ssVMLH010-POS2
p5231
(dp5232
Vtype
p5233
VWindows XP Professional
p5234
sVinstallDate
p5235
V2008-07-22 07:51:00.000
p5236
ssVKIN062-POS1
p5237
(dp5238
Vtype
p5239
VWindows 7 Professional
p5240
sVinstallDate
p5241
V2011-08-31 11:07:00.000
p5242
ss.