(dp0
VOPI040-POS2
p1
(dp2
Vtype
p3
VWindows 7 Professional
p4
sVinstallDate
p5
V2012-02-22 16:38:00.000
p6
ssVGMC088-POS1
p7
(dp8
g3
g4
sg5
V2011-08-31 11:07:00.000
p9
ssVMLH717-POS1
p10
(dp11
g3
g4
sg5
g9
ssVMLH100-POS1
p12
(dp13
g3
VWindows XP Professional
p14
sg5
V2008-06-26 14:23:00.000
p15
ssVGLE081-POS1
p16
(dp17
g3
g4
sg5
g9
ssVGMC025-POS1
p18
(dp19
g3
g4
sg5
g9
ssVTIS010-POS1
p20
(dp21
g3
g4
sg5
g9
ssVINT009-POS2
p22
(dp23
g3
g4
sg5
g6
ssVQUK015-POS1
p24
(dp25
g3
g4
sg5
g9
ssVQUK801-POS1
p26
(dp27
g3
g4
sg5
g9
ssVINT046-POS1
p28
(dp29
g3
g4
sg5
V2014-02-18 09:11:00.000
p30
ssVQUK024-POS1
p31
(dp32
g3
g4
sg5
g9
ssVPAI002-S
p33
(dp34
g3
g14
sg5
g15
ssVMNH110-POS1
p35
(dp36
g3
g4
sg5
g9
ssVGMC029-POS1
p37
(dp38
g3
g4
sg5
g9
ssVRPD096-S
p39
(dp40
g3
g4
sg5
g9
ssVABC094-POS1
p41
(dp42
g3
g4
sg5
g30
ssVGMC066-S
p43
(dp44
g3
g14
sg5
V2007-05-15 15:50:00.000
p45
ssVTSQ200-S
p46
(dp47
g3
g4
sg5
g9
ssVABC076-S
p48
(dp49
g3
g4
sg5
g9
ssVABC071-S
p50
(dp51
g3
g4
sg5
g30
ssVPAI001-S
p52
(dp53
g3
g14
sg5
g15
ssVBNV011-S
p54
(dp55
g3
g14
sg5
g45
ssVMNH056-POS1
p56
(dp57
g3
g4
sg5
g9
ssVMLH103-POS1
p58
(dp59
g3
g14
sg5
g15
ssVMAM031-S
p60
(dp61
g3
g14
sg5
g45
ssVMAM075-POS1
p62
(dp63
g3
g4
sg5
g9
ssV_JunoPC
p64
(dp65
g3
g4
sg5
V2015-05-22 17:23:00.000
p66
ssVGMC081-POS1
p67
(dp68
g3
g4
sg5
g9
ssVMLH096-POS2
p69
(dp70
g3
g4
sg5
g9
ssVMLH096-POS1
p71
(dp72
g3
g4
sg5
g9
ssVKIN024-POS1
p73
(dp74
g3
g4
sg5
g9
ssVMLH732-POS1
p75
(dp76
g3
g14
sg5
g15
ssVMLH170-POS1
p77
(dp78
g3
g4
sg5
g9
ssVQUK105-S
p79
(dp80
g3
g4
sg5
V2010-02-02 10:15:00.000
p81
ssVINT650-S
p82
(dp83
g3
g14
sg5
g15
ssVGMC059-S
p84
(dp85
g3
g4
sg5
g9
ssVIPK004-POS1
p86
(dp87
g3
Nsg5
NssVMLH743-POS1
p88
(dp89
g3
g14
sg5
g15
ssVQUK184-POS1
p90
(dp91
g3
g4
sg5
g9
ssVMLH065-POS1
p92
(dp93
g3
g14
sg5
g15
ssVMNH026-POS1
p94
(dp95
g3
g4
sg5
g9
ssVCCA009-S
p96
(dp97
g3
Nsg5
NssVMLH734-POS1
p98
(dp99
g3
g4
sg5
g9
ssVABC-Office
p100
(dp101
g3
g4
sg5
g30
ssVQUK100-POS2
p102
(dp103
g3
g4
sg5
g30
ssVQUK100-POS1
p104
(dp105
g3
g4
sg5
g9
ssVRDN055-S
p106
(dp107
g3
g4
sg5
g9
ssV_MichaelPC
p108
(dp109
g3
VWindows 7 Professional x64 Edition
p110
sg5
V2015-05-29 22:52:00.000
p111
ssVQUK058-POS1
p112
(dp113
g3
g4
sg5
g9
ssVINT087-POS1
p114
(dp115
g3
g4
sg5
g6
ssVABC248-POS2
p116
(dp117
g3
g4
sg5
g6
ssVABC248-POS1
p118
(dp119
g3
g4
sg5
g6
ssVABC015-S
p120
(dp121
g3
g4
sg5
g9
ssVRPD102-S
p122
(dp123
g3
g4
sg5
g9
ssVMLH350-POS1
p124
(dp125
g3
g14
sg5
V2008-07-22 07:51:00.000
p126
ssVMLH350-POS2
p127
(dp128
g3
g14
sg5
g126
ssVMLH070-POS2
p129
(dp130
g3
g14
sg5
g126
ssVMLH797-POS1
p131
(dp132
g3
g14
sg5
g126
ssVMLH370-POS1
p133
(dp134
g3
g14
sg5
g126
ssVMLH070-POS1
p135
(dp136
g3
g14
sg5
g126
ssVRPD030-POS1
p137
(dp138
g3
g4
sg5
g9
ssVRPD030-POS2
p139
(dp140
g3
g4
sg5
g9
ssVMLH220-POS1
p141
(dp142
g3
g4
sg5
g9
ssVMLH728-POS1
p143
(dp144
g3
g4
sg5
g9
ssVMLH742-POS1
p145
(dp146
g3
g4
sg5
g9
ssVABC053-S
p147
(dp148
g3
g4
sg5
g9
ssVGLE003-POS1
p149
(dp150
g3
g4
sg5
g6
ssVABC028-S
p151
(dp152
g3
g4
sg5
g9
ssVTSQ202-POS1
p153
(dp154
g3
g4
sg5
g9
ssVCCA008-S
p155
(dp156
g3
Nsg5
NssVABC097-S
p157
(dp158
g3
g4
sg5
g9
ssVMLH106-POS1
p159
(dp160
g3
g14
sg5
g15
ssVABC095-POS1
p161
(dp162
g3
g4
sg5
g30
ssVSEL036-POS1
p163
(dp164
g3
Nsg5
NssVKIN070-POS1
p165
(dp166
g3
g4
sg5
g9
ssVSYL001-S
p167
(dp168
g3
g4
sg5
g9
ssVQUK720-POS1
p169
(dp170
g3
g4
sg5
g6
ssVQUK017-POS1
p171
(dp172
g3
g4
sg5
g9
ssVMPK005-ProgrammerTest
p173
(dp174
g3
g4
sg5
g9
ssVGLE102-POS1
p175
(dp176
g3
g4
sg5
g9
ssVABC154-POS1
p177
(dp178
g3
g4
sg5
g6
ssVPRK043-S
p179
(dp180
g3
g4
sg5
g9
ssVQUK090-POS1
p181
(dp182
g3
g4
sg5
g9
ssVRDN071-S
p183
(dp184
g3
g4
sg5
g9
ssVABC058-S
p185
(dp186
g3
g4
sg5
g9
ssVMLH763-POS1
p187
(dp188
g3
g14
sg5
g15
ssVOPI503-POS1
p189
(dp190
g3
g4
sg5
g9
ssVMLH741-POS1
p191
(dp192
g3
g4
sg5
g9
ssVABC067-S
p193
(dp194
g3
g4
sg5
g9
ssVABC019-S
p195
(dp196
g3
g4
sg5
g9
ssVGLE046-POS1
p197
(dp198
g3
g4
sg5
g9
ssVMLH911-POS1
p199
(dp200
g3
g4
sg5
g9
ssVMLH746-POS1
p201
(dp202
g3
g14
sg5
g15
ssVMLH750-POS1
p203
(dp204
g3
g14
sg5
g126
ssVMLH112-POS1
p205
(dp206
g3
g14
sg5
g15
ssVMLH256-POS1
p207
(dp208
g3
g4
sg5
g9
ssVCPS029-S
p209
(dp210
g3
g4
sg5
g9
ssVABC240-S
p211
(dp212
g3
g4
sg5
g30
ssVABC049-S
p213
(dp214
g3
g4
sg5
g9
ssVCPS026-S
p215
(dp216
g3
g4
sg5
g9
ssVTIS016-POS1
p217
(dp218
g3
Nsg5
NssVOPI084-POS1
p219
(dp220
g3
g4
sg5
g6
ssVMLH880-POS1
p221
(dp222
g3
g14
sg5
g126
ssVMLH110-POS2
p223
(dp224
g3
g4
sg5
g9
ssVMLH110-POS1
p225
(dp226
g3
g4
sg5
g9
ssVMLH610-POS1
p227
(dp228
g3
g4
sg5
g9
ssVSEL185-S
p229
(dp230
g3
g14
sg5
g15
ssVMTP057-POS1
p231
(dp232
g3
g4
sg5
g9
ssVTSQ100-S
p233
(dp234
g3
g4
sg5
g9
ssVMLH761-POS1
p235
(dp236
g3
g4
sg5
g6
ssVMLH752-POS2
p237
(dp238
g3
g14
sg5
g126
ssVMLH752-POS1
p239
(dp240
g3
g14
sg5
g126
ssVMLH048-POS2
p241
(dp242
g3
g4
sg5
g9
ssVABC034-S
p243
(dp244
g3
g4
sg5
g9
ssVSEL047-S
p245
(dp246
g3
g14
sg5
g15
ssVGMC077-POS1
p247
(dp248
g3
g4
sg5
g9
ssVSEL180-S
p249
(dp250
g3
Nsg5
NssVMLH900-POS2
p251
(dp252
g3
g14
sg5
g126
ssVMLH766-POS1
p253
(dp254
g3
g14
sg5
g15
ssVMLH900-POS1
p255
(dp256
g3
g14
sg5
g126
ssVABC093-S
p257
(dp258
g3
g4
sg5
g9
ssVBNV010-S
p259
(dp260
g3
g14
sg5
V2007-02-14 14:44:00.000
p261
ssVQUK706-POS1
p262
(dp263
g3
g4
sg5
g9
ssVSBU001-POS1
p264
(dp265
g3
g14
sg5
g126
ssVRPD480-POS2
p266
(dp267
g3
g4
sg5
g9
ssVRPD480-POS1
p268
(dp269
g3
g4
sg5
g9
ssVMLH727-POS1
p270
(dp271
g3
g4
sg5
g9
ssVMNH073-POS1
p272
(dp273
g3
g4
sg5
V2015-02-02 16:25:00.000
p274
ssVMLH119-POS1
p275
(dp276
g3
g4
sg5
V2010-12-01 15:12:00.000
p277
ssVQUK065-POS1
p278
(dp279
g3
g4
sg5
g9
ssVMLH240-POS1
p280
(dp281
g3
g4
sg5
g9
ssVMLH089-POS1
p282
(dp283
g3
g4
sg5
g9
ssVKIN004-POS1
p284
(dp285
g3
g4
sg5
g9
ssVRDN002-POS2
p286
(dp287
g3
g4
sg5
g9
ssVGMC040-POS1
p288
(dp289
g3
g4
sg5
g9
ssVPRK100-S
p290
(dp291
g3
g4
sg5
g9
ssVRDN002-POS1
p292
(dp293
g3
g4
sg5
g9
ssVABC030-S
p294
(dp295
g3
g4
sg5
g9
ssVTIS009-KIOSK
p296
(dp297
g3
Nsg5
NssVRPD089-POS1
p298
(dp299
g3
g4
sg5
g9
ssVKIN005-POS1
p300
(dp301
g3
g4
sg5
g9
ssVMLH102-POS1
p302
(dp303
g3
g14
sg5
g15
ssVMLH102-POS2
p304
(dp305
g3
g14
sg5
g15
ssVMNH320-POS1
p306
(dp307
g3
g4
sg5
g9
ssV_MarcoPC
p308
(dp309
g3
g110
sg5
V2015-04-07 13:44:00.000
p310
ssVABC249-POS1
p311
(dp312
g3
g4
sg5
g6
ssVABC079-S
p313
(dp314
g3
g4
sg5
g9
ssVQUK020-POS1
p315
(dp316
g3
g4
sg5
g9
ssVRPD045-S
p317
(dp318
g3
g4
sg5
g9
ssVMLH014-POS1
p319
(dp320
g3
g4
sg5
g6
ssVSPN179-S
p321
(dp322
g3
g14
sg5
g15
ssVMLH050-POS1
p323
(dp324
g3
g4
sg5
g9
ssVCPS002-S
p325
(dp326
g3
g4
sg5
g9
ssVQUK707-POS1
p327
(dp328
g3
g4
sg5
g9
ssVQUK034-POS2
p329
(dp330
g3
g4
sg5
g30
ssVTIS009-POS2
p331
(dp332
g3
g4
sg5
g9
ssVTIS009-POS1
p333
(dp334
g3
g4
sg5
g9
ssVMLH047-POS1
p335
(dp336
g3
g14
sg5
g126
ssVMAM081-S
p337
(dp338
g3
g14
sg5
g45
ssVRDN001-POS2
p339
(dp340
g3
g4
sg5
g9
ssVRDN001-POS1
p341
(dp342
g3
g4
sg5
g9
ssVMNH060-S
p343
(dp344
g3
g4
sg5
g9
ssVMLH047-POS2
p345
(dp346
g3
g14
sg5
g126
ssVMLH757-POS1
p347
(dp348
g3
g4
sg5
g9
ssVMLH058-POS2
p349
(dp350
g3
g14
sg5
g126
ssVGMC048-POS2
p351
(dp352
g3
g4
sg5
g9
ssVSPN162-S
p353
(dp354
g3
g14
sg5
g45
ssVQUK097-POS1
p355
(dp356
g3
g4
sg5
g9
ssVWOC001-POS1
p357
(dp358
g3
g4
sg5
g6
ssVGMC082-POS1
p359
(dp360
g3
g4
sg5
g9
ssVQUK728-POS1
p361
(dp362
g3
g4
sg5
g6
ssVQUK034-POS1
p363
(dp364
g3
g4
sg5
g9
ssVABC051-S
p365
(dp366
g3
g4
sg5
g9
ssVMLH739-POS1
p367
(dp368
g3
g4
sg5
g9
ssVQUK019-POS1
p369
(dp370
g3
g4
sg5
g9
ssVQUK300-POS1
p371
(dp372
g3
g4
sg5
g274
ssVRPD033-POS1
p373
(dp374
g3
g4
sg5
g9
ssVMNH003-S
p375
(dp376
g3
g14
sg5
V2007-09-14 11:49:00.000
p377
ssVEXC002-POS1
p378
(dp379
g3
g4
sg5
g9
ssVQUK702-POS1
p380
(dp381
g3
g4
sg5
g9
ssV_PlusPC-Test
p382
(dp383
g3
g4
sg5
g9
ssVABC048-S
p384
(dp385
g3
g4
sg5
g9
ssVMLH330-POS2
p386
(dp387
g3
g14
sg5
g15
ssVMLH330-POS1
p388
(dp389
g3
g14
sg5
g15
ssVINT175-POS1
p390
(dp391
g3
g4
sg5
g6
ssVMLH702-POS2
p392
(dp393
g3
g14
sg5
g126
ssVMLH702-POS1
p394
(dp395
g3
g14
sg5
g126
ssVINT210-POS1
p396
(dp397
g3
g4
sg5
g6
ssVPVP003-POS1
p398
(dp399
g3
g4
sg5
g6
ssVMLH754-POS1
p400
(dp401
g3
g14
sg5
g15
ssVKIN011-POS1
p402
(dp403
g3
g4
sg5
g9
ssVMLH007-POS2
p404
(dp405
g3
g14
sg5
g126
ssVFBR001-POS2
p406
(dp407
g3
g4
sg5
g6
ssVTIS007-POS1
p408
(dp409
g3
g4
sg5
g9
ssVMLH042-POS2
p410
(dp411
g3
g14
sg5
g126
ssVMLH042-POS1
p412
(dp413
g3
g14
sg5
g126
ssVSEL043-S
p414
(dp415
g3
g14
sg5
V2008-05-29 15:39:00.000
p416
ssVOPI010-POS1
p417
(dp418
g3
g4
sg5
g9
ssVABC094-S
p419
(dp420
g3
g4
sg5
g30
ssVMLH058-POS1
p421
(dp422
g3
g14
sg5
g126
ssVABC229-POS1
p423
(dp424
g3
g4
sg5
g6
ssVMLH069-POS1
p425
(dp426
g3
g14
sg5
g15
ssVMLH069-POS2
p427
(dp428
g3
g14
sg5
g15
ssVGLE039-POS1
p429
(dp430
g3
g4
sg5
g9
ssVMLH018-POS1
p431
(dp432
g3
g4
sg5
g9
ssVMLH018-POS2
p433
(dp434
g3
g4
sg5
g9
ssVMNH177-POS1
p435
(dp436
g3
g4
sg5
g9
ssVABC230-S
p437
(dp438
g3
g4
sg5
g9
ssVMNH330-POS1
p439
(dp440
g3
g4
sg5
g9
ssVMLH716-POS1
p441
(dp442
g3
g14
sg5
g15
ssVTSQ010-S
p443
(dp444
g3
g4
sg5
g81
ssVMLH725-POS1
p445
(dp446
g3
g4
sg5
g9
ssVQUK037-POS1
p447
(dp448
g3
g4
sg5
g9
ssVMLH052-POS2
p449
(dp450
g3
g14
sg5
g126
ssVMLH052-POS3
p451
(dp452
g3
g4
sg5
g6
ssVMLH052-POS1
p453
(dp454
g3
g14
sg5
g126
ssVMLH714-POS1
p455
(dp456
g3
g4
sg5
g9
ssVEXP001-S
p457
(dp458
g3
g4
sg5
g6
ssVABC047-POS2
p459
(dp460
g3
g4
sg5
g30
ssVABC003-S
p461
(dp462
g3
g4
sg5
g30
ssVABC004-S
p463
(dp464
g3
g4
sg5
g9
ssVMNH061-POS1
p465
(dp466
g3
g4
sg5
g9
ssVMLH072-POS1
p467
(dp468
g3
g4
sg5
g9
ssVMLH072-POS2
p469
(dp470
g3
g4
sg5
g9
ssVABC234-S
p471
(dp472
g3
g4
sg5
g30
ssVSEL127-S
p473
(dp474
g3
g14
sg5
g15
ssVMLH748-POS1
p475
(dp476
g3
g4
sg5
g9
ssVSEL005-S
p477
(dp478
g3
g14
sg5
g15
ssVIPK005-POS1
p479
(dp480
g3
Nsg5
NssVMLH719-POS1
p481
(dp482
g3
g4
sg5
g9
ssVSPM001-POS1
p483
(dp484
g3
g4
sg5
g9
ssVMLH097-POS1
p485
(dp486
g3
g14
sg5
g15
ssVABC091-S
p487
(dp488
g3
g4
sg5
g9
ssVMLH097-POS2
p489
(dp490
g3
g14
sg5
g15
ssVMLH888-POS1
p491
(dp492
g3
g14
sg5
g126
ssVABC065-W1
p493
(dp494
g3
g4
sg5
g9
ssVMLH888-POS3
p495
(dp496
g3
g14
sg5
g126
ssVMLH888-POS2
p497
(dp498
g3
g14
sg5
g126
ssVQUK725-POS1
p499
(dp500
g3
g4
sg5
g6
ssVQUK734-POS2
p501
(dp502
g3
g4
sg5
g6
ssVQUK734-POS1
p503
(dp504
g3
g4
sg5
g6
ssVGLE056-POS2
p505
(dp506
g3
g4
sg5
g9
ssVMLH700-POS1
p507
(dp508
g3
g14
sg5
g126
ssVMLH700-POS2
p509
(dp510
g3
g14
sg5
g126
ssVMLH079-POS1
p511
(dp512
g3
g14
sg5
g126
ssVGLE090-POS1
p513
(dp514
g3
g4
sg5
g9
ssVMLH079-POS2
p515
(dp516
g3
g14
sg5
g126
ssVMLH150-POS2
p517
(dp518
g3
g14
sg5
g15
ssVMLH150-POS1
p519
(dp520
g3
g14
sg5
g15
ssVQUK152-POS1
p521
(dp522
g3
g4
sg5
g274
ssVKIN087-POS1
p523
(dp524
g3
g4
sg5
g9
ssVCPS048-S
p525
(dp526
g3
g4
sg5
g9
ssVABC224-W1
p527
(dp528
g3
g4
sg5
g9
ssVMLH044-POS1
p529
(dp530
g3
g14
sg5
g15
ssVSEL222-S
p531
(dp532
g3
g14
sg5
g45
ssVMLH708-POS1
p533
(dp534
g3
g4
sg5
g9
ssVMLH034-POS1
p535
(dp536
g3
g4
sg5
g9
ssVGLE038-POS1
p537
(dp538
g3
g4
sg5
g9
ssVABC212-S
p539
(dp540
g3
g4
sg5
g30
ssVGMC064-POS1
p541
(dp542
g3
g4
sg5
g9
ssVGMC078-POS1
p543
(dp544
g3
g4
sg5
g9
ssVRPD072-POS1
p545
(dp546
g3
g4
sg5
g9
ssVOPI501-POS1
p547
(dp548
g3
g4
sg5
g9
ssV_PaulPC
p549
(dp550
g3
g14
sg5
V2010-04-03 03:34:00.000
p551
ssVMLH114-POS2
p552
(dp553
g3
g4
sg5
g277
ssVMLH114-POS1
p554
(dp555
g3
g4
sg5
g277
ssVQUK600-POS1
p556
(dp557
g3
g4
sg5
g9
ssVGMC020-S
p558
(dp559
g3
g4
sg5
NssVGMC027-S
p560
(dp561
g3
g4
sg5
g9
ssVGMC033-POS1
p562
(dp563
g3
g4
sg5
g9
ssVKIN060-POS1
p564
(dp565
g3
g4
sg5
g9
ssVKIN060-POS2
p566
(dp567
g3
g4
sg5
g9
ssVQUK048-POS1
p568
(dp569
g3
g4
sg5
g9
ssVINT072-POS1
p570
(dp571
g3
g4
sg5
g6
ssVQUK866-POS1
p572
(dp573
g3
g4
sg5
g9
ssVINT067-POS1
p574
(dp575
g3
g4
sg5
g6
ssVMLH200-POS1
p576
(dp577
g3
g4
sg5
g9
ssVMLH108-POS2
p578
(dp579
g3
g4
sg5
g9
ssVMLH108-POS1
p580
(dp581
g3
g4
sg5
g9
ssVRPD047-S
p582
(dp583
g3
g4
sg5
g9
ssVSEL037-POS1
p584
(dp585
g3
g4
sg5
g9
ssVMLH059-POS2
p586
(dp587
g3
g14
sg5
g126
ssVMLH059-POS1
p588
(dp589
g3
g14
sg5
g126
ssVABC025-S
p590
(dp591
g3
g4
sg5
g9
ssVABC022-S
p592
(dp593
g3
g4
sg5
g9
ssVPRI070-S
p594
(dp595
g3
g14
sg5
g15
ssVMLH712-POS1
p596
(dp597
g3
g4
sg5
g9
ssVQUK105-POS1
p598
(dp599
g3
g4
sg5
g274
ssVQUK021-POS1
p600
(dp601
g3
g4
sg5
g9
ssVABC031-S
p602
(dp603
g3
g4
sg5
g9
ssVPRK096-S
p604
(dp605
g3
g4
sg5
g9
ssVGLE080-POS1
p606
(dp607
g3
g4
sg5
g9
ssVMNH028-POS1
p608
(dp609
g3
g4
sg5
g9
ssVMNH049-S
p610
(dp611
g3
g14
sg5
g15
ssVGLE064-POS1
p612
(dp613
g3
Nsg5
NssVQUK222-POS1
p614
(dp615
g3
g4
sg5
g277
ssVMLH021-POS1
p616
(dp617
g3
g4
sg5
g9
ssVQUK730-POS1
p618
(dp619
g3
g4
sg5
g9
ssVMLH081-POS1
p620
(dp621
g3
g4
sg5
g9
ssVRPD075-POS1
p622
(dp623
g3
g4
sg5
g9
ssVQUK715-POS1
p624
(dp625
g3
g4
sg5
g9
ssV_AlexPC
p626
(dp627
g3
g4
sg5
V2014-03-31 14:17:00.000
p628
ssVIPK006-POS1
p629
(dp630
g3
Nsg5
NssVMLH057-POS1
p631
(dp632
g3
g14
sg5
g126
ssVMLH258-POS2
p633
(dp634
g3
g14
sg5
g126
ssVTSQ074-S
p635
(dp636
g3
g4
sg5
g9
ssVMLH258-POS1
p637
(dp638
g3
g14
sg5
g126
ssVGMC060-POS1
p639
(dp640
g3
g4
sg5
g9
ssVGMC060-POS2
p641
(dp642
g3
g4
sg5
g9
ssVEPA001-POS1
p643
(dp644
g3
g4
sg5
g6
ssVPRK009-S
p645
(dp646
g3
g14
sg5
g45
ssVTSQ135-POS1
p647
(dp648
g3
g4
sg5
g9
ssVMLH057-POS2
p649
(dp650
g3
g14
sg5
g126
ssVTIS004-POS1
p651
(dp652
g3
g4
sg5
g9
ssVABC089-S
p653
(dp654
g3
g4
sg5
g9
ssVRPD003-S
p655
(dp656
g3
g4
sg5
g9
ssVGMC017-POS2
p657
(dp658
g3
g4
sg5
g9
ssVGMC017-POS1
p659
(dp660
g3
g4
sg5
g9
ssVMLH753-POS1
p661
(dp662
g3
g14
sg5
g126
ssVMLH753-POS2
p663
(dp664
g3
g14
sg5
g126
ssVQUK703-POS1
p665
(dp666
g3
g4
sg5
g9
ssVQUK025-POS1
p667
(dp668
g3
g4
sg5
g9
ssV_VingPC
p669
(dp670
g3
g4
sg5
V2015-03-10 13:24:00.000
p671
ssVMLH001-POS2
p672
(dp673
g3
g14
sg5
g126
ssVKIN045-POS1
p674
(dp675
g3
g4
sg5
g9
ssVQUK705-POS1
p676
(dp677
g3
g4
sg5
g9
ssVABC005-S
p678
(dp679
g3
g4
sg5
g9
ssVMLH080-POS1
p680
(dp681
g3
g4
sg5
g9
ssVKIN051-POS1
p682
(dp683
g3
g4
sg5
g9
ssVABC239-S
p684
(dp685
g3
g4
sg5
g9
ssVRDN069-S
p686
(dp687
g3
g4
sg5
g9
ssVGLE092-POS1
p688
(dp689
g3
g4
sg5
g9
ssVABC012-POS1
p690
(dp691
g3
g4
sg5
V2012-11-19 13:36:00.000
p692
ssVMLH001-POS1
p693
(dp694
g3
g14
sg5
g126
ssVEXP001-H
p695
(dp696
g3
VWindows Vista Home Premium
p697
sg5
V2007-10-15 13:13:00.000
p698
ssVQUK701-POS1
p699
(dp700
g3
g4
sg5
g6
ssVMAURICIOC-TKTWIN7
p701
(dp702
g3
VWindows 10 Pro
p703
sg5
V2015-09-10 10:00:00.000
p704
ssVCCP001-W1
p705
(dp706
g3
g4
sg5
g81
ssVKIN069-POS1
p707
(dp708
g3
g4
sg5
g9
ssVABC007-S
p709
(dp710
g3
g4
sg5
g9
ssVGLE079-POS1
p711
(dp712
g3
g4
sg5
g9
ssVGMC085-S
p713
(dp714
g3
g14
sg5
NssVSYL071-S
p715
(dp716
g3
g4
sg5
g9
ssVQUK036-POS1
p717
(dp718
g3
g4
sg5
g9
ssVKIN017-POS1
p719
(dp720
g3
g4
sg5
g9
ssVABC232-S
p721
(dp722
g3
g4
sg5
g9
ssVQUK586-SERVER
p723
(dp724
g3
g4
sg5
g9
ssVGMC045-POS1
p725
(dp726
g3
g4
sg5
g9
ssVABC231-S
p727
(dp728
g3
g4
sg5
g9
ssVQUK575-POS1
p729
(dp730
g3
g4
sg5
g6
ssVQUK053-POS1
p731
(dp732
g3
g4
sg5
g9
ssVSEL145-S
p733
(dp734
g3
g14
sg5
g15
ssVMNH190-S
p735
(dp736
g3
g14
sg5
g15
ssVMLH749-POS1
p737
(dp738
g3
g4
sg5
g9
ssVABC026-S
p739
(dp740
g3
g4
sg5
g9
ssVVGC057-POS1
p741
(dp742
g3
g4
sg5
g9
ssVTSQ056-S
p743
(dp744
g3
g4
sg5
g9
ssVMLH064-POS2
p745
(dp746
g3
g14
sg5
g126
ssVMLH064-POS1
p747
(dp748
g3
g14
sg5
g126
ssVTSQ012-S
p749
(dp750
g3
g4
sg5
g81
ssVGMC083-POS1
p751
(dp752
g3
g4
sg5
g9
ssVKIN230-POS1
p753
(dp754
g3
g4
sg5
g9
ssVMLH006-POS1
p755
(dp756
g3
g4
sg5
g9
ssVMLH745-POS1
p757
(dp758
g3
g4
sg5
g277
ssVMLH713-POS1
p759
(dp760
g3
g4
sg5
g9
ssVKIN014-POS1
p761
(dp762
g3
g4
sg5
g9
ssVFBR001-POS1
p763
(dp764
g3
g4
sg5
g6
ssVEZP002-S
p765
(dp766
g3
g14
sg5
g15
ssVGLE060-POS1
p767
(dp768
g3
g4
sg5
g9
ssVGLE060-POS2
p769
(dp770
g3
g4
sg5
g9
ssVABC056-S
p771
(dp772
g3
g4
sg5
g9
ssVMLH035-POS1
p773
(dp774
g3
g4
sg5
g9
ssVMNH041-POS1
p775
(dp776
g3
g4
sg5
g277
ssVQUK252-S
p777
(dp778
g3
g4
sg5
g9
ssVMLH300-POS1
p779
(dp780
g3
g4
sg5
g277
ssVSYL014-S
p781
(dp782
g3
g4
sg5
g9
ssVSYL013-S
p783
(dp784
g3
g4
sg5
g9
ssVABC245-POS1
p785
(dp786
g3
g4
sg5
g6
ssVGLE246-POS1
p787
(dp788
g3
g4
sg5
g9
ssVMLH085-POS1
p789
(dp790
g3
g4
sg5
g9
ssVMAM117-S
p791
(dp792
g3
g4
sg5
g9
ssVQUK213-POS1
p793
(dp794
g3
g4
sg5
g9
ssVMLH737-POS1
p795
(dp796
g3
g14
sg5
g126
ssVCPS022-S 
p797
(dp798
g3
g4
sg5
g9
ssVABC021-S
p799
(dp800
g3
g4
sg5
g9
ssVMLH747-POS1
p801
(dp802
g3
g4
sg5
g9
ssVMLH037-POS2
p803
(dp804
g3
g14
sg5
g15
ssVMLH037-POS1
p805
(dp806
g3
g14
sg5
g15
ssVMLH724-POS1
p807
(dp808
g3
g4
sg5
g9
ssVMNH351-POS1
p809
(dp810
g3
g4
sg5
g9
ssVMLH370-POS2
p811
(dp812
g3
g14
sg5
g126
ssVMLH798-POS1
p813
(dp814
g3
g4
sg5
g9
ssVMNH046-POS1
p815
(dp816
g3
g4
sg5
g9
ssVMLH115-POS1
p817
(dp818
g3
g4
sg5
g277
ssVMLH115-POS2
p819
(dp820
g3
g4
sg5
g277
ssVOPI375-POS1
p821
(dp822
g3
g4
sg5
g6
ssVTIS015-POS1
p823
(dp824
g3
g4
sg5
g274
ssVMLH029-POS1
p825
(dp826
g3
g14
sg5
g15
ssVQUK633-POS1
p827
(dp828
g3
g4
sg5
g9
ssVABC001-S
p829
(dp830
g3
g4
sg5
g9
ssVSYL050-POS1
p831
(dp832
g3
g4
sg5
g9
ssVMNH007-POS1
p833
(dp834
g3
g4
sg5
g9
ssVABC002-S
p835
(dp836
g3
g4
sg5
g9
ssVMLH007-POS1
p837
(dp838
g3
g14
sg5
g126
ssVMLH026-POS1
p839
(dp840
g3
g4
sg5
g9
ssVMLH026-POS2
p841
(dp842
g3
g4
sg5
g9
ssVQUK714-POS1
p843
(dp844
g3
g4
sg5
g6
ssVABC229-POS2
p845
(dp846
g3
g4
sg5
g30
ssVMLH060-POS1
p847
(dp848
g3
g14
sg5
g15
ssVGLE085-POS1
p849
(dp850
g3
g4
sg5
g9
ssVABC079-W1
p851
(dp852
g3
g4
sg5
g9
ssVGOT004-S
p853
(dp854
g3
Nsg5
NssVSHH001-POS1
p855
(dp856
g3
g4
sg5
g6
ssVSHH001-POS2
p857
(dp858
g3
g4
sg5
g6
ssVTIS011-POS1
p859
(dp860
g3
g4
sg5
g9
ssVQUK196-POS1
p861
(dp862
g3
g4
sg5
g9
ssVSPN200-S
p863
(dp864
g3
g14
sg5
g45
ssVGMC048-POS1
p865
(dp866
g3
g4
sg5
g9
ssVABC228-S
p867
(dp868
g3
g4
sg5
g9
ssVQUK158-POS1
p869
(dp870
g3
g4
sg5
g9
ssVMNH040-S
p871
(dp872
g3
g14
sg5
g15
ssVRPD076-POS1
p873
(dp874
g3
g4
sg5
g9
ssVQUK152-S
p875
(dp876
g3
g4
sg5
g81
ssVINT200-POS1
p877
(dp878
g3
g4
sg5
g6
ssVCPS006-S
p879
(dp880
g3
g4
sg5
g9
ssVABC084-S
p881
(dp882
g3
g4
sg5
g9
ssVMLH111-POS1
p883
(dp884
g3
g14
sg5
g15
ssVMLH111-POS2
p885
(dp886
g3
g14
sg5
g15
ssVOPI040-POS1
p887
(dp888
g3
g4
sg5
g6
ssVMLH160-POS1
p889
(dp890
g3
g4
sg5
g9
ssVABC027-S
p891
(dp892
g3
g4
sg5
g9
ssVABC073-S
p893
(dp894
g3
g4
sg5
g9
ssVINT502-POS1
p895
(dp896
g3
g4
sg5
g9
ssVABC247-POS1
p897
(dp898
g3
g4
sg5
g692
ssVMLH053-POS1
p899
(dp900
g3
g14
sg5
g126
ssVMLH019-POS2
p901
(dp902
g3
g4
sg5
g9
ssVMLH019-POS1
p903
(dp904
g3
g4
sg5
g9
ssVMLH053-POS2
p905
(dp906
g3
g14
sg5
g126
ssVQUK708-POS1
p907
(dp908
g3
g4
sg5
g9
ssVGMC086-POS1
p909
(dp910
g3
g4
sg5
g9
ssVMLH076-POS1
p911
(dp912
g3
g14
sg5
g15
ssVMLH076-POS2
p913
(dp914
g3
g14
sg5
g15
ssVABC054-S
p915
(dp916
g3
g4
sg5
g9
ssVABC062-S
p917
(dp918
g3
g4
sg5
g9
ssVQUK012-POS1
p919
(dp920
g3
g4
sg5
g274
ssVKIN009-POS1
p921
(dp922
g3
g4
sg5
g9
ssVTSQ010-W1
p923
(dp924
g3
g4
sg5
g81
ssVMLH032-POS1
p925
(dp926
g3
g14
sg5
g126
ssVMLH032-POS2
p927
(dp928
g3
g14
sg5
g126
ssVMLH032-POS3
p929
(dp930
g3
g14
sg5
g126
ssVMLH071-POS1
p931
(dp932
g3
g14
sg5
g15
ssVGMC084-S
p933
(dp934
g3
g4
sg5
g9
ssVABC065-S
p935
(dp936
g3
g4
sg5
g9
ssVSYL011-S
p937
(dp938
g3
g4
sg5
g9
ssVMLH016-POS2
p939
(dp940
g3
g14
sg5
g15
ssVRPD061-POS2
p941
(dp942
g3
g4
sg5
g9
ssVRPD061-POS1
p943
(dp944
g3
g4
sg5
g9
ssVMLH016-POS1
p945
(dp946
g3
g14
sg5
g15
ssVMLH765-POS1
p947
(dp948
g3
g4
sg5
g9
ssVABC083-S
p949
(dp950
g3
g4
sg5
g9
ssVMLH094-POS1
p951
(dp952
g3
g14
sg5
g15
ssVMLH094-POS2
p953
(dp954
g3
g14
sg5
g15
ssVQUK101-POS1
p955
(dp956
g3
g4
sg5
g9
ssVABC099-S
p957
(dp958
g3
g4
sg5
g9
ssVRPD004-S
p959
(dp960
g3
g4
sg5
g9
ssVMNH054-POS1
p961
(dp962
g3
g4
sg5
g9
ssVMLH088-POS1
p963
(dp964
g3
g14
sg5
g15
ssVMLH260-POS1
p965
(dp966
g3
g4
sg5
g9
ssV_TroyPC
p967
(dp968
g3
g4
sg5
V2014-04-04 07:30:00.000
p969
ssVQUK028-POS1
p970
(dp971
g3
g4
sg5
g9
ssVQUK088-POS1
p972
(dp973
g3
Nsg5
NssVQUK038-POS1
p974
(dp975
g3
g4
sg5
g274
ssVSYL031-POS1
p976
(dp977
g3
g4
sg5
g9
ssVMLH768-POS1
p978
(dp979
g3
g14
sg5
g15
ssVRPD100-POS1
p980
(dp981
g3
g4
sg5
g9
ssVTSQ002-W1
p982
(dp983
g3
g4
sg5
g9
ssVABC129-POS1
p984
(dp985
g3
g4
sg5
g30
ssVMLH024-POS1
p986
(dp987
g3
g4
sg5
g9
ssVGMC044-S
p988
(dp989
g3
g4
sg5
g9
ssVGLE075-POS1
p990
(dp991
g3
g4
sg5
g9
ssVABC061-S
p992
(dp993
g3
g4
sg5
g9
ssV_JohnPC
p994
(dp995
g3
g4
sg5
V2013-08-12 16:52:00.000
p996
ssVINT018-S
p997
(dp998
g3
g4
sg5
g81
ssVMLH084-POS1
p999
(dp1000
g3
g4
sg5
g9
ssVTIS008-POS1
p1001
(dp1002
g3
g4
sg5
g9
ssVQUK250-S
p1003
(dp1004
g3
g4
sg5
g9
ssVMLH084-POS2
p1005
(dp1006
g3
g4
sg5
g9
ssVABC080-S
p1007
(dp1008
g3
g4
sg5
g9
ssVGLE088-POS1
p1009
(dp1010
g3
g4
sg5
g9
ssVQUK055-POS1
p1011
(dp1012
g3
g4
sg5
g9
ssVABC029-POS1
p1013
(dp1014
g3
g4
sg5
g30
ssVPAT002-POS1
p1015
(dp1016
g3
g4
sg5
g9
ssVMLH770-POS2
p1017
(dp1018
g3
g4
sg5
g9
ssVMLH770-POS1
p1019
(dp1020
g3
g4
sg5
g9
ssVQUK041-POS1
p1021
(dp1022
g3
g4
sg5
g9
ssVQUK624-POS1
p1023
(dp1024
g3
g4
sg5
g274
ssVMLH077-POS2
p1025
(dp1026
g3
g14
sg5
g15
ssVMLH077-POS1
p1027
(dp1028
g3
g14
sg5
g15
ssVMLH062-POS1
p1029
(dp1030
g3
g14
sg5
g15
ssVMLH062-POS2
p1031
(dp1032
g3
g4
sg5
g9
ssVABC088-S
p1033
(dp1034
g3
g4
sg5
g9
ssVMLH086-POS1
p1035
(dp1036
g3
g14
sg5
g15
ssVSYL016-S
p1037
(dp1038
g3
g14
sg5
g15
ssVGLE072-POS1
p1039
(dp1040
g3
g4
sg5
g9
ssVQUK049-POS2
p1041
(dp1042
g3
g4
sg5
g30
ssVRPD083-S
p1043
(dp1044
g3
g4
sg5
g9
ssVSYL015-S
p1045
(dp1046
g3
g4
sg5
g9
ssVQUK049-POS1
p1047
(dp1048
g3
g4
sg5
g30
ssVRPD079-POS1
p1049
(dp1050
g3
g4
sg5
g9
ssVVPN003-S
p1051
(dp1052
g3
g14
sg5
NssVVPN004-S
p1053
(dp1054
g3
g14
sg5
g126
ssVOPI001-POS1
p1055
(dp1056
g3
g4
sg5
g30
ssV_NickPC
p1057
(dp1058
g3
g4
sg5
g996
ssVOPI001-POS2
p1059
(dp1060
g3
g4
sg5
g30
ssVKIN077-POS1
p1061
(dp1062
g3
g4
sg5
g9
ssVGMC022-POS1
p1063
(dp1064
g3
g4
sg5
g9
ssVSYL001-W1
p1065
(dp1066
g3
g4
sg5
g9
ssVCPS031-S
p1067
(dp1068
g3
g4
sg5
g9
ssVAMP001-W1
p1069
(dp1070
g3
g4
sg5
g6
ssVABC256-POS1
p1071
(dp1072
g3
g4
sg5
g6
ssVSEL200-S
p1073
(dp1074
g3
Nsg5
NssVQUK485-POS1
p1075
(dp1076
g3
g4
sg5
g9
ssVQUK062-POS1
p1077
(dp1078
g3
g4
sg5
g274
ssVQUK099-POS1
p1079
(dp1080
g3
g4
sg5
g9
ssVABC246-S
p1081
(dp1082
g3
g4
sg5
g9
ssVQUK095-POS2
p1083
(dp1084
g3
g4
sg5
g9
ssVQUK095-POS1
p1085
(dp1086
g3
g4
sg5
g9
ssVMLH020-POS2
p1087
(dp1088
g3
g4
sg5
g9
ssVMLH020-POS1
p1089
(dp1090
g3
g4
sg5
g9
ssVMLH104-POS1
p1091
(dp1092
g3
g4
sg5
g9
ssVMLH056-POS2
p1093
(dp1094
g3
g4
sg5
g277
ssVABC006-S
p1095
(dp1096
g3
g4
sg5
g9
ssVMLH759-POS1
p1097
(dp1098
g3
g4
sg5
g6
ssVEZP001-S
p1099
(dp1100
g3
g14
sg5
g15
ssVKIN150-POS1
p1101
(dp1102
g3
g4
sg5
g9
ssVQUK089-POS1
p1103
(dp1104
g3
g4
sg5
g9
ssVABC254-POS1
p1105
(dp1106
g3
g4
sg5
g6
ssVQUK742-POS1
p1107
(dp1108
g3
g4
sg5
g6
ssVMLH022-POS1
p1109
(dp1110
g3
g4
sg5
g9
ssVMLH043-POS1
p1111
(dp1112
g3
g14
sg5
g15
ssVMLH718-POS1
p1113
(dp1114
g3
g14
sg5
g15
ssVMLH762-POS1
p1115
(dp1116
g3
g4
sg5
g6
ssVMLH721-POS1
p1117
(dp1118
g3
g4
sg5
g9
ssVMLH043-POS2
p1119
(dp1120
g3
g14
sg5
g15
ssVMLH012-POS1
p1121
(dp1122
g3
g4
sg5
g9
ssVPVP001-POS1
p1123
(dp1124
g3
g14
sg5
g126
ssVMLH090-POS1
p1125
(dp1126
g3
g14
sg5
g126
ssVMLH090-POS2
p1127
(dp1128
g3
g14
sg5
g126
ssVMLH011-POS1
p1129
(dp1130
g3
g4
sg5
g9
ssVABC068-S
p1131
(dp1132
g3
g4
sg5
g9
ssVMLH063-POS1
p1133
(dp1134
g3
g4
sg5
g9
ssVMLH054-POS1
p1135
(dp1136
g3
g4
sg5
g9
ssVMLH056-POS1
p1137
(dp1138
g3
g4
sg5
g277
ssVQUK086-POS1
p1139
(dp1140
g3
g4
sg5
g274
ssVABC259-POS1
p1141
(dp1142
g3
g4
sg5
g6
ssVABC063-S
p1143
(dp1144
g3
g4
sg5
g9
ssVQUK236-POS1
p1145
(dp1146
g3
g4
sg5
g9
ssVABC047-POS1
p1147
(dp1148
g3
g4
sg5
g30
ssVMLH726-POS1
p1149
(dp1150
g3
g4
sg5
g9
ssVMLH764-POS1
p1151
(dp1152
g3
g14
sg5
g15
ssVMLH723-POS1
p1153
(dp1154
g3
g4
sg5
g9
ssVABC233-S
p1155
(dp1156
g3
g4
sg5
g30
ssVMLH711-POS1
p1157
(dp1158
g3
g4
sg5
g9
ssVPPA010-S
p1159
(dp1160
g3
g14
sg5
g15
ssVRDN067-S
p1161
(dp1162
g3
g4
sg5
g9
ssVMLH033-POS1
p1163
(dp1164
g3
g4
sg5
g9
ssVOPI500-POS1
p1165
(dp1166
g3
g14
sg5
NssVMAURICIO-WIN7-HOME
p1167
(dp1168
g3
VWindows 10 Pro x64 Edition
p1169
sg5
V2015-08-11 23:14:00.000
p1170
ssVMLH092-POS1
p1171
(dp1172
g3
g4
sg5
g9
ssVMLH735-POS1
p1173
(dp1174
g3
g4
sg5
g9
ssV_WilliamPC
p1175
(dp1176
g3
g14
sg5
V2014-02-06 08:29:00.000
p1177
ssVABC212-POS1
p1178
(dp1179
g3
g4
sg5
g30
ssVABC046-S
p1180
(dp1181
g3
g4
sg5
g9
ssVPVP005-POS1
p1182
(dp1183
g3
g4
sg5
g6
ssVKIN058-POS1
p1184
(dp1185
g3
g4
sg5
g9
ssVQUK390-POS1
p1186
(dp1187
g3
g4
sg5
g9
ssVMLH036-POS1
p1188
(dp1189
g3
g14
sg5
g126
ssVGLE004-POS2
p1190
(dp1191
g3
g4
sg5
g9
ssV_UltraPC-Test
p1192
(dp1193
g3
g4
sg5
g9
ssVQUK635-POS1
p1194
(dp1195
g3
g4
sg5
g9
ssVGLE004-POS1
p1196
(dp1197
g3
g4
sg5
g9
ssVABC226-POS1
p1198
(dp1199
g3
g4
sg5
g30
ssVQUK350-POS1
p1200
(dp1201
g3
g4
sg5
g9
ssVGMC009-POS1
p1202
(dp1203
g3
g4
sg5
g9
ssVGMC009-POS2
p1204
(dp1205
g3
g4
sg5
g9
ssVGMC009-POS3
p1206
(dp1207
g3
g4
sg5
g9
ssVCPS036-S
p1208
(dp1209
g3
g4
sg5
g9
ssVIPK201-POS1
p1210
(dp1211
g3
g4
sg5
g9
ssVMNH048-POS1
p1212
(dp1213
g3
g4
sg5
g9
ssVMLH075-POS1
p1214
(dp1215
g3
g14
sg5
g126
ssVMLH075-POS2
p1216
(dp1217
g3
g14
sg5
g126
ssVABC097-W1
p1218
(dp1219
g3
g4
sg5
g9
ssVGMC006-POS1
p1220
(dp1221
g3
g4
sg5
g9
ssVRDN280-S
p1222
(dp1223
g3
g4
sg5
g9
ssVCPS014-S
p1224
(dp1225
g3
g4
sg5
g9
ssVSEL400-S
p1226
(dp1227
g3
g14
sg5
g45
ssVKIN034-POS1
p1228
(dp1229
g3
g4
sg5
g9
ssVKIN038-POS1
p1230
(dp1231
g3
g4
sg5
g9
ssVKIN038-POS2
p1232
(dp1233
g3
g4
sg5
g9
ssVMLH028-POS1
p1234
(dp1235
g3
g4
sg5
g9
ssVMLH036-POS2
p1236
(dp1237
g3
g14
sg5
g126
ssVCCP001-S
p1238
(dp1239
g3
g4
sg5
g81
ssVMNH165-POS1
p1240
(dp1241
g3
g4
sg5
g9
ssVQUK710-POS1
p1242
(dp1243
g3
g4
sg5
g9
ssVABC082-S
p1244
(dp1245
g3
g4
sg5
g9
ssVMLH012-POS2
p1246
(dp1247
g3
g4
sg5
g9
ssVKIN063-POS1
p1248
(dp1249
g3
g4
sg5
g9
ssVRPD055-S
p1250
(dp1251
g3
g4
sg5
g9
ssVMNH012-POS1
p1252
(dp1253
g3
g4
sg5
g9
ssVGMC067-POS1
p1254
(dp1255
g3
g4
sg5
g9
ssVAMP001-S
p1256
(dp1257
g3
g4
sg5
g6
ssVCPS034-S
p1258
(dp1259
g3
g4
sg5
g9
ssVPRK415-S
p1260
(dp1261
g3
g14
sg5
g45
ssVMNH014-S
p1262
(dp1263
g3
g14
sg5
g45
ssVQUK010-POS1
p1264
(dp1265
g3
g4
sg5
g9
ssVABC221-POS1
p1266
(dp1267
g3
g4
sg5
g30
ssVGLE056-POS1
p1268
(dp1269
g3
g4
sg5
g9
ssVQUK091-POS1
p1270
(dp1271
g3
g4
sg5
g9
ssVABC224-S
p1272
(dp1273
g3
g4
sg5
g9
ssVGLE073-POS1
p1274
(dp1275
g3
g4
sg5
g9
ssVQUK731-POS1
p1276
(dp1277
g3
g4
sg5
g6
ssVSPN003-S
p1278
(dp1279
g3
g4
sg5
g81
ssVRPD001-POS1
p1280
(dp1281
g3
g4
sg5
g9
ssVSEL076-S
p1282
(dp1283
g3
g14
sg5
g416
ssVVPN007-POS1
p1284
(dp1285
g3
g4
sg5
g30
ssVABC223-S
p1286
(dp1287
g3
g4
sg5
g30
ssVMLH704-POS1
p1288
(dp1289
g3
g4
sg5
g9
ssVRGC015-S
p1290
(dp1291
g3
g14
sg5
V2007-11-05 13:36:00.000
p1292
ssVRPD039-POS1
p1293
(dp1294
g3
g4
sg5
g9
ssVTECHNICIAN-PC
p1295
(dp1296
g3
g4
sg5
V2014-02-05 16:24:00.000
p1297
ssVQUK050-POS1
p1298
(dp1299
g3
g4
sg5
g30
ssVPRK029-S
p1300
(dp1301
g3
g14
sg5
g15
ssVGLE091-POS1
p1302
(dp1303
g3
g4
sg5
g9
ssVTIS005-POS1
p1304
(dp1305
g3
g4
sg5
g9
ssVVPN005-POS1
p1306
(dp1307
g3
g4
sg5
g6
ssVPRK077-S
p1308
(dp1309
g3
g4
sg5
g9
ssVEXP001-W1
p1310
(dp1311
g3
g14
sg5
g126
ssVKIN010-POS1
p1312
(dp1313
g3
g4
sg5
g9
ssVMNH002-POS1
p1314
(dp1315
g3
g4
sg5
g9
ssVMNH071-S
p1316
(dp1317
g3
g4
sg5
g9
ssVGMC052-POS1
p1318
(dp1319
g3
g4
sg5
g9
ssVABC087-POS1
p1320
(dp1321
g3
g4
sg5
g30
ssVABC041-S
p1322
(dp1323
g3
g4
sg5
g9
ssVSEL054-S
p1324
(dp1325
g3
g14
sg5
g15
ssVABC252-POS1
p1326
(dp1327
g3
g4
sg5
g6
ssVGLE077-POS1
p1328
(dp1329
g3
g4
sg5
g9
ssVMLH082-POS1
p1330
(dp1331
g3
g4
sg5
g9
ssVMLH078-POS2
p1332
(dp1333
g3
g14
sg5
g15
ssVMNH004-POS1
p1334
(dp1335
g3
g4
sg5
g9
ssVMLH078-POS1
p1336
(dp1337
g3
g14
sg5
g15
ssVABC009-POS1
p1338
(dp1339
g3
g4
sg5
g30
ssVMLH098-POS1
p1340
(dp1341
g3
g14
sg5
g15
ssVMLH161-POS2
p1342
(dp1343
g3
g4
sg5
g277
ssVMLH161-POS1
p1344
(dp1345
g3
g4
sg5
g277
ssVABC222-POS1
p1346
(dp1347
g3
g4
sg5
g6
ssVPPA030-S
p1348
(dp1349
g3
g4
sg5
g6
ssVTSQ029-S
p1350
(dp1351
g3
g4
sg5
g9
ssVQUK093-POS1
p1352
(dp1353
g3
g4
sg5
g9
ssVABC017-POS1
p1354
(dp1355
g3
g4
sg5
g9
ssVMLH257-POS3
p1356
(dp1357
g3
g4
sg5
g9
ssVMLH257-POS2
p1358
(dp1359
g3
g4
sg5
g9
ssVMLH257-POS1
p1360
(dp1361
g3
g4
sg5
g9
ssVMNH065-POS1
p1362
(dp1363
g3
g4
sg5
g9
ssVMLH004-POS1
p1364
(dp1365
g3
g4
sg5
g9
ssVABC244-POS2
p1366
(dp1367
g3
g4
sg5
g6
ssVMLH004-POS3
p1368
(dp1369
g3
g4
sg5
g9
ssVMLH004-POS2
p1370
(dp1371
g3
g4
sg5
g9
ssVMLH109-POS1
p1372
(dp1373
g3
g4
sg5
g277
ssVQUK779-POS1
p1374
(dp1375
g3
g4
sg5
g6
ssVMLH109-POS2
p1376
(dp1377
g3
g4
sg5
g277
ssVMLH095-POS1
p1378
(dp1379
g3
g14
sg5
g126
ssVTSQ203-POS1
p1380
(dp1381
g3
g4
sg5
g9
ssVABC244-POS1
p1382
(dp1383
g3
g4
sg5
g6
ssVQUK808-POS1
p1384
(dp1385
g3
g4
sg5
g9
ssVKIN015-POS1
p1386
(dp1387
g3
g4
sg5
g9
ssVMNH055-POS1
p1388
(dp1389
g3
g4
sg5
g9
ssVABC250-POS1
p1390
(dp1391
g3
g4
sg5
g30
ssVGLE001-POS1
p1392
(dp1393
g3
g4
sg5
g9
ssVKIN040-POS2
p1394
(dp1395
g3
g4
sg5
g9
ssVVFC001-POS1
p1396
(dp1397
g3
g4
sg5
g274
ssVKIN040-POS1
p1398
(dp1399
g3
g4
sg5
g9
ssVABC193-POS1
p1400
(dp1401
g3
g4
sg5
g6
ssVTSQ204-S 
p1402
(dp1403
g3
g4
sg5
g9
ssVTIS001-POS1
p1404
(dp1405
g3
g4
sg5
g9
ssVMLH155-POS1
p1406
(dp1407
g3
g14
sg5
g126
ssVMLH155-POS2
p1408
(dp1409
g3
g14
sg5
g126
ssVTIS006-POS2
p1410
(dp1411
g3
g4
sg5
g9
ssVQUK712-POS1
p1412
(dp1413
g3
g4
sg5
g9
ssVTIS006-POS1
p1414
(dp1415
g3
g4
sg5
g9
ssVABC077-S
p1416
(dp1417
g3
g4
sg5
g9
ssVRPD020-POS1
p1418
(dp1419
g3
g4
sg5
g9
ssVQUK711-POS1
p1420
(dp1421
g3
g4
sg5
g9
ssVTSQ201-POS2
p1422
(dp1423
g3
g4
sg5
g9
ssVMLH233-POS1
p1424
(dp1425
g3
g4
sg5
g9
ssVMLH666-POS1
p1426
(dp1427
g3
g4
sg5
g9
ssVMLH709-POS1
p1428
(dp1429
g3
g4
sg5
g9
ssVMLH233-POS2
p1430
(dp1431
g3
g4
sg5
g9
ssVMLH740-POS1
p1432
(dp1433
g3
g4
sg5
g9
ssVMLH769-POS1
p1434
(dp1435
g3
g4
sg5
g9
ssVGLE002-POS2
p1436
(dp1437
g3
g4
sg5
g9
ssVMLH729-POS1
p1438
(dp1439
g3
g4
sg5
g9
ssVSEL001-S
p1440
(dp1441
g3
g14
sg5
g15
ssVMLH049-POS2
p1442
(dp1443
g3
g4
sg5
g9
ssVMLH049-POS1
p1444
(dp1445
g3
g4
sg5
g9
ssVSEL054-W1
p1446
(dp1447
g3
g14
sg5
g15
ssVQUK064-POS1
p1448
(dp1449
g3
g4
sg5
g9
ssVCPS054-S
p1450
(dp1451
g3
g4
sg5
g9
ssVAMP003-POS2
p1452
(dp1453
g3
g4
sg5
g6
ssVAMP003-POS1
p1454
(dp1455
g3
g4
sg5
g6
ssVMLH039-POS1
p1456
(dp1457
g3
g4
sg5
g9
ssVQUK022-POS1
p1458
(dp1459
g3
g4
sg5
g9
ssVTSQ045-S
p1460
(dp1461
g3
g4
sg5
g9
ssVSEL333-POS1
p1462
(dp1463
g3
g4
sg5
g9
ssVQUK361-POS1
p1464
(dp1465
g3
g4
sg5
g274
ssVABC227-S
p1466
(dp1467
g3
g4
sg5
g30
ssVSEL131-S
p1468
(dp1469
g3
g14
sg5
g15
ssVMLH014-POS2
p1470
(dp1471
g3
g14
sg5
g126
ssVINT009-POS1
p1472
(dp1473
g3
g4
sg5
g6
ssVABC253-POS2
p1474
(dp1475
g3
g4
sg5
g9
ssVABC226-S
p1476
(dp1477
g3
g4
sg5
g30
ssVMLH880-POS3
p1478
(dp1479
g3
g14
sg5
g126
ssVQUK340-POS1
p1480
(dp1481
g3
g4
sg5
g274
ssVABC237-S
p1482
(dp1483
g3
g4
sg5
g30
ssVMLH880-POS2
p1484
(dp1485
g3
g14
sg5
g126
ssVSEL185-W1
p1486
(dp1487
g3
g14
sg5
g15
ssVSPN002-S
p1488
(dp1489
g3
g14
sg5
g45
ssVMNH173-S
p1490
(dp1491
g3
g4
sg5
g81
ssVMLH105-POS1
p1492
(dp1493
g3
g14
sg5
g15
ssVABC255-POS1
p1494
(dp1495
g3
g4
sg5
g9
ssVMLH105-POS2
p1496
(dp1497
g3
g14
sg5
g15
ssVQUK311-POS1
p1498
(dp1499
g3
g4
sg5
g9
ssVMLH703-POS1
p1500
(dp1501
g3
g4
sg5
g9
ssVTSQ201-POS1
p1502
(dp1503
g3
g4
sg5
g9
ssVSEL005-W1
p1504
(dp1505
g3
g14
sg5
g15
ssVQUK189-POS1
p1506
(dp1507
g3
g4
sg5
g274
ssVMLH810-POS1
p1508
(dp1509
g3
g14
sg5
g126
ssVMLH810-POS2
p1510
(dp1511
g3
g14
sg5
g126
ssVABC092-S
p1512
(dp1513
g3
g4
sg5
g9
ssVPPA011-S
p1514
(dp1515
g3
g14
sg5
g15
ssVEEP005-S
p1516
(dp1517
g3
g4
sg5
g9
ssVQUK066-POS1
p1518
(dp1519
g3
g4
sg5
g274
ssVMLHOFFICE-PC
p1520
(dp1521
g3
g110
sg5
V2016-02-09 08:29:00.000
p1522
ssVMLH107-POS1
p1523
(dp1524
g3
g14
sg5
g15
ssVQUK102-POS1
p1525
(dp1526
g3
g4
sg5
g6
ssVGMC063-POS1
p1527
(dp1528
g3
g4
sg5
g9
ssVMLH027-POS1
p1529
(dp1530
g3
g4
sg5
g9
ssVRDN052-POS2
p1531
(dp1532
g3
g4
sg5
g9
ssVRDN052-POS1
p1533
(dp1534
g3
g4
sg5
g9
ssVABC010-S
p1535
(dp1536
g3
g4
sg5
g9
ssVMLH017-POS1
p1537
(dp1538
g3
g4
sg5
g9
ssVGMC041-POS1
p1539
(dp1540
g3
g4
sg5
g9
ssVGOT153-S
p1541
(dp1542
g3
g14
sg5
g15
ssVGMC030-S
p1543
(dp1544
g3
g14
sg5
g45
ssVMLH048-POS1
p1545
(dp1546
g3
g4
sg5
g9
ssVVPN006-POS1
p1547
(dp1548
g3
g4
sg5
g6
ssVGMC035-POS1
p1549
(dp1550
g3
g4
sg5
g9
ssVABC223-POS1
p1551
(dp1552
g3
Nsg5
NssVMNH008-POS1
p1553
(dp1554
g3
g4
sg5
g9
ssVIPK202-POS1
p1555
(dp1556
g3
g4
sg5
g9
ssVSEL088-POS1
p1557
(dp1558
g3
g4
sg5
g9
ssVABC253-POS1
p1559
(dp1560
g3
g4
sg5
g6
ssVABC243-S
p1561
(dp1562
g3
g4
sg5
g30
ssVMLH710-POS1
p1563
(dp1564
g3
g4
sg5
g9
ssVRPD080-POS1
p1565
(dp1566
g3
g4
sg5
g9
ssVQUK027-POS1
p1567
(dp1568
g3
g4
sg5
g9
ssVMLH009-POS2
p1569
(dp1570
g3
g4
sg5
g9
ssVRPD001-POS2
p1571
(dp1572
g3
g4
sg5
g9
ssVAMP516-S
p1573
(dp1574
g3
Nsg5
NssVMLH009-POS1
p1575
(dp1576
g3
g4
sg5
g9
ssVPRI001-S
p1577
(dp1578
g3
g14
sg5
g15
ssVMLH731-POS1
p1579
(dp1580
g3
g14
sg5
g126
ssVMLH068-POS1
p1581
(dp1582
g3
g4
sg5
g9
ssVQUK751-POS1
p1583
(dp1584
g3
g4
sg5
g6
ssVTSQ020-S
p1585
(dp1586
g3
g4
sg5
g9
ssVGMC090-POS1
p1587
(dp1588
g3
g4
sg5
g9
ssVMLH758-POS1
p1589
(dp1590
g3
g4
sg5
g6
ssVGLE002-POS1
p1591
(dp1592
g3
g4
sg5
g9
ssVMLH758-POS3
p1593
(dp1594
g3
g4
sg5
g6
ssVMLH758-POS2
p1595
(dp1596
g3
g4
sg5
g6
ssVMLH736-POS1
p1597
(dp1598
g3
g4
sg5
g9
ssVPVP004-POS1
p1599
(dp1600
g3
g4
sg5
g6
ssVMLH435-POS1
p1601
(dp1602
g3
g14
sg5
g15
ssVKIN022-POS1
p1603
(dp1604
g3
g4
sg5
g9
ssVMLH083-POS1
p1605
(dp1606
g3
g4
sg5
g9
ssVMLH888-KIOSK
p1607
(dp1608
g3
g14
sg5
V2011-01-06 06:26:00.000
p1609
ssVABC077-W1
p1610
(dp1611
g3
g4
sg5
g9
ssVMLH755-POS1
p1612
(dp1613
g3
g14
sg5
g126
ssVABC044-POS1
p1614
(dp1615
g3
g4
sg5
g6
ssVMLH117-POS2
p1616
(dp1617
g3
g14
sg5
g15
ssVTSQ002-S
p1618
(dp1619
g3
g4
sg5
g9
ssVMLH117-POS1
p1620
(dp1621
g3
g14
sg5
g15
ssVQUK076-POS1
p1622
(dp1623
g3
g4
sg5
g274
ssVKIN309-POS1
p1624
(dp1625
g3
g4
sg5
g9
ssVMLH025-POS1
p1626
(dp1627
g3
g14
sg5
g126
ssVMLH025-POS2
p1628
(dp1629
g3
g14
sg5
g126
ssVABC075-S
p1630
(dp1631
g3
g4
sg5
g9
ssVMAM060-POS1
p1632
(dp1633
g3
g4
sg5
g9
ssVMLH110-POS3
p1634
(dp1635
g3
g4
sg5
g9
ssVMLH008-POS1
p1636
(dp1637
g3
Nsg5
NssVMLH008-POS2
p1638
(dp1639
g3
g14
sg5
g15
ssVMLH744-POS1
p1640
(dp1641
g3
g4
sg5
g9
ssVMLH066-POS1
p1642
(dp1643
g3
g14
sg5
g15
ssVMLH701-POS2
p1644
(dp1645
g3
g4
sg5
g9
ssVMLH701-POS1
p1646
(dp1647
g3
g4
sg5
g9
ssVMLH066-POS2
p1648
(dp1649
g3
g14
sg5
g15
ssVIPK203-POS1
p1650
(dp1651
g3
g4
sg5
g9
ssVMNH050-S
p1652
(dp1653
g3
g14
sg5
g15
ssVGMC028-POS1
p1654
(dp1655
g3
g4
sg5
g9
ssVABC251-POS1
p1656
(dp1657
g3
g4
sg5
g6
ssVTSQ095-POS1
p1658
(dp1659
g3
g4
sg5
g9
ssVMLH087-POS1
p1660
(dp1661
g3
g14
sg5
g15
ssVMLH087-POS2
p1662
(dp1663
g3
g14
sg5
g15
ssVMLH074-POS1
p1664
(dp1665
g3
g14
sg5
g15
ssVQUK116-POS1
p1666
(dp1667
g3
g4
sg5
g9
ssVQUK727-POS1
p1668
(dp1669
g3
g4
sg5
g6
ssVTSQ205-S
p1670
(dp1671
g3
g14
sg5
g15
ssVQUK732-POS1
p1672
(dp1673
g3
g4
sg5
g6
ssVABC011-S
p1674
(dp1675
g3
g4
sg5
g9
ssVRPD070-POS1
p1676
(dp1677
g3
g4
sg5
g9
ssVABC066-POS1
p1678
(dp1679
g3
g4
sg5
g6
ssVMLH751-POS3
p1680
(dp1681
g3
g4
sg5
g9
ssVMLH116-POS1
p1682
(dp1683
g3
g14
sg5
g15
ssVMLH730-POS1
p1684
(dp1685
g3
g4
sg5
g9
ssVMLH706-POS1
p1686
(dp1687
g3
g4
sg5
g9
ssVQUK752-POS1
p1688
(dp1689
g3
g4
sg5
g9
ssVMNH350-POS1
p1690
(dp1691
g3
g4
sg5
g9
ssVGMC018-S
p1692
(dp1693
g3
g4
sg5
g9
ssVABC078-S
p1694
(dp1695
g3
g4
sg5
g9
ssVRDN021-POS1
p1696
(dp1697
g3
g4
sg5
g30
ssVOPI003-POS1
p1698
(dp1699
g3
g4
sg5
g9
ssVRDN021-POS2
p1700
(dp1701
g3
g4
sg5
g9
ssVTSQ009-S
p1702
(dp1703
g3
g4
sg5
g9
ssVMLH015-POS1
p1704
(dp1705
g3
g4
sg5
g9
ssVMLH051-POS2
p1706
(dp1707
g3
g14
sg5
g126
ssVMLH051-POS1
p1708
(dp1709
g3
g14
sg5
g126
ssVSEL081-S
p1710
(dp1711
g3
g14
sg5
g15
ssVHIL175-S
p1712
(dp1713
g3
g14
sg5
g45
ssVMLH722-POS1
p1714
(dp1715
g3
g4
sg5
g9
ssVMAM053-S
p1716
(dp1717
g3
g4
sg5
g9
ssVMLH245-POS1
p1718
(dp1719
g3
g14
sg5
g15
ssVQUK301-POS1
p1720
(dp1721
g3
g4
sg5
g274
ssVMAM074-POS1
p1722
(dp1723
g3
g4
sg5
g9
ssVQUK360-POS1
p1724
(dp1725
g3
g4
sg5
g9
ssVOPI034-POS1
p1726
(dp1727
g3
g4
sg5
g9
ssVMPK064-SERVER
p1728
(dp1729
g3
g4
sg5
g30
ssVABC041-W1
p1730
(dp1731
g3
g4
sg5
g9
ssVMLH705-POS1
p1732
(dp1733
g3
g4
sg5
g9
ssVMLH093-POS1
p1734
(dp1735
g3
g14
sg5
g15
ssVQUK709-POS1
p1736
(dp1737
g3
g4
sg5
g274
ssVMLH715-POS1
p1738
(dp1739
g3
g4
sg5
g9
ssVOPI001-KIOSK
p1740
(dp1741
g3
Nsg5
NssVMLH738-POS1
p1742
(dp1743
g3
g4
sg5
g9
ssVMNH030-S
p1744
(dp1745
g3
g14
sg5
g15
ssVGMC031-S
p1746
(dp1747
g3
g4
sg5
g9
ssVABC014-S
p1748
(dp1749
g3
g4
sg5
g9
ssVMLH707-POS1
p1750
(dp1751
g3
g4
sg5
g9
ssVMLH756-POS1
p1752
(dp1753
g3
g4
sg5
g9
ssVGOT139-S
p1754
(dp1755
g3
g14
sg5
g15
ssVMLH751-POS2
p1756
(dp1757
g3
g4
sg5
g9
ssVABC016-S
p1758
(dp1759
g3
g4
sg5
g9
ssVMLH751-POS1
p1760
(dp1761
g3
g4
sg5
g9
ssVINT029-S
p1762
(dp1763
g3
Nsg5
NssVMLH769-POS2
p1764
(dp1765
g3
g4
sg5
g9
ssVMPI002-S
p1766
(dp1767
g3
g14
sg5
g15
ssVABC225-S
p1768
(dp1769
g3
g4
sg5
g30
ssVKIN545-POS1
p1770
(dp1771
g3
g4
sg5
g277
ssVKIN062-POS2
p1772
(dp1773
g3
g4
sg5
g9
ssVMLH010-POS1
p1774
(dp1775
g3
g14
sg5
g126
ssVMLH010-POS2
p1776
(dp1777
g3
g14
sg5
g126
ssVKIN062-POS1
p1778
(dp1779
g3
g4
sg5
g9
ss.