(dp0
VOPI040-POS2
p1
(dp2
Vtype
p3
VWindows 7 Professional
p4
sVinstallDate
p5
V2012-02-22 16:38:00.000
p6
ssVGMC088-POS1
p7
(dp8
Vtype
p9
VWindows 7 Professional
p10
sVinstallDate
p11
V2011-08-31 11:07:00.000
p12
ssVMLH717-POS1
p13
(dp14
Vtype
p15
VWindows 7 Professional
p16
sVinstallDate
p17
V2011-08-31 11:07:00.000
p18
ssVABC233-POS1
p19
(dp20
Vtype
p21
VWindows 7 Professional
p22
sVinstallDate
p23
V2014-02-18 09:11:00.000
p24
ssVMLH100-POS1
p25
(dp26
Vtype
p27
VWindows XP Professional
p28
sVinstallDate
p29
V2008-06-26 14:23:00.000
p30
ssVGLE081-POS1
p31
(dp32
Vtype
p33
VWindows 7 Professional
p34
sVinstallDate
p35
V2011-08-31 11:07:00.000
p36
ssVGMC025-POS1
p37
(dp38
Vtype
p39
VWindows 7 Professional
p40
sVinstallDate
p41
V2011-08-31 11:07:00.000
p42
ssVTIS010-POS1
p43
(dp44
Vtype
p45
VWindows 7 Professional
p46
sVinstallDate
p47
V2011-08-31 11:07:00.000
p48
ssVINT009-POS2
p49
(dp50
Vtype
p51
VWindows 7 Professional
p52
sVinstallDate
p53
V2012-02-22 16:38:00.000
p54
ssVQUK015-POS1
p55
(dp56
Vtype
p57
VWindows 7 Professional
p58
sVinstallDate
p59
V2011-08-31 11:07:00.000
p60
ssVQUK801-POS1
p61
(dp62
Vtype
p63
VWindows 7 Professional
p64
sVinstallDate
p65
V2011-08-31 11:07:00.000
p66
ssVINT046-POS1
p67
(dp68
Vtype
p69
VWindows 7 Professional
p70
sVinstallDate
p71
V2014-02-18 09:11:00.000
p72
ssVQUK024-POS1
p73
(dp74
Vtype
p75
VWindows 7 Professional
p76
sVinstallDate
p77
V2011-08-31 11:07:00.000
p78
ssVPAI002-S
p79
(dp80
Vtype
p81
VWindows XP Professional
p82
sVinstallDate
p83
V2008-06-26 14:23:00.000
p84
ssVMNH110-POS1
p85
(dp86
Vtype
p87
VWindows 7 Professional
p88
sVinstallDate
p89
V2011-08-31 11:07:00.000
p90
ssVGMC029-POS1
p91
(dp92
Vtype
p93
VWindows 7 Professional
p94
sVinstallDate
p95
V2011-08-31 11:07:00.000
p96
ssVRPD096-S
p97
(dp98
Vtype
p99
VWindows 7 Professional
p100
sVinstallDate
p101
V2011-08-31 11:07:00.000
p102
ssVABC094-POS1
p103
(dp104
Vtype
p105
VWindows 7 Professional
p106
sVinstallDate
p107
V2014-02-18 09:11:00.000
p108
ssVGMC066-S
p109
(dp110
Vtype
p111
VWindows XP Professional
p112
sVinstallDate
p113
V2007-05-15 15:50:00.000
p114
ssVTSQ200-S
p115
(dp116
Vtype
p117
VWindows 7 Professional
p118
sVinstallDate
p119
V2011-08-31 11:07:00.000
p120
ssVABC076-S
p121
(dp122
Vtype
p123
VWindows 7 Professional
p124
sVinstallDate
p125
V2011-08-31 11:07:00.000
p126
ssVPAI001-S
p127
(dp128
Vtype
p129
VWindows XP Professional
p130
sVinstallDate
p131
V2008-06-26 14:23:00.000
p132
ssVBNV011-S
p133
(dp134
Vtype
p135
VWindows XP Professional
p136
sVinstallDate
p137
V2007-05-15 15:50:00.000
p138
ssVMNH056-POS1
p139
(dp140
Vtype
p141
VWindows 7 Professional
p142
sVinstallDate
p143
V2011-08-31 11:07:00.000
p144
ssVMLH103-POS1
p145
(dp146
Vtype
p147
VWindows XP Professional
p148
sVinstallDate
p149
V2008-06-26 14:23:00.000
p150
ssVMAM031-S
p151
(dp152
Vtype
p153
VWindows XP Professional
p154
sVinstallDate
p155
V2007-05-15 15:50:00.000
p156
ssVMAM075-POS1
p157
(dp158
Vtype
p159
VWindows 7 Professional
p160
sVinstallDate
p161
V2011-08-31 11:07:00.000
p162
ssV_JunoPC
p163
(dp164
Vtype
p165
VWindows 7 Professional
p166
sVinstallDate
p167
V2015-05-22 17:23:00.000
p168
ssVGMC081-POS1
p169
(dp170
Vtype
p171
VWindows 7 Professional
p172
sVinstallDate
p173
V2011-08-31 11:07:00.000
p174
ssVMLH096-POS2
p175
(dp176
Vtype
p177
VWindows 7 Professional
p178
sVinstallDate
p179
V2011-08-31 11:07:00.000
p180
ssVMLH096-POS1
p181
(dp182
Vtype
p183
VWindows 7 Professional
p184
sVinstallDate
p185
V2011-08-31 11:07:00.000
p186
ssVKIN024-POS1
p187
(dp188
Vtype
p189
VWindows 7 Professional
p190
sVinstallDate
p191
V2011-08-31 11:07:00.000
p192
ssVABC005-POS1
p193
(dp194
Vtype
p195
VWindows 7 Professional
p196
sVinstallDate
p197
V2011-08-31 11:07:00.000
p198
ssVMLH732-POS1
p199
(dp200
Vtype
p201
VWindows XP Professional
p202
sVinstallDate
p203
V2008-06-26 14:23:00.000
p204
ssVMLH170-POS1
p205
(dp206
Vtype
p207
VWindows 7 Professional
p208
sVinstallDate
p209
V2011-08-31 11:07:00.000
p210
ssVINT650-S
p211
(dp212
Vtype
p213
VWindows XP Professional
p214
sVinstallDate
p215
V2008-06-26 14:23:00.000
p216
ssVGMC059-S
p217
(dp218
Vtype
p219
VWindows 7 Professional
p220
sVinstallDate
p221
V2011-08-31 11:07:00.000
p222
ssVIPK004-POS1
p223
(dp224
Vtype
p225
NsVinstallDate
p226
NssVMLH743-POS1
p227
(dp228
Vtype
p229
VWindows XP Professional
p230
sVinstallDate
p231
V2008-06-26 14:23:00.000
p232
ssVQUK184-POS1
p233
(dp234
Vtype
p235
VWindows 7 Professional
p236
sVinstallDate
p237
V2011-08-31 11:07:00.000
p238
ssVMLH065-POS1
p239
(dp240
Vtype
p241
VWindows XP Professional
p242
sVinstallDate
p243
V2008-06-26 14:23:00.000
p244
ssVMNH026-POS1
p245
(dp246
Vtype
p247
VWindows 7 Professional
p248
sVinstallDate
p249
V2011-08-31 11:07:00.000
p250
ssVCCA009-S
p251
(dp252
Vtype
p253
NsVinstallDate
p254
NssVMLH734-POS1
p255
(dp256
Vtype
p257
VWindows 7 Professional
p258
sVinstallDate
p259
V2011-08-31 11:07:00.000
p260
ssVABC-Office
p261
(dp262
Vtype
p263
VWindows 7 Professional
p264
sVinstallDate
p265
V2014-02-18 09:11:00.000
p266
ssVQUK100-POS2
p267
(dp268
Vtype
p269
VWindows 7 Professional
p270
sVinstallDate
p271
V2014-02-18 09:11:00.000
p272
ssVQUK100-POS1
p273
(dp274
Vtype
p275
VWindows 7 Professional
p276
sVinstallDate
p277
V2011-08-31 11:07:00.000
p278
ssVRDN055-S
p279
(dp280
Vtype
p281
VWindows 7 Professional
p282
sVinstallDate
p283
V2011-08-31 11:07:00.000
p284
ssVABC225-POS1
p285
(dp286
Vtype
p287
VWindows 7 Professional
p288
sVinstallDate
p289
V2014-02-18 09:11:00.000
p290
ssV_MichaelPC
p291
(dp292
Vtype
p293
VWindows 7 Professional x64 Edition
p294
sVinstallDate
p295
V2015-05-29 22:52:00.000
p296
ssVQUK058-POS1
p297
(dp298
Vtype
p299
VWindows 7 Professional
p300
sVinstallDate
p301
V2011-08-31 11:07:00.000
p302
ssV_MPK005-Test
p303
(dp304
Vtype
p305
VWindows 7 Professional
p306
sVinstallDate
p307
V2011-08-31 11:07:00.000
p308
ssVINT087-POS1
p309
(dp310
Vtype
p311
VWindows 7 Professional
p312
sVinstallDate
p313
V2012-02-22 16:38:00.000
p314
ssVABC248-POS2
p315
(dp316
Vtype
p317
VWindows 7 Professional
p318
sVinstallDate
p319
V2012-02-22 16:38:00.000
p320
ssVABC248-POS1
p321
(dp322
Vtype
p323
VWindows 7 Professional
p324
sVinstallDate
p325
V2012-02-22 16:38:00.000
p326
ssVABC015-S
p327
(dp328
Vtype
p329
VWindows 7 Professional
p330
sVinstallDate
p331
V2011-08-31 11:07:00.000
p332
ssVRPD102-S
p333
(dp334
Vtype
p335
VWindows 7 Professional
p336
sVinstallDate
p337
V2011-08-31 11:07:00.000
p338
ssVMLH350-POS1
p339
(dp340
Vtype
p341
VWindows XP Professional
p342
sVinstallDate
p343
V2008-07-22 07:51:00.000
p344
ssVMLH350-POS2
p345
(dp346
Vtype
p347
VWindows XP Professional
p348
sVinstallDate
p349
V2008-07-22 07:51:00.000
p350
ssVMLH070-POS2
p351
(dp352
Vtype
p353
VWindows XP Professional
p354
sVinstallDate
p355
V2008-07-22 07:51:00.000
p356
ssVMLH797-POS1
p357
(dp358
Vtype
p359
VWindows XP Professional
p360
sVinstallDate
p361
V2008-07-22 07:51:00.000
p362
ssVMLH370-POS1
p363
(dp364
Vtype
p365
VWindows XP Professional
p366
sVinstallDate
p367
V2008-07-22 07:51:00.000
p368
ssVMLH070-POS1
p369
(dp370
Vtype
p371
VWindows XP Professional
p372
sVinstallDate
p373
V2008-07-22 07:51:00.000
p374
ssVRPD030-POS1
p375
(dp376
Vtype
p377
VWindows 7 Professional
p378
sVinstallDate
p379
V2011-08-31 11:07:00.000
p380
ssVRPD030-POS2
p381
(dp382
Vtype
p383
VWindows 7 Professional
p384
sVinstallDate
p385
V2011-08-31 11:07:00.000
p386
ssVMLH220-POS1
p387
(dp388
Vtype
p389
VWindows 7 Professional
p390
sVinstallDate
p391
V2011-08-31 11:07:00.000
p392
ssVMLH728-POS1
p393
(dp394
Vtype
p395
VWindows 7 Professional
p396
sVinstallDate
p397
V2011-08-31 11:07:00.000
p398
ssVMLH742-POS1
p399
(dp400
Vtype
p401
VWindows 7 Professional
p402
sVinstallDate
p403
V2011-08-31 11:07:00.000
p404
ssVABC053-S
p405
(dp406
Vtype
p407
VWindows 7 Professional
p408
sVinstallDate
p409
V2011-08-31 11:07:00.000
p410
ssVGLE003-POS1
p411
(dp412
Vtype
p413
VWindows 7 Professional
p414
sVinstallDate
p415
V2012-02-22 16:38:00.000
p416
ssVABC028-S
p417
(dp418
Vtype
p419
VWindows 7 Professional
p420
sVinstallDate
p421
V2011-08-31 11:07:00.000
p422
ssVTSQ202-POS1
p423
(dp424
Vtype
p425
VWindows 7 Professional
p426
sVinstallDate
p427
V2011-08-31 11:07:00.000
p428
ssVCCA008-S
p429
(dp430
Vtype
p431
NsVinstallDate
p432
NssVABC097-S
p433
(dp434
Vtype
p435
VWindows 7 Professional
p436
sVinstallDate
p437
V2011-08-31 11:07:00.000
p438
ssVMLH106-POS1
p439
(dp440
Vtype
p441
VWindows XP Professional
p442
sVinstallDate
p443
V2008-06-26 14:23:00.000
p444
ssVABC095-POS1
p445
(dp446
Vtype
p447
VWindows 7 Professional
p448
sVinstallDate
p449
V2014-02-18 09:11:00.000
p450
ssVSEL036-POS1
p451
(dp452
Vtype
p453
NsVinstallDate
p454
NssVKIN070-POS1
p455
(dp456
Vtype
p457
VWindows 7 Professional
p458
sVinstallDate
p459
V2011-08-31 11:07:00.000
p460
ssVSYL001-S
p461
(dp462
Vtype
p463
VWindows 7 Professional
p464
sVinstallDate
p465
V2011-08-31 11:07:00.000
p466
ssVQUK720-POS1
p467
(dp468
Vtype
p469
VWindows 7 Professional
p470
sVinstallDate
p471
V2012-02-22 16:38:00.000
p472
ssVQUK017-POS1
p473
(dp474
Vtype
p475
VWindows 7 Professional
p476
sVinstallDate
p477
V2011-08-31 11:07:00.000
p478
ssVMNH030-S
p479
(dp480
Vtype
p481
VWindows XP Professional
p482
sVinstallDate
p483
V2008-06-26 14:23:00.000
p484
ssVGLE102-POS1
p485
(dp486
Vtype
p487
VWindows 7 Professional
p488
sVinstallDate
p489
V2011-08-31 11:07:00.000
p490
ssVABC154-POS1
p491
(dp492
Vtype
p493
VWindows 7 Professional
p494
sVinstallDate
p495
V2012-02-22 16:38:00.000
p496
ssVPRK043-S
p497
(dp498
Vtype
p499
VWindows 7 Professional
p500
sVinstallDate
p501
V2011-08-31 11:07:00.000
p502
ssVQUK090-POS1
p503
(dp504
Vtype
p505
VWindows 7 Professional
p506
sVinstallDate
p507
V2011-08-31 11:07:00.000
p508
ssVRDN071-S
p509
(dp510
Vtype
p511
VWindows 7 Professional
p512
sVinstallDate
p513
V2011-08-31 11:07:00.000
p514
ssVQUK587-POS1
p515
(dp516
Vtype
p517
VWindows 7 Professional
p518
sVinstallDate
p519
V2011-08-31 11:07:00.000
p520
ssVABC058-S
p521
(dp522
Vtype
p523
VWindows 7 Professional
p524
sVinstallDate
p525
V2011-08-31 11:07:00.000
p526
ssVMLH763-POS1
p527
(dp528
Vtype
p529
VWindows XP Professional
p530
sVinstallDate
p531
V2008-06-26 14:23:00.000
p532
ssVOPI503-POS1
p533
(dp534
Vtype
p535
VWindows 7 Professional
p536
sVinstallDate
p537
V2011-08-31 11:07:00.000
p538
ssVMLH741-POS1
p539
(dp540
Vtype
p541
VWindows 7 Professional
p542
sVinstallDate
p543
V2011-08-31 11:07:00.000
p544
ssVABC067-S
p545
(dp546
Vtype
p547
VWindows 7 Professional
p548
sVinstallDate
p549
V2011-08-31 11:07:00.000
p550
ssVABC019-S
p551
(dp552
Vtype
p553
VWindows 7 Professional
p554
sVinstallDate
p555
V2011-08-31 11:07:00.000
p556
ssV_MPK064-POS1
p557
(dp558
Vtype
p559
VWindows 7 Professional
p560
sVinstallDate
p561
V2014-02-18 09:11:00.000
p562
ssVGLE046-POS1
p563
(dp564
Vtype
p565
VWindows 7 Professional
p566
sVinstallDate
p567
V2011-08-31 11:07:00.000
p568
ssVMLH911-POS1
p569
(dp570
Vtype
p571
VWindows 7 Professional
p572
sVinstallDate
p573
V2011-08-31 11:07:00.000
p574
ssVMLH746-POS1
p575
(dp576
Vtype
p577
VWindows XP Professional
p578
sVinstallDate
p579
V2008-06-26 14:23:00.000
p580
ssVMLH750-POS1
p581
(dp582
Vtype
p583
VWindows XP Professional
p584
sVinstallDate
p585
V2008-07-22 07:51:00.000
p586
ssVMLH112-POS1
p587
(dp588
Vtype
p589
VWindows XP Professional
p590
sVinstallDate
p591
V2008-06-26 14:23:00.000
p592
ssVMLH256-POS1
p593
(dp594
Vtype
p595
VWindows 7 Professional
p596
sVinstallDate
p597
V2011-08-31 11:07:00.000
p598
ssVCPS029-S
p599
(dp600
Vtype
p601
VWindows 7 Professional
p602
sVinstallDate
p603
V2011-08-31 11:07:00.000
p604
ssVABC240-S
p605
(dp606
Vtype
p607
VWindows 7 Professional
p608
sVinstallDate
p609
V2014-02-18 09:11:00.000
p610
ssVABC049-S
p611
(dp612
Vtype
p613
VWindows 7 Professional
p614
sVinstallDate
p615
V2011-08-31 11:07:00.000
p616
ssVCPS026-S
p617
(dp618
Vtype
p619
VWindows 7 Professional
p620
sVinstallDate
p621
V2011-08-31 11:07:00.000
p622
ssVABC007-POS1
p623
(dp624
Vtype
p625
VWindows 7 Professional
p626
sVinstallDate
p627
V2011-08-31 11:07:00.000
p628
ssVTIS016-POS1
p629
(dp630
Vtype
p631
NsVinstallDate
p632
NssVOPI084-POS1
p633
(dp634
Vtype
p635
VWindows 7 Professional
p636
sVinstallDate
p637
V2012-02-22 16:38:00.000
p638
ssVMLH880-POS1
p639
(dp640
Vtype
p641
VWindows XP Professional
p642
sVinstallDate
p643
V2008-07-22 07:51:00.000
p644
ssVMLH110-POS2
p645
(dp646
Vtype
p647
VWindows 7 Professional
p648
sVinstallDate
p649
V2011-08-31 11:07:00.000
p650
ssVMLH110-POS1
p651
(dp652
Vtype
p653
VWindows 7 Professional
p654
sVinstallDate
p655
V2011-08-31 11:07:00.000
p656
ssVMLH610-POS1
p657
(dp658
Vtype
p659
VWindows 7 Professional
p660
sVinstallDate
p661
V2011-08-31 11:07:00.000
p662
ssVSEL185-S
p663
(dp664
Vtype
p665
VWindows XP Professional
p666
sVinstallDate
p667
V2008-06-26 14:23:00.000
p668
ssVMTP057-POS1
p669
(dp670
Vtype
p671
VWindows 7 Professional
p672
sVinstallDate
p673
V2011-08-31 11:07:00.000
p674
ssVTSQ100-S
p675
(dp676
Vtype
p677
VWindows 7 Professional
p678
sVinstallDate
p679
V2011-08-31 11:07:00.000
p680
ssVMLH761-POS1
p681
(dp682
Vtype
p683
VWindows 7 Professional
p684
sVinstallDate
p685
V2012-02-22 16:38:00.000
p686
ssVMLH752-POS2
p687
(dp688
Vtype
p689
VWindows XP Professional
p690
sVinstallDate
p691
V2008-07-22 07:51:00.000
p692
ssVMLH752-POS1
p693
(dp694
Vtype
p695
VWindows XP Professional
p696
sVinstallDate
p697
V2008-07-22 07:51:00.000
p698
ssVMLH048-POS2
p699
(dp700
Vtype
p701
VWindows 7 Professional
p702
sVinstallDate
p703
V2011-08-31 11:07:00.000
p704
ssVABC034-S
p705
(dp706
Vtype
p707
VWindows 7 Professional
p708
sVinstallDate
p709
V2011-08-31 11:07:00.000
p710
ssVSEL047-S
p711
(dp712
Vtype
p713
VWindows XP Professional
p714
sVinstallDate
p715
V2008-06-26 14:23:00.000
p716
ssVGMC077-POS1
p717
(dp718
Vtype
p719
VWindows 7 Professional
p720
sVinstallDate
p721
V2011-08-31 11:07:00.000
p722
ssVSEL180-S
p723
(dp724
Vtype
p725
NsVinstallDate
p726
NssVMLH900-POS2
p727
(dp728
Vtype
p729
VWindows XP Professional
p730
sVinstallDate
p731
V2008-07-22 07:51:00.000
p732
ssVMLH766-POS1
p733
(dp734
Vtype
p735
VWindows XP Professional
p736
sVinstallDate
p737
V2008-06-26 14:23:00.000
p738
ssVMLH900-POS1
p739
(dp740
Vtype
p741
VWindows XP Professional
p742
sVinstallDate
p743
V2008-07-22 07:51:00.000
p744
ssVABC093-S
p745
(dp746
Vtype
p747
VWindows 7 Professional
p748
sVinstallDate
p749
V2011-08-31 11:07:00.000
p750
ssVBNV010-S
p751
(dp752
Vtype
p753
VWindows XP Professional
p754
sVinstallDate
p755
V2007-02-14 14:44:00.000
p756
ssVQUK706-POS1
p757
(dp758
Vtype
p759
VWindows 7 Professional
p760
sVinstallDate
p761
V2011-08-31 11:07:00.000
p762
ssVSBU001-POS1
p763
(dp764
Vtype
p765
VWindows XP Professional
p766
sVinstallDate
p767
V2008-07-22 07:51:00.000
p768
ssVRPD480-POS2
p769
(dp770
Vtype
p771
VWindows 7 Professional
p772
sVinstallDate
p773
V2011-08-31 11:07:00.000
p774
ssVRPD480-POS1
p775
(dp776
Vtype
p777
VWindows 7 Professional
p778
sVinstallDate
p779
V2011-08-31 11:07:00.000
p780
ssVMLH727-POS1
p781
(dp782
Vtype
p783
VWindows 7 Professional
p784
sVinstallDate
p785
V2011-08-31 11:07:00.000
p786
ssVMNH073-POS1
p787
(dp788
Vtype
p789
VWindows 7 Professional
p790
sVinstallDate
p791
V2015-02-02 16:25:00.000
p792
ssVMLH119-POS1
p793
(dp794
Vtype
p795
VWindows 7 Professional
p796
sVinstallDate
p797
V2010-12-01 15:12:00.000
p798
ssVQUK065-POS1
p799
(dp800
Vtype
p801
VWindows 7 Professional
p802
sVinstallDate
p803
V2011-08-31 11:07:00.000
p804
ssVMLH240-POS1
p805
(dp806
Vtype
p807
VWindows 7 Professional
p808
sVinstallDate
p809
V2011-08-31 11:07:00.000
p810
ssVMLH089-POS1
p811
(dp812
Vtype
p813
VWindows 7 Professional
p814
sVinstallDate
p815
V2011-08-31 11:07:00.000
p816
ssVKIN004-POS1
p817
(dp818
Vtype
p819
VWindows 7 Professional
p820
sVinstallDate
p821
V2011-08-31 11:07:00.000
p822
ssVRDN002-POS2
p823
(dp824
Vtype
p825
VWindows 7 Professional
p826
sVinstallDate
p827
V2011-08-31 11:07:00.000
p828
ssVGMC040-POS1
p829
(dp830
Vtype
p831
VWindows 7 Professional
p832
sVinstallDate
p833
V2011-08-31 11:07:00.000
p834
ssVPRK100-S
p835
(dp836
Vtype
p837
VWindows 7 Professional
p838
sVinstallDate
p839
V2011-08-31 11:07:00.000
p840
ssVRDN002-POS1
p841
(dp842
Vtype
p843
VWindows 7 Professional
p844
sVinstallDate
p845
V2011-08-31 11:07:00.000
p846
ssVABC030-S
p847
(dp848
Vtype
p849
VWindows 7 Professional
p850
sVinstallDate
p851
V2011-08-31 11:07:00.000
p852
ssVTIS009-KIOSK
p853
(dp854
Vtype
p855
NsVinstallDate
p856
NssVRPD089-POS1
p857
(dp858
Vtype
p859
VWindows 7 Professional
p860
sVinstallDate
p861
V2011-08-31 11:07:00.000
p862
ssVKIN005-POS1
p863
(dp864
Vtype
p865
VWindows 7 Professional
p866
sVinstallDate
p867
V2011-08-31 11:07:00.000
p868
ssVMLH102-POS1
p869
(dp870
Vtype
p871
VWindows XP Professional
p872
sVinstallDate
p873
V2008-06-26 14:23:00.000
p874
ssVMLH102-POS2
p875
(dp876
Vtype
p877
VWindows XP Professional
p878
sVinstallDate
p879
V2008-06-26 14:23:00.000
p880
ssVMNH320-POS1
p881
(dp882
Vtype
p883
VWindows 7 Professional
p884
sVinstallDate
p885
V2011-08-31 11:07:00.000
p886
ssV_MarcoPC
p887
(dp888
Vtype
p889
VWindows 7 Professional x64 Edition
p890
sVinstallDate
p891
V2015-04-07 13:44:00.000
p892
ssVABC249-POS1
p893
(dp894
Vtype
p895
VWindows 7 Professional
p896
sVinstallDate
p897
V2012-02-22 16:38:00.000
p898
ssVABC079-S
p899
(dp900
Vtype
p901
VWindows 7 Professional
p902
sVinstallDate
p903
V2011-08-31 11:07:00.000
p904
ssVQUK020-POS1
p905
(dp906
Vtype
p907
VWindows 7 Professional
p908
sVinstallDate
p909
V2011-08-31 11:07:00.000
p910
ssVRPD045-S
p911
(dp912
Vtype
p913
VWindows 7 Professional
p914
sVinstallDate
p915
V2011-08-31 11:07:00.000
p916
ssVGMC082-POS1
p917
(dp918
Vtype
p919
VWindows 7 Professional
p920
sVinstallDate
p921
V2011-08-31 11:07:00.000
p922
ssVSPN179-S
p923
(dp924
Vtype
p925
VWindows XP Professional
p926
sVinstallDate
p927
V2008-06-26 14:23:00.000
p928
ssVMLH050-POS1
p929
(dp930
Vtype
p931
VWindows 7 Professional
p932
sVinstallDate
p933
V2011-08-31 11:07:00.000
p934
ssVCPS002-S
p935
(dp936
Vtype
p937
VWindows 7 Professional
p938
sVinstallDate
p939
V2011-08-31 11:07:00.000
p940
ssVQUK707-POS1
p941
(dp942
Vtype
p943
VWindows 7 Professional
p944
sVinstallDate
p945
V2011-08-31 11:07:00.000
p946
ssVQUK034-POS2
p947
(dp948
Vtype
p949
VWindows 7 Professional
p950
sVinstallDate
p951
V2014-02-18 09:11:00.000
p952
ssVTIS009-POS2
p953
(dp954
Vtype
p955
VWindows 7 Professional
p956
sVinstallDate
p957
V2011-08-31 11:07:00.000
p958
ssVTIS009-POS1
p959
(dp960
Vtype
p961
VWindows 7 Professional
p962
sVinstallDate
p963
V2011-08-31 11:07:00.000
p964
ssVMLH047-POS1
p965
(dp966
Vtype
p967
VWindows XP Professional
p968
sVinstallDate
p969
V2008-07-22 07:51:00.000
p970
ssVMAM081-S
p971
(dp972
Vtype
p973
VWindows XP Professional
p974
sVinstallDate
p975
V2007-05-15 15:50:00.000
p976
ssVRDN001-POS2
p977
(dp978
Vtype
p979
VWindows 7 Professional
p980
sVinstallDate
p981
V2011-08-31 11:07:00.000
p982
ssVRDN001-POS1
p983
(dp984
Vtype
p985
VWindows 7 Professional
p986
sVinstallDate
p987
V2011-08-31 11:07:00.000
p988
ssVMNH060-S
p989
(dp990
Vtype
p991
VWindows 7 Professional
p992
sVinstallDate
p993
V2011-08-31 11:07:00.000
p994
ssVMLH047-POS2
p995
(dp996
Vtype
p997
VWindows XP Professional
p998
sVinstallDate
p999
V2008-07-22 07:51:00.000
p1000
ssVMLH757-POS1
p1001
(dp1002
Vtype
p1003
VWindows 7 Professional
p1004
sVinstallDate
p1005
V2011-08-31 11:07:00.000
p1006
ssVMLH058-POS2
p1007
(dp1008
Vtype
p1009
VWindows XP Professional
p1010
sVinstallDate
p1011
V2008-07-22 07:51:00.000
p1012
ssVGMC048-POS2
p1013
(dp1014
Vtype
p1015
VWindows 7 Professional
p1016
sVinstallDate
p1017
V2011-08-31 11:07:00.000
p1018
ssVSPN162-S
p1019
(dp1020
Vtype
p1021
VWindows XP Professional
p1022
sVinstallDate
p1023
V2007-05-15 15:50:00.000
p1024
ssVQUK097-POS1
p1025
(dp1026
Vtype
p1027
VWindows 7 Professional
p1028
sVinstallDate
p1029
V2011-08-31 11:07:00.000
p1030
ssVWOC001-POS1
p1031
(dp1032
Vtype
p1033
VWindows 7 Professional
p1034
sVinstallDate
p1035
V2012-02-22 16:38:00.000
p1036
ssVQUK728-POS1
p1037
(dp1038
Vtype
p1039
VWindows 7 Professional
p1040
sVinstallDate
p1041
V2012-02-22 16:38:00.000
p1042
ssVQUK034-POS1
p1043
(dp1044
Vtype
p1045
VWindows 7 Professional
p1046
sVinstallDate
p1047
V2011-08-31 11:07:00.000
p1048
ssVABC051-S
p1049
(dp1050
Vtype
p1051
VWindows 7 Professional
p1052
sVinstallDate
p1053
V2011-08-31 11:07:00.000
p1054
ssVMLH739-POS1
p1055
(dp1056
Vtype
p1057
VWindows 7 Professional
p1058
sVinstallDate
p1059
V2011-08-31 11:07:00.000
p1060
ssVQUK019-POS1
p1061
(dp1062
Vtype
p1063
VWindows 7 Professional
p1064
sVinstallDate
p1065
V2011-08-31 11:07:00.000
p1066
ssVQUK300-POS1
p1067
(dp1068
Vtype
p1069
VWindows 7 Professional
p1070
sVinstallDate
p1071
V2015-02-02 16:25:00.000
p1072
ssVRPD033-POS1
p1073
(dp1074
Vtype
p1075
VWindows 7 Professional
p1076
sVinstallDate
p1077
V2011-08-31 11:07:00.000
p1078
ssVMNH003-S
p1079
(dp1080
Vtype
p1081
VWindows XP Professional
p1082
sVinstallDate
p1083
V2007-09-14 11:49:00.000
p1084
ssVEXC002-POS1
p1085
(dp1086
Vtype
p1087
VWindows 7 Professional
p1088
sVinstallDate
p1089
V2011-08-31 11:07:00.000
p1090
ssVQUK702-POS1
p1091
(dp1092
Vtype
p1093
VWindows 7 Professional
p1094
sVinstallDate
p1095
V2011-08-31 11:07:00.000
p1096
ssV_PlusPC-Test
p1097
(dp1098
Vtype
p1099
VWindows 7 Professional
p1100
sVinstallDate
p1101
V2011-08-31 11:07:00.000
p1102
ssVABC048-S
p1103
(dp1104
Vtype
p1105
VWindows 7 Professional
p1106
sVinstallDate
p1107
V2011-08-31 11:07:00.000
p1108
ssVMLH330-POS2
p1109
(dp1110
Vtype
p1111
VWindows XP Professional
p1112
sVinstallDate
p1113
V2008-06-26 14:23:00.000
p1114
ssVMLH330-POS1
p1115
(dp1116
Vtype
p1117
VWindows XP Professional
p1118
sVinstallDate
p1119
V2008-06-26 14:23:00.000
p1120
ssVINT175-POS1
p1121
(dp1122
Vtype
p1123
VWindows 7 Professional
p1124
sVinstallDate
p1125
V2012-02-22 16:38:00.000
p1126
ssVMLH702-POS2
p1127
(dp1128
Vtype
p1129
VWindows XP Professional
p1130
sVinstallDate
p1131
V2008-07-22 07:51:00.000
p1132
ssVMLH702-POS1
p1133
(dp1134
Vtype
p1135
VWindows XP Professional
p1136
sVinstallDate
p1137
V2008-07-22 07:51:00.000
p1138
ssVINT210-POS1
p1139
(dp1140
Vtype
p1141
VWindows 7 Professional
p1142
sVinstallDate
p1143
V2012-02-22 16:38:00.000
p1144
ssVPVP003-POS1
p1145
(dp1146
Vtype
p1147
VWindows 7 Professional
p1148
sVinstallDate
p1149
V2012-02-22 16:38:00.000
p1150
ssVMLH754-POS1
p1151
(dp1152
Vtype
p1153
VWindows XP Professional
p1154
sVinstallDate
p1155
V2008-06-26 14:23:00.000
p1156
ssVKIN011-POS1
p1157
(dp1158
Vtype
p1159
VWindows 7 Professional
p1160
sVinstallDate
p1161
V2011-08-31 11:07:00.000
p1162
ssVMLH007-POS2
p1163
(dp1164
Vtype
p1165
VWindows XP Professional
p1166
sVinstallDate
p1167
V2008-07-22 07:51:00.000
p1168
ssVFBR001-POS2
p1169
(dp1170
Vtype
p1171
VWindows 7 Professional
p1172
sVinstallDate
p1173
V2012-02-22 16:38:00.000
p1174
ssVTIS007-POS1
p1175
(dp1176
Vtype
p1177
VWindows 7 Professional
p1178
sVinstallDate
p1179
V2011-08-31 11:07:00.000
p1180
ssVMLH042-POS2
p1181
(dp1182
Vtype
p1183
VWindows XP Professional
p1184
sVinstallDate
p1185
V2008-07-22 07:51:00.000
p1186
ssVMLH042-POS1
p1187
(dp1188
Vtype
p1189
VWindows XP Professional
p1190
sVinstallDate
p1191
V2008-07-22 07:51:00.000
p1192
ssVABC011-SERVER
p1193
(dp1194
Vtype
p1195
VWindows 7 Professional
p1196
sVinstallDate
p1197
V2011-08-31 11:07:00.000
p1198
ssVSEL043-S
p1199
(dp1200
Vtype
p1201
VWindows XP Professional
p1202
sVinstallDate
p1203
V2008-05-29 15:39:00.000
p1204
ssVOPI010-POS1
p1205
(dp1206
Vtype
p1207
VWindows 7 Professional
p1208
sVinstallDate
p1209
V2011-08-31 11:07:00.000
p1210
ssVABC094-S
p1211
(dp1212
Vtype
p1213
VWindows 7 Professional
p1214
sVinstallDate
p1215
V2014-02-18 09:11:00.000
p1216
ssVMLH058-POS1
p1217
(dp1218
Vtype
p1219
VWindows XP Professional
p1220
sVinstallDate
p1221
V2008-07-22 07:51:00.000
p1222
ssVABC229-POS1
p1223
(dp1224
Vtype
p1225
VWindows 7 Professional
p1226
sVinstallDate
p1227
V2012-02-22 16:38:00.000
p1228
ssVMLH069-POS1
p1229
(dp1230
Vtype
p1231
VWindows XP Professional
p1232
sVinstallDate
p1233
V2008-06-26 14:23:00.000
p1234
ssVMLH069-POS2
p1235
(dp1236
Vtype
p1237
VWindows XP Professional
p1238
sVinstallDate
p1239
V2008-06-26 14:23:00.000
p1240
ssVGLE039-POS1
p1241
(dp1242
Vtype
p1243
VWindows 7 Professional
p1244
sVinstallDate
p1245
V2011-08-31 11:07:00.000
p1246
ssVMLH018-POS1
p1247
(dp1248
Vtype
p1249
VWindows 7 Professional
p1250
sVinstallDate
p1251
V2011-08-31 11:07:00.000
p1252
ssVMLH018-POS2
p1253
(dp1254
Vtype
p1255
VWindows 7 Professional
p1256
sVinstallDate
p1257
V2011-08-31 11:07:00.000
p1258
ssVMNH177-POS1
p1259
(dp1260
Vtype
p1261
VWindows 7 Professional
p1262
sVinstallDate
p1263
V2011-08-31 11:07:00.000
p1264
ssVABC230-S
p1265
(dp1266
Vtype
p1267
VWindows 7 Professional
p1268
sVinstallDate
p1269
V2011-08-31 11:07:00.000
p1270
ssVMNH330-POS1
p1271
(dp1272
Vtype
p1273
VWindows 7 Professional
p1274
sVinstallDate
p1275
V2011-08-31 11:07:00.000
p1276
ssVMLH716-POS1
p1277
(dp1278
Vtype
p1279
VWindows XP Professional
p1280
sVinstallDate
p1281
V2008-06-26 14:23:00.000
p1282
ssVTSQ010-S
p1283
(dp1284
Vtype
p1285
VWindows 7 Professional
p1286
sVinstallDate
p1287
V2010-02-02 10:15:00.000
p1288
ssVMLH725-POS1
p1289
(dp1290
Vtype
p1291
VWindows 7 Professional
p1292
sVinstallDate
p1293
V2011-08-31 11:07:00.000
p1294
ssVQUK037-POS1
p1295
(dp1296
Vtype
p1297
VWindows 7 Professional
p1298
sVinstallDate
p1299
V2011-08-31 11:07:00.000
p1300
ssVMLH052-POS2
p1301
(dp1302
Vtype
p1303
VWindows XP Professional
p1304
sVinstallDate
p1305
V2008-07-22 07:51:00.000
p1306
ssVMLH052-POS3
p1307
(dp1308
Vtype
p1309
VWindows 7 Professional
p1310
sVinstallDate
p1311
V2012-02-22 16:38:00.000
p1312
ssVMLH052-POS1
p1313
(dp1314
Vtype
p1315
VWindows XP Professional
p1316
sVinstallDate
p1317
V2008-07-22 07:51:00.000
p1318
ssVMLH714-POS1
p1319
(dp1320
Vtype
p1321
VWindows 7 Professional
p1322
sVinstallDate
p1323
V2011-08-31 11:07:00.000
p1324
ssVEXP001-S
p1325
(dp1326
Vtype
p1327
VWindows 7 Professional
p1328
sVinstallDate
p1329
V2012-02-22 16:38:00.000
p1330
ssVABC047-POS2
p1331
(dp1332
Vtype
p1333
VWindows 7 Professional
p1334
sVinstallDate
p1335
V2014-02-18 09:11:00.000
p1336
ssVABC003-S
p1337
(dp1338
Vtype
p1339
VWindows 7 Professional
p1340
sVinstallDate
p1341
V2014-02-18 09:11:00.000
p1342
ssVABC004-S
p1343
(dp1344
Vtype
p1345
VWindows 7 Professional
p1346
sVinstallDate
p1347
V2011-08-31 11:07:00.000
p1348
ssVMNH061-POS1
p1349
(dp1350
Vtype
p1351
VWindows 7 Professional
p1352
sVinstallDate
p1353
V2011-08-31 11:07:00.000
p1354
ssVMLH072-POS1
p1355
(dp1356
Vtype
p1357
VWindows 7 Professional
p1358
sVinstallDate
p1359
V2011-08-31 11:07:00.000
p1360
ssVMLH072-POS2
p1361
(dp1362
Vtype
p1363
VWindows 7 Professional
p1364
sVinstallDate
p1365
V2011-08-31 11:07:00.000
p1366
ssVSEL127-S
p1367
(dp1368
Vtype
p1369
VWindows XP Professional
p1370
sVinstallDate
p1371
V2008-06-26 14:23:00.000
p1372
ssVMLH748-POS1
p1373
(dp1374
Vtype
p1375
VWindows 7 Professional
p1376
sVinstallDate
p1377
V2011-08-31 11:07:00.000
p1378
ssVSEL005-S
p1379
(dp1380
Vtype
p1381
VWindows XP Professional
p1382
sVinstallDate
p1383
V2008-06-26 14:23:00.000
p1384
ssVIPK005-POS1
p1385
(dp1386
Vtype
p1387
NsVinstallDate
p1388
NssVMLH719-POS1
p1389
(dp1390
Vtype
p1391
VWindows 7 Professional
p1392
sVinstallDate
p1393
V2011-08-31 11:07:00.000
p1394
ssVSPM001-POS1
p1395
(dp1396
Vtype
p1397
VWindows 7 Professional
p1398
sVinstallDate
p1399
V2011-08-31 11:07:00.000
p1400
ssVMLH097-POS1
p1401
(dp1402
Vtype
p1403
VWindows XP Professional
p1404
sVinstallDate
p1405
V2008-06-26 14:23:00.000
p1406
ssVABC091-S
p1407
(dp1408
Vtype
p1409
VWindows 7 Professional
p1410
sVinstallDate
p1411
V2011-08-31 11:07:00.000
p1412
ssVMLH097-POS2
p1413
(dp1414
Vtype
p1415
VWindows XP Professional
p1416
sVinstallDate
p1417
V2008-06-26 14:23:00.000
p1418
ssVMLH888-POS1
p1419
(dp1420
Vtype
p1421
VWindows XP Professional
p1422
sVinstallDate
p1423
V2008-07-22 07:51:00.000
p1424
ssVABC065-W1
p1425
(dp1426
Vtype
p1427
VWindows 7 Professional
p1428
sVinstallDate
p1429
V2011-08-31 11:07:00.000
p1430
ssVMLH888-POS3
p1431
(dp1432
Vtype
p1433
VWindows XP Professional
p1434
sVinstallDate
p1435
V2008-07-22 07:51:00.000
p1436
ssVMLH888-POS2
p1437
(dp1438
Vtype
p1439
VWindows XP Professional
p1440
sVinstallDate
p1441
V2008-07-22 07:51:00.000
p1442
ssVQUK725-POS1
p1443
(dp1444
Vtype
p1445
VWindows 7 Professional
p1446
sVinstallDate
p1447
V2012-02-22 16:38:00.000
p1448
ssVQUK734-POS2
p1449
(dp1450
Vtype
p1451
VWindows 7 Professional
p1452
sVinstallDate
p1453
V2012-02-22 16:38:00.000
p1454
ssVQUK734-POS1
p1455
(dp1456
Vtype
p1457
VWindows 7 Professional
p1458
sVinstallDate
p1459
V2012-02-22 16:38:00.000
p1460
ssVGLE056-POS2
p1461
(dp1462
Vtype
p1463
VWindows 7 Professional
p1464
sVinstallDate
p1465
V2011-08-31 11:07:00.000
p1466
ssVMLH700-POS1
p1467
(dp1468
Vtype
p1469
VWindows XP Professional
p1470
sVinstallDate
p1471
V2008-07-22 07:51:00.000
p1472
ssVMLH700-POS2
p1473
(dp1474
Vtype
p1475
VWindows XP Professional
p1476
sVinstallDate
p1477
V2008-07-22 07:51:00.000
p1478
ssV_FPU-PC
p1479
(dp1480
Vtype
p1481
VWindows 7 Professional
p1482
sVinstallDate
p1483
V2014-02-05 16:24:00.000
p1484
ssVMLH079-POS1
p1485
(dp1486
Vtype
p1487
VWindows XP Professional
p1488
sVinstallDate
p1489
V2008-07-22 07:51:00.000
p1490
ssVGLE090-POS1
p1491
(dp1492
Vtype
p1493
VWindows 7 Professional
p1494
sVinstallDate
p1495
V2011-08-31 11:07:00.000
p1496
ssVMLH079-POS2
p1497
(dp1498
Vtype
p1499
VWindows XP Professional
p1500
sVinstallDate
p1501
V2008-07-22 07:51:00.000
p1502
ssVMLH150-POS2
p1503
(dp1504
Vtype
p1505
VWindows XP Professional
p1506
sVinstallDate
p1507
V2008-06-26 14:23:00.000
p1508
ssVMLH150-POS1
p1509
(dp1510
Vtype
p1511
VWindows XP Professional
p1512
sVinstallDate
p1513
V2008-06-26 14:23:00.000
p1514
ssVQUK152-POS1
p1515
(dp1516
Vtype
p1517
VWindows 7 Professional
p1518
sVinstallDate
p1519
V2015-02-02 16:25:00.000
p1520
ssVKIN087-POS1
p1521
(dp1522
Vtype
p1523
VWindows 7 Professional
p1524
sVinstallDate
p1525
V2011-08-31 11:07:00.000
p1526
ssVCPS048-S
p1527
(dp1528
Vtype
p1529
VWindows 7 Professional
p1530
sVinstallDate
p1531
V2011-08-31 11:07:00.000
p1532
ssVABC224-W1
p1533
(dp1534
Vtype
p1535
VWindows 7 Professional
p1536
sVinstallDate
p1537
V2011-08-31 11:07:00.000
p1538
ssVMLH030-POS1
p1539
(dp1540
Vtype
p1541
VWindows 7 Professional
p1542
sVinstallDate
p1543
V2014-02-18 09:11:00.000
p1544
ssVMLH044-POS1
p1545
(dp1546
Vtype
p1547
VWindows XP Professional
p1548
sVinstallDate
p1549
V2008-06-26 14:23:00.000
p1550
ssVSEL222-S
p1551
(dp1552
Vtype
p1553
VWindows XP Professional
p1554
sVinstallDate
p1555
V2007-05-15 15:50:00.000
p1556
ssVMLH708-POS1
p1557
(dp1558
Vtype
p1559
VWindows 7 Professional
p1560
sVinstallDate
p1561
V2011-08-31 11:07:00.000
p1562
ssVMLH034-POS1
p1563
(dp1564
Vtype
p1565
VWindows 7 Professional
p1566
sVinstallDate
p1567
V2011-08-31 11:07:00.000
p1568
ssVGLE038-POS1
p1569
(dp1570
Vtype
p1571
VWindows 7 Professional
p1572
sVinstallDate
p1573
V2011-08-31 11:07:00.000
p1574
ssVGMC064-POS1
p1575
(dp1576
Vtype
p1577
VWindows 7 Professional
p1578
sVinstallDate
p1579
V2011-08-31 11:07:00.000
p1580
ssVGMC078-POS1
p1581
(dp1582
Vtype
p1583
VWindows 7 Professional
p1584
sVinstallDate
p1585
V2011-08-31 11:07:00.000
p1586
ssVRPD072-POS1
p1587
(dp1588
Vtype
p1589
VWindows 7 Professional
p1590
sVinstallDate
p1591
V2011-08-31 11:07:00.000
p1592
ssVOPI501-POS1
p1593
(dp1594
Vtype
p1595
VWindows 7 Professional
p1596
sVinstallDate
p1597
V2011-08-31 11:07:00.000
p1598
ssV_PaulPC
p1599
(dp1600
Vtype
p1601
VWindows XP Professional
p1602
sVinstallDate
p1603
V2010-04-03 03:34:00.000
p1604
ssVMLH114-POS2
p1605
(dp1606
Vtype
p1607
VWindows 7 Professional
p1608
sVinstallDate
p1609
V2010-12-01 15:12:00.000
p1610
ssVMLH114-POS1
p1611
(dp1612
Vtype
p1613
VWindows 7 Professional
p1614
sVinstallDate
p1615
V2010-12-01 15:12:00.000
p1616
ssVQUK600-POS1
p1617
(dp1618
Vtype
p1619
VWindows 7 Professional
p1620
sVinstallDate
p1621
V2011-08-31 11:07:00.000
p1622
ssVGMC020-S
p1623
(dp1624
Vtype
p1625
VWindows 7 Professional
p1626
sVinstallDate
p1627
NssVGMC027-S
p1628
(dp1629
Vtype
p1630
VWindows 7 Professional
p1631
sVinstallDate
p1632
V2011-08-31 11:07:00.000
p1633
ssVABC144-POS1
p1634
(dp1635
Vtype
p1636
VWindows 7 Professional
p1637
sVinstallDate
p1638
V2012-02-22 16:38:00.000
p1639
ssVGMC033-POS1
p1640
(dp1641
Vtype
p1642
VWindows 7 Professional
p1643
sVinstallDate
p1644
V2011-08-31 11:07:00.000
p1645
ssVKIN060-POS1
p1646
(dp1647
Vtype
p1648
VWindows 7 Professional
p1649
sVinstallDate
p1650
V2011-08-31 11:07:00.000
p1651
ssVKIN060-POS2
p1652
(dp1653
Vtype
p1654
VWindows 7 Professional
p1655
sVinstallDate
p1656
V2011-08-31 11:07:00.000
p1657
ssVQUK048-POS1
p1658
(dp1659
Vtype
p1660
VWindows 7 Professional
p1661
sVinstallDate
p1662
V2011-08-31 11:07:00.000
p1663
ssVINT072-POS1
p1664
(dp1665
Vtype
p1666
VWindows 7 Professional
p1667
sVinstallDate
p1668
V2012-02-22 16:38:00.000
p1669
ssVQUK866-POS1
p1670
(dp1671
Vtype
p1672
VWindows 7 Professional
p1673
sVinstallDate
p1674
V2011-08-31 11:07:00.000
p1675
ssVINT067-POS1
p1676
(dp1677
Vtype
p1678
VWindows 7 Professional
p1679
sVinstallDate
p1680
V2012-02-22 16:38:00.000
p1681
ssVMLH200-POS1
p1682
(dp1683
Vtype
p1684
VWindows 7 Professional
p1685
sVinstallDate
p1686
V2011-08-31 11:07:00.000
p1687
ssVMLH108-POS2
p1688
(dp1689
Vtype
p1690
VWindows 7 Professional
p1691
sVinstallDate
p1692
V2011-08-31 11:07:00.000
p1693
ssVMLH108-POS1
p1694
(dp1695
Vtype
p1696
VWindows 7 Professional
p1697
sVinstallDate
p1698
V2011-08-31 11:07:00.000
p1699
ssVRPD047-S
p1700
(dp1701
Vtype
p1702
VWindows 7 Professional
p1703
sVinstallDate
p1704
V2011-08-31 11:07:00.000
p1705
ssVSEL037-POS1
p1706
(dp1707
Vtype
p1708
VWindows 7 Professional
p1709
sVinstallDate
p1710
V2011-08-31 11:07:00.000
p1711
ssVMLH059-POS2
p1712
(dp1713
Vtype
p1714
VWindows XP Professional
p1715
sVinstallDate
p1716
V2008-07-22 07:51:00.000
p1717
ssVMLH059-POS1
p1718
(dp1719
Vtype
p1720
VWindows XP Professional
p1721
sVinstallDate
p1722
V2008-07-22 07:51:00.000
p1723
ssVABC025-S
p1724
(dp1725
Vtype
p1726
VWindows 7 Professional
p1727
sVinstallDate
p1728
V2011-08-31 11:07:00.000
p1729
ssVABC022-S
p1730
(dp1731
Vtype
p1732
VWindows 7 Professional
p1733
sVinstallDate
p1734
V2011-08-31 11:07:00.000
p1735
ssVABC006-POS1
p1736
(dp1737
Vtype
p1738
VWindows 7 Professional
p1739
sVinstallDate
p1740
V2011-08-31 11:07:00.000
p1741
ssVPRI070-S
p1742
(dp1743
Vtype
p1744
VWindows XP Professional
p1745
sVinstallDate
p1746
V2008-06-26 14:23:00.000
p1747
ssVMLH712-POS1
p1748
(dp1749
Vtype
p1750
VWindows 7 Professional
p1751
sVinstallDate
p1752
V2011-08-31 11:07:00.000
p1753
ssVQUK105-POS1
p1754
(dp1755
Vtype
p1756
VWindows 7 Professional
p1757
sVinstallDate
p1758
V2015-02-02 16:25:00.000
p1759
ssVQUK021-POS1
p1760
(dp1761
Vtype
p1762
VWindows 7 Professional
p1763
sVinstallDate
p1764
V2011-08-31 11:07:00.000
p1765
ssVABC031-S
p1766
(dp1767
Vtype
p1768
VWindows 7 Professional
p1769
sVinstallDate
p1770
V2011-08-31 11:07:00.000
p1771
ssVPRK096-S
p1772
(dp1773
Vtype
p1774
VWindows 7 Professional
p1775
sVinstallDate
p1776
V2011-08-31 11:07:00.000
p1777
ssVGLE080-POS1
p1778
(dp1779
Vtype
p1780
VWindows 7 Professional
p1781
sVinstallDate
p1782
V2011-08-31 11:07:00.000
p1783
ssVMNH028-POS1
p1784
(dp1785
Vtype
p1786
VWindows 7 Professional
p1787
sVinstallDate
p1788
V2011-08-31 11:07:00.000
p1789
ssVMNH049-S
p1790
(dp1791
Vtype
p1792
VWindows XP Professional
p1793
sVinstallDate
p1794
V2008-06-26 14:23:00.000
p1795
ssVGLE064-POS1
p1796
(dp1797
Vtype
p1798
NsVinstallDate
p1799
NssVQUK222-POS1
p1800
(dp1801
Vtype
p1802
VWindows 7 Professional
p1803
sVinstallDate
p1804
V2010-12-01 15:12:00.000
p1805
ssVMLH021-POS1
p1806
(dp1807
Vtype
p1808
VWindows 7 Professional
p1809
sVinstallDate
p1810
V2011-08-31 11:07:00.000
p1811
ssVQUK730-POS1
p1812
(dp1813
Vtype
p1814
VWindows 7 Professional
p1815
sVinstallDate
p1816
V2011-08-31 11:07:00.000
p1817
ssVMLH081-POS1
p1818
(dp1819
Vtype
p1820
VWindows 7 Professional
p1821
sVinstallDate
p1822
V2011-08-31 11:07:00.000
p1823
ssVRPD075-POS1
p1824
(dp1825
Vtype
p1826
VWindows 7 Professional
p1827
sVinstallDate
p1828
V2011-08-31 11:07:00.000
p1829
ssVQUK715-POS1
p1830
(dp1831
Vtype
p1832
VWindows 7 Professional
p1833
sVinstallDate
p1834
V2011-08-31 11:07:00.000
p1835
ssV_AlexPC
p1836
(dp1837
Vtype
p1838
VWindows 7 Professional
p1839
sVinstallDate
p1840
V2014-03-31 14:17:00.000
p1841
ssVIPK006-POS1
p1842
(dp1843
Vtype
p1844
NsVinstallDate
p1845
NssVMLH057-POS1
p1846
(dp1847
Vtype
p1848
VWindows XP Professional
p1849
sVinstallDate
p1850
V2008-07-22 07:51:00.000
p1851
ssVMLH258-POS2
p1852
(dp1853
Vtype
p1854
VWindows XP Professional
p1855
sVinstallDate
p1856
V2008-07-22 07:51:00.000
p1857
ssVTSQ074-S
p1858
(dp1859
Vtype
p1860
VWindows 7 Professional
p1861
sVinstallDate
p1862
V2011-08-31 11:07:00.000
p1863
ssVMLH258-POS1
p1864
(dp1865
Vtype
p1866
VWindows XP Professional
p1867
sVinstallDate
p1868
V2008-07-22 07:51:00.000
p1869
ssVGMC060-POS1
p1870
(dp1871
Vtype
p1872
VWindows 7 Professional
p1873
sVinstallDate
p1874
V2011-08-31 11:07:00.000
p1875
ssVGMC060-POS2
p1876
(dp1877
Vtype
p1878
VWindows 7 Professional
p1879
sVinstallDate
p1880
V2011-08-31 11:07:00.000
p1881
ssVEPA001-POS1
p1882
(dp1883
Vtype
p1884
VWindows 7 Professional
p1885
sVinstallDate
p1886
V2012-02-22 16:38:00.000
p1887
ssVPRK009-S
p1888
(dp1889
Vtype
p1890
VWindows XP Professional
p1891
sVinstallDate
p1892
V2007-05-15 15:50:00.000
p1893
ssVTSQ135-POS1
p1894
(dp1895
Vtype
p1896
VWindows 7 Professional
p1897
sVinstallDate
p1898
V2011-08-31 11:07:00.000
p1899
ssVMLH057-POS2
p1900
(dp1901
Vtype
p1902
VWindows XP Professional
p1903
sVinstallDate
p1904
V2008-07-22 07:51:00.000
p1905
ssVTIS004-POS1
p1906
(dp1907
Vtype
p1908
VWindows 7 Professional
p1909
sVinstallDate
p1910
V2011-08-31 11:07:00.000
p1911
ssVABC089-S
p1912
(dp1913
Vtype
p1914
VWindows 7 Professional
p1915
sVinstallDate
p1916
V2011-08-31 11:07:00.000
p1917
ssVRPD003-S
p1918
(dp1919
Vtype
p1920
VWindows 7 Professional
p1921
sVinstallDate
p1922
V2011-08-31 11:07:00.000
p1923
ssVGMC017-POS2
p1924
(dp1925
Vtype
p1926
VWindows 7 Professional
p1927
sVinstallDate
p1928
V2011-08-31 11:07:00.000
p1929
ssVGMC017-POS1
p1930
(dp1931
Vtype
p1932
VWindows 7 Professional
p1933
sVinstallDate
p1934
V2011-08-31 11:07:00.000
p1935
ssVMLH753-POS1
p1936
(dp1937
Vtype
p1938
VWindows XP Professional
p1939
sVinstallDate
p1940
V2008-07-22 07:51:00.000
p1941
ssVMLH753-POS2
p1942
(dp1943
Vtype
p1944
VWindows XP Professional
p1945
sVinstallDate
p1946
V2008-07-22 07:51:00.000
p1947
ssVQUK703-POS1
p1948
(dp1949
Vtype
p1950
VWindows 7 Professional
p1951
sVinstallDate
p1952
V2011-08-31 11:07:00.000
p1953
ssVQUK025-POS1
p1954
(dp1955
Vtype
p1956
VWindows 7 Professional
p1957
sVinstallDate
p1958
V2011-08-31 11:07:00.000
p1959
ssV_VingPC
p1960
(dp1961
Vtype
p1962
VWindows 7 Professional
p1963
sVinstallDate
p1964
V2015-03-10 13:24:00.000
p1965
ssVMLH001-POS2
p1966
(dp1967
Vtype
p1968
VWindows XP Professional
p1969
sVinstallDate
p1970
V2008-07-22 07:51:00.000
p1971
ssVKIN045-POS1
p1972
(dp1973
Vtype
p1974
VWindows 7 Professional
p1975
sVinstallDate
p1976
V2011-08-31 11:07:00.000
p1977
ssVQUK705-POS1
p1978
(dp1979
Vtype
p1980
VWindows 7 Professional
p1981
sVinstallDate
p1982
V2011-08-31 11:07:00.000
p1983
ssVABC005-S
p1984
(dp1985
Vtype
p1986
VWindows 7 Professional
p1987
sVinstallDate
p1988
V2011-08-31 11:07:00.000
p1989
ssVMLH080-POS1
p1990
(dp1991
Vtype
p1992
VWindows 7 Professional
p1993
sVinstallDate
p1994
V2011-08-31 11:07:00.000
p1995
ssVKIN051-POS1
p1996
(dp1997
Vtype
p1998
VWindows 7 Professional
p1999
sVinstallDate
p2000
V2011-08-31 11:07:00.000
p2001
ssVABC239-S
p2002
(dp2003
Vtype
p2004
VWindows 7 Professional
p2005
sVinstallDate
p2006
V2011-08-31 11:07:00.000
p2007
ssVRDN069-S
p2008
(dp2009
Vtype
p2010
VWindows 7 Professional
p2011
sVinstallDate
p2012
V2011-08-31 11:07:00.000
p2013
ssVGLE092-POS1
p2014
(dp2015
Vtype
p2016
VWindows 7 Professional
p2017
sVinstallDate
p2018
V2011-08-31 11:07:00.000
p2019
ssVABC012-POS1
p2020
(dp2021
Vtype
p2022
VWindows 7 Professional
p2023
sVinstallDate
p2024
V2012-11-19 13:36:00.000
p2025
ssVMLH001-POS1
p2026
(dp2027
Vtype
p2028
VWindows XP Professional
p2029
sVinstallDate
p2030
V2008-07-22 07:51:00.000
p2031
ssVEXP001-H
p2032
(dp2033
Vtype
p2034
VWindows Vista Home Premium
p2035
sVinstallDate
p2036
V2007-10-15 13:13:00.000
p2037
ssVQUK701-POS1
p2038
(dp2039
Vtype
p2040
VWindows 7 Professional
p2041
sVinstallDate
p2042
V2012-02-22 16:38:00.000
p2043
ssVMAURICIOC-TKTWIN7
p2044
(dp2045
Vtype
p2046
VWindows 10 Pro
p2047
sVinstallDate
p2048
V2015-09-10 10:00:00.000
p2049
ssVCCP001-W1
p2050
(dp2051
Vtype
p2052
VWindows 7 Professional
p2053
sVinstallDate
p2054
V2010-02-02 10:15:00.000
p2055
ssVKIN069-POS1
p2056
(dp2057
Vtype
p2058
VWindows 7 Professional
p2059
sVinstallDate
p2060
V2011-08-31 11:07:00.000
p2061
ssVABC007-S
p2062
(dp2063
Vtype
p2064
VWindows 7 Professional
p2065
sVinstallDate
p2066
V2011-08-31 11:07:00.000
p2067
ssVGLE079-POS1
p2068
(dp2069
Vtype
p2070
VWindows 7 Professional
p2071
sVinstallDate
p2072
V2011-08-31 11:07:00.000
p2073
ssVGMC085-S
p2074
(dp2075
Vtype
p2076
VWindows XP Professional
p2077
sVinstallDate
p2078
NssVSYL071-S
p2079
(dp2080
Vtype
p2081
VWindows 7 Professional
p2082
sVinstallDate
p2083
V2011-08-31 11:07:00.000
p2084
ssVQUK036-POS1
p2085
(dp2086
Vtype
p2087
VWindows 7 Professional
p2088
sVinstallDate
p2089
V2011-08-31 11:07:00.000
p2090
ssVKIN017-POS1
p2091
(dp2092
Vtype
p2093
VWindows 7 Professional
p2094
sVinstallDate
p2095
V2011-08-31 11:07:00.000
p2096
ssVABC232-S
p2097
(dp2098
Vtype
p2099
VWindows 7 Professional
p2100
sVinstallDate
p2101
V2011-08-31 11:07:00.000
p2102
ssVGMC045-POS1
p2103
(dp2104
Vtype
p2105
VWindows 7 Professional
p2106
sVinstallDate
p2107
V2011-08-31 11:07:00.000
p2108
ssVABC231-S
p2109
(dp2110
Vtype
p2111
VWindows 7 Professional
p2112
sVinstallDate
p2113
V2011-08-31 11:07:00.000
p2114
ssVQUK575-POS1
p2115
(dp2116
Vtype
p2117
VWindows 7 Professional
p2118
sVinstallDate
p2119
V2012-02-22 16:38:00.000
p2120
ssVQUK053-POS1
p2121
(dp2122
Vtype
p2123
VWindows 7 Professional
p2124
sVinstallDate
p2125
V2011-08-31 11:07:00.000
p2126
ssVSEL145-S
p2127
(dp2128
Vtype
p2129
VWindows XP Professional
p2130
sVinstallDate
p2131
V2008-06-26 14:23:00.000
p2132
ssVMNH190-S
p2133
(dp2134
Vtype
p2135
VWindows XP Professional
p2136
sVinstallDate
p2137
V2008-06-26 14:23:00.000
p2138
ssVMLH749-POS1
p2139
(dp2140
Vtype
p2141
VWindows 7 Professional
p2142
sVinstallDate
p2143
V2011-08-31 11:07:00.000
p2144
ssVABC026-S
p2145
(dp2146
Vtype
p2147
VWindows 7 Professional
p2148
sVinstallDate
p2149
V2011-08-31 11:07:00.000
p2150
ssVVGC057-POS1
p2151
(dp2152
Vtype
p2153
VWindows 7 Professional
p2154
sVinstallDate
p2155
V2011-08-31 11:07:00.000
p2156
ssVTSQ056-S
p2157
(dp2158
Vtype
p2159
VWindows 7 Professional
p2160
sVinstallDate
p2161
V2011-08-31 11:07:00.000
p2162
ssVMLH064-POS2
p2163
(dp2164
Vtype
p2165
VWindows XP Professional
p2166
sVinstallDate
p2167
V2008-07-22 07:51:00.000
p2168
ssVMLH064-POS1
p2169
(dp2170
Vtype
p2171
VWindows XP Professional
p2172
sVinstallDate
p2173
V2008-07-22 07:51:00.000
p2174
ssVTSQ012-S
p2175
(dp2176
Vtype
p2177
VWindows 7 Professional
p2178
sVinstallDate
p2179
V2010-02-02 10:15:00.000
p2180
ssVGMC083-POS1
p2181
(dp2182
Vtype
p2183
VWindows 7 Professional
p2184
sVinstallDate
p2185
V2011-08-31 11:07:00.000
p2186
ssVKIN230-POS1
p2187
(dp2188
Vtype
p2189
VWindows 7 Professional
p2190
sVinstallDate
p2191
V2011-08-31 11:07:00.000
p2192
ssVMLH006-POS1
p2193
(dp2194
Vtype
p2195
VWindows 7 Professional
p2196
sVinstallDate
p2197
V2011-08-31 11:07:00.000
p2198
ssVMLH745-POS1
p2199
(dp2200
Vtype
p2201
VWindows 7 Professional
p2202
sVinstallDate
p2203
V2010-12-01 15:12:00.000
p2204
ssVMLH713-POS1
p2205
(dp2206
Vtype
p2207
VWindows 7 Professional
p2208
sVinstallDate
p2209
V2011-08-31 11:07:00.000
p2210
ssVKIN014-POS1
p2211
(dp2212
Vtype
p2213
VWindows 7 Professional
p2214
sVinstallDate
p2215
V2011-08-31 11:07:00.000
p2216
ssVFBR001-POS1
p2217
(dp2218
Vtype
p2219
VWindows 7 Professional
p2220
sVinstallDate
p2221
V2012-02-22 16:38:00.000
p2222
ssVEZP002-S
p2223
(dp2224
Vtype
p2225
VWindows XP Professional
p2226
sVinstallDate
p2227
V2008-06-26 14:23:00.000
p2228
ssVGLE060-POS1
p2229
(dp2230
Vtype
p2231
VWindows 7 Professional
p2232
sVinstallDate
p2233
V2011-08-31 11:07:00.000
p2234
ssVGLE060-POS2
p2235
(dp2236
Vtype
p2237
VWindows 7 Professional
p2238
sVinstallDate
p2239
V2011-08-31 11:07:00.000
p2240
ssVABC056-S
p2241
(dp2242
Vtype
p2243
VWindows 7 Professional
p2244
sVinstallDate
p2245
V2011-08-31 11:07:00.000
p2246
ssVMLH035-POS1
p2247
(dp2248
Vtype
p2249
VWindows 7 Professional
p2250
sVinstallDate
p2251
V2011-08-31 11:07:00.000
p2252
ssVMNH041-POS1
p2253
(dp2254
Vtype
p2255
VWindows 7 Professional
p2256
sVinstallDate
p2257
V2010-12-01 15:12:00.000
p2258
ssVQUK252-S
p2259
(dp2260
Vtype
p2261
VWindows 7 Professional
p2262
sVinstallDate
p2263
V2011-08-31 11:07:00.000
p2264
ssVMLH300-POS1
p2265
(dp2266
Vtype
p2267
VWindows 7 Professional
p2268
sVinstallDate
p2269
V2010-12-01 15:12:00.000
p2270
ssVSYL014-S
p2271
(dp2272
Vtype
p2273
VWindows 7 Professional
p2274
sVinstallDate
p2275
V2011-08-31 11:07:00.000
p2276
ssVSYL013-S
p2277
(dp2278
Vtype
p2279
VWindows 7 Professional
p2280
sVinstallDate
p2281
V2011-08-31 11:07:00.000
p2282
ssVABC245-POS1
p2283
(dp2284
Vtype
p2285
VWindows 7 Professional
p2286
sVinstallDate
p2287
V2012-02-22 16:38:00.000
p2288
ssVGLE246-POS1
p2289
(dp2290
Vtype
p2291
VWindows 7 Professional
p2292
sVinstallDate
p2293
V2011-08-31 11:07:00.000
p2294
ssVMLH085-POS1
p2295
(dp2296
Vtype
p2297
VWindows 7 Professional
p2298
sVinstallDate
p2299
V2011-08-31 11:07:00.000
p2300
ssVQUK093-POS1
p2301
(dp2302
Vtype
p2303
VWindows 7 Professional
p2304
sVinstallDate
p2305
V2011-08-31 11:07:00.000
p2306
ssVQUK213-POS1
p2307
(dp2308
Vtype
p2309
VWindows 7 Professional
p2310
sVinstallDate
p2311
V2011-08-31 11:07:00.000
p2312
ssVMLH737-POS1
p2313
(dp2314
Vtype
p2315
VWindows XP Professional
p2316
sVinstallDate
p2317
V2008-07-22 07:51:00.000
p2318
ssVCPS022-S 
p2319
(dp2320
Vtype
p2321
VWindows 7 Professional
p2322
sVinstallDate
p2323
V2011-08-31 11:07:00.000
p2324
ssVABC021-S
p2325
(dp2326
Vtype
p2327
VWindows 7 Professional
p2328
sVinstallDate
p2329
V2011-08-31 11:07:00.000
p2330
ssVMLH747-POS1
p2331
(dp2332
Vtype
p2333
VWindows 7 Professional
p2334
sVinstallDate
p2335
V2011-08-31 11:07:00.000
p2336
ssVMLH037-POS2
p2337
(dp2338
Vtype
p2339
VWindows XP Professional
p2340
sVinstallDate
p2341
V2008-06-26 14:23:00.000
p2342
ssVMLH037-POS1
p2343
(dp2344
Vtype
p2345
VWindows XP Professional
p2346
sVinstallDate
p2347
V2008-06-26 14:23:00.000
p2348
ssVMLH724-POS1
p2349
(dp2350
Vtype
p2351
VWindows 7 Professional
p2352
sVinstallDate
p2353
V2011-08-31 11:07:00.000
p2354
ssVMNH351-POS1
p2355
(dp2356
Vtype
p2357
VWindows 7 Professional
p2358
sVinstallDate
p2359
V2011-08-31 11:07:00.000
p2360
ssVMLH370-POS2
p2361
(dp2362
Vtype
p2363
VWindows XP Professional
p2364
sVinstallDate
p2365
V2008-07-22 07:51:00.000
p2366
ssVMLH798-POS1
p2367
(dp2368
Vtype
p2369
VWindows 7 Professional
p2370
sVinstallDate
p2371
V2011-08-31 11:07:00.000
p2372
ssVMNH046-POS1
p2373
(dp2374
Vtype
p2375
VWindows 7 Professional
p2376
sVinstallDate
p2377
V2011-08-31 11:07:00.000
p2378
ssVMLH115-POS1
p2379
(dp2380
Vtype
p2381
VWindows 7 Professional
p2382
sVinstallDate
p2383
V2010-12-01 15:12:00.000
p2384
ssVMLH115-POS2
p2385
(dp2386
Vtype
p2387
VWindows 7 Professional
p2388
sVinstallDate
p2389
V2010-12-01 15:12:00.000
p2390
ssVOPI375-POS1
p2391
(dp2392
Vtype
p2393
VWindows 7 Professional
p2394
sVinstallDate
p2395
V2012-02-22 16:38:00.000
p2396
ssVTIS015-POS1
p2397
(dp2398
Vtype
p2399
VWindows 7 Professional
p2400
sVinstallDate
p2401
V2015-02-02 16:25:00.000
p2402
ssVMLH029-POS1
p2403
(dp2404
Vtype
p2405
VWindows XP Professional
p2406
sVinstallDate
p2407
V2008-06-26 14:23:00.000
p2408
ssVQUK633-POS1
p2409
(dp2410
Vtype
p2411
VWindows 7 Professional
p2412
sVinstallDate
p2413
V2011-08-31 11:07:00.000
p2414
ssVSYL050-POS1
p2415
(dp2416
Vtype
p2417
VWindows 7 Professional
p2418
sVinstallDate
p2419
V2011-08-31 11:07:00.000
p2420
ssVMNH007-POS1
p2421
(dp2422
Vtype
p2423
VWindows 7 Professional
p2424
sVinstallDate
p2425
V2011-08-31 11:07:00.000
p2426
ssVMLH007-POS1
p2427
(dp2428
Vtype
p2429
VWindows XP Professional
p2430
sVinstallDate
p2431
V2008-07-22 07:51:00.000
p2432
ssVMLH026-POS1
p2433
(dp2434
Vtype
p2435
VWindows 7 Professional
p2436
sVinstallDate
p2437
V2011-08-31 11:07:00.000
p2438
ssVMLH026-POS2
p2439
(dp2440
Vtype
p2441
VWindows 7 Professional
p2442
sVinstallDate
p2443
V2011-08-31 11:07:00.000
p2444
ssVQUK714-POS1
p2445
(dp2446
Vtype
p2447
VWindows 7 Professional
p2448
sVinstallDate
p2449
V2012-02-22 16:38:00.000
p2450
ssVABC229-POS2
p2451
(dp2452
Vtype
p2453
VWindows 7 Professional
p2454
sVinstallDate
p2455
V2014-02-18 09:11:00.000
p2456
ssVMLH060-POS1
p2457
(dp2458
Vtype
p2459
VWindows XP Professional
p2460
sVinstallDate
p2461
V2008-06-26 14:23:00.000
p2462
ssVGLE085-POS1
p2463
(dp2464
Vtype
p2465
VWindows 7 Professional
p2466
sVinstallDate
p2467
V2011-08-31 11:07:00.000
p2468
ssVABC004-POS1
p2469
(dp2470
Vtype
p2471
VWindows 7 Professional
p2472
sVinstallDate
p2473
V2011-08-31 11:07:00.000
p2474
ssVABC079-W1
p2475
(dp2476
Vtype
p2477
VWindows 7 Professional
p2478
sVinstallDate
p2479
V2011-08-31 11:07:00.000
p2480
ssVGOT004-S
p2481
(dp2482
Vtype
p2483
NsVinstallDate
p2484
NssVMLH004-POS3
p2485
(dp2486
Vtype
p2487
VWindows 7 Professional
p2488
sVinstallDate
p2489
V2011-08-31 11:07:00.000
p2490
ssVSHH001-POS1
p2491
(dp2492
Vtype
p2493
VWindows 7 Professional
p2494
sVinstallDate
p2495
V2012-02-22 16:38:00.000
p2496
ssVSHH001-POS2
p2497
(dp2498
Vtype
p2499
VWindows 7 Professional
p2500
sVinstallDate
p2501
V2012-02-22 16:38:00.000
p2502
ssVABC002-POS1
p2503
(dp2504
Vtype
p2505
VWindows 7 Professional
p2506
sVinstallDate
p2507
V2011-08-31 11:07:00.000
p2508
ssVTIS011-POS1
p2509
(dp2510
Vtype
p2511
VWindows 7 Professional
p2512
sVinstallDate
p2513
V2011-08-31 11:07:00.000
p2514
ssVQUK196-POS1
p2515
(dp2516
Vtype
p2517
VWindows 7 Professional
p2518
sVinstallDate
p2519
V2011-08-31 11:07:00.000
p2520
ssVSPN200-S
p2521
(dp2522
Vtype
p2523
VWindows XP Professional
p2524
sVinstallDate
p2525
V2007-05-15 15:50:00.000
p2526
ssVGMC048-POS1
p2527
(dp2528
Vtype
p2529
VWindows 7 Professional
p2530
sVinstallDate
p2531
V2011-08-31 11:07:00.000
p2532
ssVABC228-S
p2533
(dp2534
Vtype
p2535
VWindows 7 Professional
p2536
sVinstallDate
p2537
V2011-08-31 11:07:00.000
p2538
ssVQUK158-POS1
p2539
(dp2540
Vtype
p2541
VWindows 7 Professional
p2542
sVinstallDate
p2543
V2011-08-31 11:07:00.000
p2544
ssVMNH040-S
p2545
(dp2546
Vtype
p2547
VWindows XP Professional
p2548
sVinstallDate
p2549
V2008-06-26 14:23:00.000
p2550
ssVRPD076-POS1
p2551
(dp2552
Vtype
p2553
VWindows 7 Professional
p2554
sVinstallDate
p2555
V2011-08-31 11:07:00.000
p2556
ssVINT200-POS1
p2557
(dp2558
Vtype
p2559
VWindows 7 Professional
p2560
sVinstallDate
p2561
V2012-02-22 16:38:00.000
p2562
ssVCPS006-S
p2563
(dp2564
Vtype
p2565
VWindows 7 Professional
p2566
sVinstallDate
p2567
V2011-08-31 11:07:00.000
p2568
ssVABC084-S
p2569
(dp2570
Vtype
p2571
VWindows 7 Professional
p2572
sVinstallDate
p2573
V2011-08-31 11:07:00.000
p2574
ssVMLH111-POS1
p2575
(dp2576
Vtype
p2577
VWindows XP Professional
p2578
sVinstallDate
p2579
V2008-06-26 14:23:00.000
p2580
ssVMLH111-POS2
p2581
(dp2582
Vtype
p2583
VWindows XP Professional
p2584
sVinstallDate
p2585
V2008-06-26 14:23:00.000
p2586
ssVOPI040-POS1
p2587
(dp2588
Vtype
p2589
VWindows 7 Professional
p2590
sVinstallDate
p2591
V2012-02-22 16:38:00.000
p2592
ssVMLH160-POS1
p2593
(dp2594
Vtype
p2595
VWindows 7 Professional
p2596
sVinstallDate
p2597
V2011-08-31 11:07:00.000
p2598
ssVABC027-S
p2599
(dp2600
Vtype
p2601
VWindows 7 Professional
p2602
sVinstallDate
p2603
V2011-08-31 11:07:00.000
p2604
ssVABC073-S
p2605
(dp2606
Vtype
p2607
VWindows 7 Professional
p2608
sVinstallDate
p2609
V2011-08-31 11:07:00.000
p2610
ssVINT502-POS1
p2611
(dp2612
Vtype
p2613
VWindows 7 Professional
p2614
sVinstallDate
p2615
V2011-08-31 11:07:00.000
p2616
ssVABC247-POS1
p2617
(dp2618
Vtype
p2619
VWindows 7 Professional
p2620
sVinstallDate
p2621
V2012-11-19 13:36:00.000
p2622
ssVMLH053-POS1
p2623
(dp2624
Vtype
p2625
VWindows XP Professional
p2626
sVinstallDate
p2627
V2008-07-22 07:51:00.000
p2628
ssVMLH019-POS2
p2629
(dp2630
Vtype
p2631
VWindows 7 Professional
p2632
sVinstallDate
p2633
V2011-08-31 11:07:00.000
p2634
ssVMLH019-POS1
p2635
(dp2636
Vtype
p2637
VWindows 7 Professional
p2638
sVinstallDate
p2639
V2011-08-31 11:07:00.000
p2640
ssVMLH053-POS2
p2641
(dp2642
Vtype
p2643
VWindows XP Professional
p2644
sVinstallDate
p2645
V2008-07-22 07:51:00.000
p2646
ssVQUK708-POS1
p2647
(dp2648
Vtype
p2649
VWindows 7 Professional
p2650
sVinstallDate
p2651
V2011-08-31 11:07:00.000
p2652
ssVGMC086-POS1
p2653
(dp2654
Vtype
p2655
VWindows 7 Professional
p2656
sVinstallDate
p2657
V2011-08-31 11:07:00.000
p2658
ssVMLH076-POS1
p2659
(dp2660
Vtype
p2661
VWindows XP Professional
p2662
sVinstallDate
p2663
V2008-06-26 14:23:00.000
p2664
ssVMLH076-POS2
p2665
(dp2666
Vtype
p2667
VWindows XP Professional
p2668
sVinstallDate
p2669
V2008-06-26 14:23:00.000
p2670
ssVABC054-S
p2671
(dp2672
Vtype
p2673
VWindows 7 Professional
p2674
sVinstallDate
p2675
V2011-08-31 11:07:00.000
p2676
ssVABC062-S
p2677
(dp2678
Vtype
p2679
VWindows 7 Professional
p2680
sVinstallDate
p2681
V2011-08-31 11:07:00.000
p2682
ssVQUK012-POS1
p2683
(dp2684
Vtype
p2685
VWindows 7 Professional
p2686
sVinstallDate
p2687
V2015-02-02 16:25:00.000
p2688
ssVKIN009-POS1
p2689
(dp2690
Vtype
p2691
VWindows 7 Professional
p2692
sVinstallDate
p2693
V2011-08-31 11:07:00.000
p2694
ssVTSQ010-W1
p2695
(dp2696
Vtype
p2697
VWindows 7 Professional
p2698
sVinstallDate
p2699
V2010-02-02 10:15:00.000
p2700
ssVMLH032-POS1
p2701
(dp2702
Vtype
p2703
VWindows XP Professional
p2704
sVinstallDate
p2705
V2008-07-22 07:51:00.000
p2706
ssVMLH032-POS2
p2707
(dp2708
Vtype
p2709
VWindows XP Professional
p2710
sVinstallDate
p2711
V2008-07-22 07:51:00.000
p2712
ssVMLH032-POS3
p2713
(dp2714
Vtype
p2715
VWindows XP Professional
p2716
sVinstallDate
p2717
V2008-07-22 07:51:00.000
p2718
ssVMLH071-POS1
p2719
(dp2720
Vtype
p2721
VWindows XP Professional
p2722
sVinstallDate
p2723
V2008-06-26 14:23:00.000
p2724
ssVGMC084-S
p2725
(dp2726
Vtype
p2727
VWindows 7 Professional
p2728
sVinstallDate
p2729
V2011-08-31 11:07:00.000
p2730
ssVABC065-S
p2731
(dp2732
Vtype
p2733
VWindows 7 Professional
p2734
sVinstallDate
p2735
V2011-08-31 11:07:00.000
p2736
ssVSYL011-S
p2737
(dp2738
Vtype
p2739
VWindows 7 Professional
p2740
sVinstallDate
p2741
V2011-08-31 11:07:00.000
p2742
ssVMLH016-POS2
p2743
(dp2744
Vtype
p2745
VWindows XP Professional
p2746
sVinstallDate
p2747
V2008-06-26 14:23:00.000
p2748
ssVRPD061-POS2
p2749
(dp2750
Vtype
p2751
VWindows 7 Professional
p2752
sVinstallDate
p2753
V2011-08-31 11:07:00.000
p2754
ssVRPD061-POS1
p2755
(dp2756
Vtype
p2757
VWindows 7 Professional
p2758
sVinstallDate
p2759
V2011-08-31 11:07:00.000
p2760
ssVMLH016-POS1
p2761
(dp2762
Vtype
p2763
VWindows XP Professional
p2764
sVinstallDate
p2765
V2008-06-26 14:23:00.000
p2766
ssVMLH765-POS1
p2767
(dp2768
Vtype
p2769
VWindows 7 Professional
p2770
sVinstallDate
p2771
V2011-08-31 11:07:00.000
p2772
ssVABC083-S
p2773
(dp2774
Vtype
p2775
VWindows 7 Professional
p2776
sVinstallDate
p2777
V2011-08-31 11:07:00.000
p2778
ssVMLH094-POS1
p2779
(dp2780
Vtype
p2781
VWindows XP Professional
p2782
sVinstallDate
p2783
V2008-06-26 14:23:00.000
p2784
ssVMLH094-POS2
p2785
(dp2786
Vtype
p2787
VWindows XP Professional
p2788
sVinstallDate
p2789
V2008-06-26 14:23:00.000
p2790
ssVQUK101-POS1
p2791
(dp2792
Vtype
p2793
VWindows 7 Professional
p2794
sVinstallDate
p2795
V2011-08-31 11:07:00.000
p2796
ssVABC099-S
p2797
(dp2798
Vtype
p2799
VWindows 7 Professional
p2800
sVinstallDate
p2801
V2011-08-31 11:07:00.000
p2802
ssVRPD004-S
p2803
(dp2804
Vtype
p2805
VWindows 7 Professional
p2806
sVinstallDate
p2807
V2011-08-31 11:07:00.000
p2808
ssVMNH054-POS1
p2809
(dp2810
Vtype
p2811
VWindows 7 Professional
p2812
sVinstallDate
p2813
V2011-08-31 11:07:00.000
p2814
ssVMLH088-POS1
p2815
(dp2816
Vtype
p2817
VWindows XP Professional
p2818
sVinstallDate
p2819
V2008-06-26 14:23:00.000
p2820
ssVMLHOFFICE-2016
p2821
(dp2822
Vtype
p2823
VWindows 7 Home Premium x64 Edition
p2824
sVinstallDate
p2825
V2013-01-18 10:08:00.000
p2826
ssVMLH260-POS1
p2827
(dp2828
Vtype
p2829
VWindows 7 Professional
p2830
sVinstallDate
p2831
V2011-08-31 11:07:00.000
p2832
ssV_TroyPC
p2833
(dp2834
Vtype
p2835
VWindows 7 Professional
p2836
sVinstallDate
p2837
V2014-04-04 07:30:00.000
p2838
ssVQUK028-POS1
p2839
(dp2840
Vtype
p2841
VWindows 7 Professional
p2842
sVinstallDate
p2843
V2011-08-31 11:07:00.000
p2844
ssVQUK088-POS1
p2845
(dp2846
Vtype
p2847
NsVinstallDate
p2848
NssVQUK038-POS1
p2849
(dp2850
Vtype
p2851
VWindows 7 Professional
p2852
sVinstallDate
p2853
V2015-02-02 16:25:00.000
p2854
ssVSYL031-POS1
p2855
(dp2856
Vtype
p2857
VWindows 7 Professional
p2858
sVinstallDate
p2859
V2011-08-31 11:07:00.000
p2860
ssVMLH768-POS1
p2861
(dp2862
Vtype
p2863
VWindows XP Professional
p2864
sVinstallDate
p2865
V2008-06-26 14:23:00.000
p2866
ssVRPD100-POS1
p2867
(dp2868
Vtype
p2869
VWindows 7 Professional
p2870
sVinstallDate
p2871
V2011-08-31 11:07:00.000
p2872
ssVTSQ002-W1
p2873
(dp2874
Vtype
p2875
VWindows 7 Professional
p2876
sVinstallDate
p2877
V2011-08-31 11:07:00.000
p2878
ssVABC129-POS1
p2879
(dp2880
Vtype
p2881
VWindows 7 Professional
p2882
sVinstallDate
p2883
V2014-02-18 09:11:00.000
p2884
ssVABC014-SERVER
p2885
(dp2886
Vtype
p2887
VWindows 7 Professional
p2888
sVinstallDate
p2889
V2011-08-31 11:07:00.000
p2890
ssVMLH024-POS1
p2891
(dp2892
Vtype
p2893
VWindows 7 Professional
p2894
sVinstallDate
p2895
V2011-08-31 11:07:00.000
p2896
ssVGMC044-S
p2897
(dp2898
Vtype
p2899
VWindows 7 Professional
p2900
sVinstallDate
p2901
V2011-08-31 11:07:00.000
p2902
ssVGLE075-POS1
p2903
(dp2904
Vtype
p2905
VWindows 7 Professional
p2906
sVinstallDate
p2907
V2011-08-31 11:07:00.000
p2908
ssVABC061-S
p2909
(dp2910
Vtype
p2911
VWindows 7 Professional
p2912
sVinstallDate
p2913
V2011-08-31 11:07:00.000
p2914
ssV_JohnPC
p2915
(dp2916
Vtype
p2917
VWindows 7 Professional
p2918
sVinstallDate
p2919
V2013-08-12 16:52:00.000
p2920
ssVINT018-S
p2921
(dp2922
Vtype
p2923
VWindows 7 Professional
p2924
sVinstallDate
p2925
V2010-02-02 10:15:00.000
p2926
ssVMLH084-POS1
p2927
(dp2928
Vtype
p2929
VWindows 7 Professional
p2930
sVinstallDate
p2931
V2011-08-31 11:07:00.000
p2932
ssVTIS008-POS1
p2933
(dp2934
Vtype
p2935
VWindows 7 Professional
p2936
sVinstallDate
p2937
V2011-08-31 11:07:00.000
p2938
ssVQUK250-S
p2939
(dp2940
Vtype
p2941
VWindows 7 Professional
p2942
sVinstallDate
p2943
V2011-08-31 11:07:00.000
p2944
ssVMLH084-POS2
p2945
(dp2946
Vtype
p2947
VWindows 7 Professional
p2948
sVinstallDate
p2949
V2011-08-31 11:07:00.000
p2950
ssVABC080-S
p2951
(dp2952
Vtype
p2953
VWindows 7 Professional
p2954
sVinstallDate
p2955
V2011-08-31 11:07:00.000
p2956
ssVGLE088-POS1
p2957
(dp2958
Vtype
p2959
VWindows 7 Professional
p2960
sVinstallDate
p2961
V2011-08-31 11:07:00.000
p2962
ssVQUK055-POS1
p2963
(dp2964
Vtype
p2965
VWindows 7 Professional
p2966
sVinstallDate
p2967
V2011-08-31 11:07:00.000
p2968
ssVABC029-POS1
p2969
(dp2970
Vtype
p2971
VWindows 7 Professional
p2972
sVinstallDate
p2973
V2014-02-18 09:11:00.000
p2974
ssVQUK586-POS1
p2975
(dp2976
Vtype
p2977
VWindows 7 Professional
p2978
sVinstallDate
p2979
V2011-08-31 11:07:00.000
p2980
ssVPAT002-POS1
p2981
(dp2982
Vtype
p2983
VWindows 7 Professional
p2984
sVinstallDate
p2985
V2011-08-31 11:07:00.000
p2986
ssVMLH770-POS2
p2987
(dp2988
Vtype
p2989
VWindows 7 Professional
p2990
sVinstallDate
p2991
V2011-08-31 11:07:00.000
p2992
ssVMLH770-POS1
p2993
(dp2994
Vtype
p2995
VWindows 7 Professional
p2996
sVinstallDate
p2997
V2011-08-31 11:07:00.000
p2998
ssVQUK041-POS1
p2999
(dp3000
Vtype
p3001
VWindows 7 Professional
p3002
sVinstallDate
p3003
V2011-08-31 11:07:00.000
p3004
ssVQUK624-POS1
p3005
(dp3006
Vtype
p3007
VWindows 7 Professional
p3008
sVinstallDate
p3009
V2015-02-02 16:25:00.000
p3010
ssVMLH077-POS2
p3011
(dp3012
Vtype
p3013
VWindows XP Professional
p3014
sVinstallDate
p3015
V2008-06-26 14:23:00.000
p3016
ssVMLH077-POS1
p3017
(dp3018
Vtype
p3019
VWindows XP Professional
p3020
sVinstallDate
p3021
V2008-06-26 14:23:00.000
p3022
ssVMLH062-POS1
p3023
(dp3024
Vtype
p3025
VWindows XP Professional
p3026
sVinstallDate
p3027
V2008-06-26 14:23:00.000
p3028
ssVMLH062-POS2
p3029
(dp3030
Vtype
p3031
VWindows 7 Professional
p3032
sVinstallDate
p3033
V2011-08-31 11:07:00.000
p3034
ssVABC088-S
p3035
(dp3036
Vtype
p3037
VWindows 7 Professional
p3038
sVinstallDate
p3039
V2011-08-31 11:07:00.000
p3040
ssVMLH086-POS1
p3041
(dp3042
Vtype
p3043
VWindows XP Professional
p3044
sVinstallDate
p3045
V2008-06-26 14:23:00.000
p3046
ssVSYL016-S
p3047
(dp3048
Vtype
p3049
VWindows XP Professional
p3050
sVinstallDate
p3051
V2008-06-26 14:23:00.000
p3052
ssVABC237-POS1
p3053
(dp3054
Vtype
p3055
VWindows 7 Professional
p3056
sVinstallDate
p3057
V2014-02-18 09:11:00.000
p3058
ssVGLE072-POS1
p3059
(dp3060
Vtype
p3061
VWindows 7 Professional
p3062
sVinstallDate
p3063
V2011-08-31 11:07:00.000
p3064
ssVQUK049-POS2
p3065
(dp3066
Vtype
p3067
VWindows 7 Professional
p3068
sVinstallDate
p3069
V2014-02-18 09:11:00.000
p3070
ssVRPD083-S
p3071
(dp3072
Vtype
p3073
VWindows 7 Professional
p3074
sVinstallDate
p3075
V2011-08-31 11:07:00.000
p3076
ssVSYL015-S
p3077
(dp3078
Vtype
p3079
VWindows 7 Professional
p3080
sVinstallDate
p3081
V2011-08-31 11:07:00.000
p3082
ssVQUK049-POS1
p3083
(dp3084
Vtype
p3085
VWindows 7 Professional
p3086
sVinstallDate
p3087
V2014-02-18 09:11:00.000
p3088
ssVRPD079-POS1
p3089
(dp3090
Vtype
p3091
VWindows 7 Professional
p3092
sVinstallDate
p3093
V2011-08-31 11:07:00.000
p3094
ssVVPN003-S
p3095
(dp3096
Vtype
p3097
VWindows XP Professional
p3098
sVinstallDate
p3099
NssVVPN004-S
p3100
(dp3101
Vtype
p3102
VWindows XP Professional
p3103
sVinstallDate
p3104
V2008-07-22 07:51:00.000
p3105
ssVOPI001-POS1
p3106
(dp3107
Vtype
p3108
VWindows 7 Professional
p3109
sVinstallDate
p3110
V2014-02-18 09:11:00.000
p3111
ssV_NickPC
p3112
(dp3113
Vtype
p3114
VWindows 7 Professional
p3115
sVinstallDate
p3116
V2013-08-12 16:52:00.000
p3117
ssVOPI001-POS2
p3118
(dp3119
Vtype
p3120
VWindows 7 Professional
p3121
sVinstallDate
p3122
V2014-02-18 09:11:00.000
p3123
ssVKIN077-POS1
p3124
(dp3125
Vtype
p3126
VWindows 7 Professional
p3127
sVinstallDate
p3128
V2011-08-31 11:07:00.000
p3129
ssVGMC022-POS1
p3130
(dp3131
Vtype
p3132
VWindows 7 Professional
p3133
sVinstallDate
p3134
V2011-08-31 11:07:00.000
p3135
ssVSYL001-W1
p3136
(dp3137
Vtype
p3138
VWindows 7 Professional
p3139
sVinstallDate
p3140
V2011-08-31 11:07:00.000
p3141
ssVCPS031-S
p3142
(dp3143
Vtype
p3144
VWindows 7 Professional
p3145
sVinstallDate
p3146
V2011-08-31 11:07:00.000
p3147
ssVAMP001-W1
p3148
(dp3149
Vtype
p3150
VWindows 7 Professional
p3151
sVinstallDate
p3152
V2012-02-22 16:38:00.000
p3153
ssVABC256-POS1
p3154
(dp3155
Vtype
p3156
VWindows 7 Professional
p3157
sVinstallDate
p3158
V2012-02-22 16:38:00.000
p3159
ssVSEL200-S
p3160
(dp3161
Vtype
p3162
NsVinstallDate
p3163
NssVQUK485-POS1
p3164
(dp3165
Vtype
p3166
VWindows 7 Professional
p3167
sVinstallDate
p3168
V2011-08-31 11:07:00.000
p3169
ssVQUK062-POS1
p3170
(dp3171
Vtype
p3172
VWindows 7 Professional
p3173
sVinstallDate
p3174
V2015-02-02 16:25:00.000
p3175
ssVQUK099-POS1
p3176
(dp3177
Vtype
p3178
VWindows 7 Professional
p3179
sVinstallDate
p3180
V2011-08-31 11:07:00.000
p3181
ssVABC246-S
p3182
(dp3183
Vtype
p3184
VWindows 7 Professional
p3185
sVinstallDate
p3186
V2011-08-31 11:07:00.000
p3187
ssVQUK095-POS2
p3188
(dp3189
Vtype
p3190
VWindows 7 Professional
p3191
sVinstallDate
p3192
V2011-08-31 11:07:00.000
p3193
ssVQUK095-POS1
p3194
(dp3195
Vtype
p3196
VWindows 7 Professional
p3197
sVinstallDate
p3198
V2011-08-31 11:07:00.000
p3199
ssVMLH020-POS2
p3200
(dp3201
Vtype
p3202
VWindows 7 Professional
p3203
sVinstallDate
p3204
V2011-08-31 11:07:00.000
p3205
ssVMLH020-POS1
p3206
(dp3207
Vtype
p3208
VWindows 7 Professional
p3209
sVinstallDate
p3210
V2011-08-31 11:07:00.000
p3211
ssVMLH104-POS1
p3212
(dp3213
Vtype
p3214
VWindows 7 Professional
p3215
sVinstallDate
p3216
V2011-08-31 11:07:00.000
p3217
ssVMLH056-POS2
p3218
(dp3219
Vtype
p3220
VWindows 7 Professional
p3221
sVinstallDate
p3222
V2010-12-01 15:12:00.000
p3223
ssVABC006-S
p3224
(dp3225
Vtype
p3226
VWindows 7 Professional
p3227
sVinstallDate
p3228
V2011-08-31 11:07:00.000
p3229
ssVMLH759-POS1
p3230
(dp3231
Vtype
p3232
VWindows 7 Professional
p3233
sVinstallDate
p3234
V2012-02-22 16:38:00.000
p3235
ssVEZP001-S
p3236
(dp3237
Vtype
p3238
VWindows XP Professional
p3239
sVinstallDate
p3240
V2008-06-26 14:23:00.000
p3241
ssVKIN150-POS1
p3242
(dp3243
Vtype
p3244
VWindows 7 Professional
p3245
sVinstallDate
p3246
V2011-08-31 11:07:00.000
p3247
ssVQUK089-POS1
p3248
(dp3249
Vtype
p3250
VWindows 7 Professional
p3251
sVinstallDate
p3252
V2011-08-31 11:07:00.000
p3253
ssVABC254-POS1
p3254
(dp3255
Vtype
p3256
VWindows 7 Professional
p3257
sVinstallDate
p3258
V2012-02-22 16:38:00.000
p3259
ssVQUK742-POS1
p3260
(dp3261
Vtype
p3262
VWindows 7 Professional
p3263
sVinstallDate
p3264
V2012-02-22 16:38:00.000
p3265
ssVMLH022-POS1
p3266
(dp3267
Vtype
p3268
VWindows 7 Professional
p3269
sVinstallDate
p3270
V2011-08-31 11:07:00.000
p3271
ssVMLH043-POS1
p3272
(dp3273
Vtype
p3274
VWindows XP Professional
p3275
sVinstallDate
p3276
V2008-06-26 14:23:00.000
p3277
ssVMLH718-POS1
p3278
(dp3279
Vtype
p3280
VWindows XP Professional
p3281
sVinstallDate
p3282
V2008-06-26 14:23:00.000
p3283
ssVMLH762-POS1
p3284
(dp3285
Vtype
p3286
VWindows 7 Professional
p3287
sVinstallDate
p3288
V2012-02-22 16:38:00.000
p3289
ssVMLH721-POS1
p3290
(dp3291
Vtype
p3292
VWindows 7 Professional
p3293
sVinstallDate
p3294
V2011-08-31 11:07:00.000
p3295
ssVMLH043-POS2
p3296
(dp3297
Vtype
p3298
VWindows XP Professional
p3299
sVinstallDate
p3300
V2008-06-26 14:23:00.000
p3301
ssVMLH012-POS1
p3302
(dp3303
Vtype
p3304
VWindows 7 Professional
p3305
sVinstallDate
p3306
V2011-08-31 11:07:00.000
p3307
ssVPVP001-POS1
p3308
(dp3309
Vtype
p3310
VWindows XP Professional
p3311
sVinstallDate
p3312
V2008-07-22 07:51:00.000
p3313
ssVMLH090-POS1
p3314
(dp3315
Vtype
p3316
VWindows XP Professional
p3317
sVinstallDate
p3318
V2008-07-22 07:51:00.000
p3319
ssVMLH090-POS2
p3320
(dp3321
Vtype
p3322
VWindows XP Professional
p3323
sVinstallDate
p3324
V2008-07-22 07:51:00.000
p3325
ssVGMC052-POS1
p3326
(dp3327
Vtype
p3328
VWindows 7 Professional
p3329
sVinstallDate
p3330
V2011-08-31 11:07:00.000
p3331
ssVABC068-S
p3332
(dp3333
Vtype
p3334
VWindows 7 Professional
p3335
sVinstallDate
p3336
V2011-08-31 11:07:00.000
p3337
ssVMLH063-POS1
p3338
(dp3339
Vtype
p3340
VWindows 7 Professional
p3341
sVinstallDate
p3342
V2011-08-31 11:07:00.000
p3343
ssVMLH054-POS1
p3344
(dp3345
Vtype
p3346
VWindows 7 Professional
p3347
sVinstallDate
p3348
V2011-08-31 11:07:00.000
p3349
ssVMLH056-POS1
p3350
(dp3351
Vtype
p3352
VWindows 7 Professional
p3353
sVinstallDate
p3354
V2010-12-01 15:12:00.000
p3355
ssVQUK086-POS1
p3356
(dp3357
Vtype
p3358
VWindows 7 Professional
p3359
sVinstallDate
p3360
V2015-02-02 16:25:00.000
p3361
ssVABC259-POS1
p3362
(dp3363
Vtype
p3364
VWindows 7 Professional
p3365
sVinstallDate
p3366
V2012-02-22 16:38:00.000
p3367
ssVABC063-S
p3368
(dp3369
Vtype
p3370
VWindows 7 Professional
p3371
sVinstallDate
p3372
V2011-08-31 11:07:00.000
p3373
ssVQUK236-POS1
p3374
(dp3375
Vtype
p3376
VWindows 7 Professional
p3377
sVinstallDate
p3378
V2011-08-31 11:07:00.000
p3379
ssVABC047-POS1
p3380
(dp3381
Vtype
p3382
VWindows 7 Professional
p3383
sVinstallDate
p3384
V2014-02-18 09:11:00.000
p3385
ssVMLH726-POS1
p3386
(dp3387
Vtype
p3388
VWindows 7 Professional
p3389
sVinstallDate
p3390
V2011-08-31 11:07:00.000
p3391
ssVMLH764-POS1
p3392
(dp3393
Vtype
p3394
VWindows XP Professional
p3395
sVinstallDate
p3396
V2008-06-26 14:23:00.000
p3397
ssVMLH723-POS1
p3398
(dp3399
Vtype
p3400
VWindows 7 Professional
p3401
sVinstallDate
p3402
V2011-08-31 11:07:00.000
p3403
ssVMLH711-POS1
p3404
(dp3405
Vtype
p3406
VWindows 7 Professional
p3407
sVinstallDate
p3408
V2011-08-31 11:07:00.000
p3409
ssVPPA010-S
p3410
(dp3411
Vtype
p3412
VWindows XP Professional
p3413
sVinstallDate
p3414
V2008-06-26 14:23:00.000
p3415
ssVRDN067-S
p3416
(dp3417
Vtype
p3418
VWindows 7 Professional
p3419
sVinstallDate
p3420
V2011-08-31 11:07:00.000
p3421
ssVMLH033-POS1
p3422
(dp3423
Vtype
p3424
VWindows 7 Professional
p3425
sVinstallDate
p3426
V2011-08-31 11:07:00.000
p3427
ssVOPI500-POS1
p3428
(dp3429
Vtype
p3430
VWindows XP Professional
p3431
sVinstallDate
p3432
NssVMAURICIO-WIN7-HOME
p3433
(dp3434
Vtype
p3435
VWindows 10 Pro x64 Edition
p3436
sVinstallDate
p3437
V2015-08-11 23:14:00.000
p3438
ssVMLH092-POS1
p3439
(dp3440
Vtype
p3441
VWindows 7 Professional
p3442
sVinstallDate
p3443
V2011-08-31 11:07:00.000
p3444
ssVMLH735-POS1
p3445
(dp3446
Vtype
p3447
VWindows 7 Professional
p3448
sVinstallDate
p3449
V2011-08-31 11:07:00.000
p3450
ssV_WilliamPC
p3451
(dp3452
Vtype
p3453
VWindows XP Professional
p3454
sVinstallDate
p3455
V2014-02-06 08:29:00.000
p3456
ssVABC212-POS1
p3457
(dp3458
Vtype
p3459
VWindows 7 Professional
p3460
sVinstallDate
p3461
V2014-02-18 09:11:00.000
p3462
ssVABC046-S
p3463
(dp3464
Vtype
p3465
VWindows 7 Professional
p3466
sVinstallDate
p3467
V2011-08-31 11:07:00.000
p3468
ssVPVP005-POS1
p3469
(dp3470
Vtype
p3471
VWindows 7 Professional
p3472
sVinstallDate
p3473
V2012-02-22 16:38:00.000
p3474
ssVKIN058-POS1
p3475
(dp3476
Vtype
p3477
VWindows 7 Professional
p3478
sVinstallDate
p3479
V2011-08-31 11:07:00.000
p3480
ssVQUK390-POS1
p3481
(dp3482
Vtype
p3483
VWindows 7 Professional
p3484
sVinstallDate
p3485
V2011-08-31 11:07:00.000
p3486
ssVMLH036-POS1
p3487
(dp3488
Vtype
p3489
VWindows XP Professional
p3490
sVinstallDate
p3491
V2008-07-22 07:51:00.000
p3492
ssVGLE004-POS2
p3493
(dp3494
Vtype
p3495
VWindows 7 Professional
p3496
sVinstallDate
p3497
V2011-08-31 11:07:00.000
p3498
ssV_UltraPC-Test
p3499
(dp3500
Vtype
p3501
VWindows 7 Professional
p3502
sVinstallDate
p3503
V2011-08-31 11:07:00.000
p3504
ssVQUK635-POS1
p3505
(dp3506
Vtype
p3507
VWindows 7 Professional
p3508
sVinstallDate
p3509
V2011-08-31 11:07:00.000
p3510
ssVGLE004-POS1
p3511
(dp3512
Vtype
p3513
VWindows 7 Professional
p3514
sVinstallDate
p3515
V2011-08-31 11:07:00.000
p3516
ssVABC226-POS1
p3517
(dp3518
Vtype
p3519
VWindows 7 Professional
p3520
sVinstallDate
p3521
V2014-02-18 09:11:00.000
p3522
ssVQUK350-POS1
p3523
(dp3524
Vtype
p3525
VWindows 7 Professional
p3526
sVinstallDate
p3527
V2011-08-31 11:07:00.000
p3528
ssVGMC009-POS1
p3529
(dp3530
Vtype
p3531
VWindows 7 Professional
p3532
sVinstallDate
p3533
V2011-08-31 11:07:00.000
p3534
ssVGMC009-POS2
p3535
(dp3536
Vtype
p3537
VWindows 7 Professional
p3538
sVinstallDate
p3539
V2011-08-31 11:07:00.000
p3540
ssVGMC009-POS3
p3541
(dp3542
Vtype
p3543
VWindows 7 Professional
p3544
sVinstallDate
p3545
V2011-08-31 11:07:00.000
p3546
ssVCPS036-S
p3547
(dp3548
Vtype
p3549
VWindows 7 Professional
p3550
sVinstallDate
p3551
V2011-08-31 11:07:00.000
p3552
ssVIPK201-POS1
p3553
(dp3554
Vtype
p3555
VWindows 7 Professional
p3556
sVinstallDate
p3557
V2011-08-31 11:07:00.000
p3558
ssVMNH048-POS1
p3559
(dp3560
Vtype
p3561
VWindows 7 Professional
p3562
sVinstallDate
p3563
V2011-08-31 11:07:00.000
p3564
ssVMLH075-POS1
p3565
(dp3566
Vtype
p3567
VWindows XP Professional
p3568
sVinstallDate
p3569
V2008-07-22 07:51:00.000
p3570
ssVMLH075-POS2
p3571
(dp3572
Vtype
p3573
VWindows XP Professional
p3574
sVinstallDate
p3575
V2008-07-22 07:51:00.000
p3576
ssVABC097-W1
p3577
(dp3578
Vtype
p3579
VWindows 7 Professional
p3580
sVinstallDate
p3581
V2011-08-31 11:07:00.000
p3582
ssVGMC006-POS1
p3583
(dp3584
Vtype
p3585
VWindows 7 Professional
p3586
sVinstallDate
p3587
V2011-08-31 11:07:00.000
p3588
ssVRDN280-S
p3589
(dp3590
Vtype
p3591
VWindows 7 Professional
p3592
sVinstallDate
p3593
V2011-08-31 11:07:00.000
p3594
ssVCPS014-S
p3595
(dp3596
Vtype
p3597
VWindows 7 Professional
p3598
sVinstallDate
p3599
V2011-08-31 11:07:00.000
p3600
ssVSEL400-S
p3601
(dp3602
Vtype
p3603
VWindows XP Professional
p3604
sVinstallDate
p3605
V2007-05-15 15:50:00.000
p3606
ssVKIN034-POS1
p3607
(dp3608
Vtype
p3609
VWindows 7 Professional
p3610
sVinstallDate
p3611
V2011-08-31 11:07:00.000
p3612
ssVKIN038-POS1
p3613
(dp3614
Vtype
p3615
VWindows 7 Professional
p3616
sVinstallDate
p3617
V2011-08-31 11:07:00.000
p3618
ssVKIN038-POS2
p3619
(dp3620
Vtype
p3621
VWindows 7 Professional
p3622
sVinstallDate
p3623
V2011-08-31 11:07:00.000
p3624
ssVMLH028-POS1
p3625
(dp3626
Vtype
p3627
VWindows 7 Professional
p3628
sVinstallDate
p3629
V2011-08-31 11:07:00.000
p3630
ssVMLH036-POS2
p3631
(dp3632
Vtype
p3633
VWindows XP Professional
p3634
sVinstallDate
p3635
V2008-07-22 07:51:00.000
p3636
ssVCCP001-S
p3637
(dp3638
Vtype
p3639
VWindows 7 Professional
p3640
sVinstallDate
p3641
V2010-02-02 10:15:00.000
p3642
ssVMNH165-POS1
p3643
(dp3644
Vtype
p3645
VWindows 7 Professional
p3646
sVinstallDate
p3647
V2011-08-31 11:07:00.000
p3648
ssVQUK710-POS1
p3649
(dp3650
Vtype
p3651
VWindows 7 Professional
p3652
sVinstallDate
p3653
V2011-08-31 11:07:00.000
p3654
ssVABC082-S
p3655
(dp3656
Vtype
p3657
VWindows 7 Professional
p3658
sVinstallDate
p3659
V2011-08-31 11:07:00.000
p3660
ssVABC015-SERVER
p3661
(dp3662
Vtype
p3663
VWindows 7 Professional
p3664
sVinstallDate
p3665
V2011-08-31 11:07:00.000
p3666
ssVMLH012-POS2
p3667
(dp3668
Vtype
p3669
VWindows 7 Professional
p3670
sVinstallDate
p3671
V2011-08-31 11:07:00.000
p3672
ssVKIN063-POS1
p3673
(dp3674
Vtype
p3675
VWindows 7 Professional
p3676
sVinstallDate
p3677
V2011-08-31 11:07:00.000
p3678
ssVRPD055-S
p3679
(dp3680
Vtype
p3681
VWindows 7 Professional
p3682
sVinstallDate
p3683
V2011-08-31 11:07:00.000
p3684
ssVMNH012-POS1
p3685
(dp3686
Vtype
p3687
VWindows 7 Professional
p3688
sVinstallDate
p3689
V2011-08-31 11:07:00.000
p3690
ssVABC227-POS1
p3691
(dp3692
Vtype
p3693
VWindows 7 Professional
p3694
sVinstallDate
p3695
V2014-02-18 09:11:00.000
p3696
ssVGMC067-POS1
p3697
(dp3698
Vtype
p3699
VWindows 7 Professional
p3700
sVinstallDate
p3701
V2011-08-31 11:07:00.000
p3702
ssVAMP001-S
p3703
(dp3704
Vtype
p3705
VWindows 7 Professional
p3706
sVinstallDate
p3707
V2012-02-22 16:38:00.000
p3708
ssVCPS034-S
p3709
(dp3710
Vtype
p3711
VWindows 7 Professional
p3712
sVinstallDate
p3713
V2011-08-31 11:07:00.000
p3714
ssVPRK415-S
p3715
(dp3716
Vtype
p3717
VWindows XP Professional
p3718
sVinstallDate
p3719
V2007-05-15 15:50:00.000
p3720
ssVMNH014-S
p3721
(dp3722
Vtype
p3723
VWindows XP Professional
p3724
sVinstallDate
p3725
V2007-05-15 15:50:00.000
p3726
ssVQUK010-POS1
p3727
(dp3728
Vtype
p3729
VWindows 7 Professional
p3730
sVinstallDate
p3731
V2011-08-31 11:07:00.000
p3732
ssVABC221-POS1
p3733
(dp3734
Vtype
p3735
VWindows 7 Professional
p3736
sVinstallDate
p3737
V2014-02-18 09:11:00.000
p3738
ssVGLE056-POS1
p3739
(dp3740
Vtype
p3741
VWindows 7 Professional
p3742
sVinstallDate
p3743
V2011-08-31 11:07:00.000
p3744
ssVQUK091-POS1
p3745
(dp3746
Vtype
p3747
VWindows 7 Professional
p3748
sVinstallDate
p3749
V2011-08-31 11:07:00.000
p3750
ssVABC224-S
p3751
(dp3752
Vtype
p3753
VWindows 7 Professional
p3754
sVinstallDate
p3755
V2011-08-31 11:07:00.000
p3756
ssVGLE073-POS1
p3757
(dp3758
Vtype
p3759
VWindows 7 Professional
p3760
sVinstallDate
p3761
V2011-08-31 11:07:00.000
p3762
ssVQUK731-POS1
p3763
(dp3764
Vtype
p3765
VWindows 7 Professional
p3766
sVinstallDate
p3767
V2012-02-22 16:38:00.000
p3768
ssVSPN003-S
p3769
(dp3770
Vtype
p3771
VWindows 7 Professional
p3772
sVinstallDate
p3773
V2010-02-02 10:15:00.000
p3774
ssVRPD001-POS1
p3775
(dp3776
Vtype
p3777
VWindows 7 Professional
p3778
sVinstallDate
p3779
V2011-08-31 11:07:00.000
p3780
ssVSEL076-S
p3781
(dp3782
Vtype
p3783
VWindows XP Professional
p3784
sVinstallDate
p3785
V2008-05-29 15:39:00.000
p3786
ssVVPN007-POS1
p3787
(dp3788
Vtype
p3789
VWindows 7 Professional
p3790
sVinstallDate
p3791
V2014-02-18 09:11:00.000
p3792
ssVMLH704-POS1
p3793
(dp3794
Vtype
p3795
VWindows 7 Professional
p3796
sVinstallDate
p3797
V2011-08-31 11:07:00.000
p3798
ssVRGC015-S
p3799
(dp3800
Vtype
p3801
VWindows XP Professional
p3802
sVinstallDate
p3803
V2007-11-05 13:36:00.000
p3804
ssVABC010-SERVER
p3805
(dp3806
Vtype
p3807
VWindows 7 Professional
p3808
sVinstallDate
p3809
V2011-08-31 11:07:00.000
p3810
ssVABC071-POS1
p3811
(dp3812
Vtype
p3813
VWindows 7 Professional
p3814
sVinstallDate
p3815
V2014-02-18 09:11:00.000
p3816
ssVRPD039-POS1
p3817
(dp3818
Vtype
p3819
VWindows 7 Professional
p3820
sVinstallDate
p3821
V2011-08-31 11:07:00.000
p3822
ssVQUK050-POS1
p3823
(dp3824
Vtype
p3825
VWindows 7 Professional
p3826
sVinstallDate
p3827
V2014-02-18 09:11:00.000
p3828
ssVPRK029-S
p3829
(dp3830
Vtype
p3831
VWindows XP Professional
p3832
sVinstallDate
p3833
V2008-06-26 14:23:00.000
p3834
ssVGLE091-POS1
p3835
(dp3836
Vtype
p3837
VWindows 7 Professional
p3838
sVinstallDate
p3839
V2011-08-31 11:07:00.000
p3840
ssVTIS005-POS1
p3841
(dp3842
Vtype
p3843
VWindows 7 Professional
p3844
sVinstallDate
p3845
V2011-08-31 11:07:00.000
p3846
ssVVPN005-POS1
p3847
(dp3848
Vtype
p3849
VWindows 7 Professional
p3850
sVinstallDate
p3851
V2012-02-22 16:38:00.000
p3852
ssVPRK077-S
p3853
(dp3854
Vtype
p3855
VWindows 7 Professional
p3856
sVinstallDate
p3857
V2011-08-31 11:07:00.000
p3858
ssVEXP001-W1
p3859
(dp3860
Vtype
p3861
VWindows XP Professional
p3862
sVinstallDate
p3863
V2008-07-22 07:51:00.000
p3864
ssVKIN010-POS1
p3865
(dp3866
Vtype
p3867
VWindows 7 Professional
p3868
sVinstallDate
p3869
V2011-08-31 11:07:00.000
p3870
ssVMNH002-POS1
p3871
(dp3872
Vtype
p3873
VWindows 7 Professional
p3874
sVinstallDate
p3875
V2011-08-31 11:07:00.000
p3876
ssVMNH071-S
p3877
(dp3878
Vtype
p3879
VWindows 7 Professional
p3880
sVinstallDate
p3881
V2011-08-31 11:07:00.000
p3882
ssVABC087-POS1
p3883
(dp3884
Vtype
p3885
VWindows 7 Professional
p3886
sVinstallDate
p3887
V2014-02-18 09:11:00.000
p3888
ssVABC041-S
p3889
(dp3890
Vtype
p3891
VWindows 7 Professional
p3892
sVinstallDate
p3893
V2011-08-31 11:07:00.000
p3894
ssVSEL054-S
p3895
(dp3896
Vtype
p3897
VWindows XP Professional
p3898
sVinstallDate
p3899
V2008-06-26 14:23:00.000
p3900
ssVABC252-POS1
p3901
(dp3902
Vtype
p3903
VWindows 7 Professional
p3904
sVinstallDate
p3905
V2012-02-22 16:38:00.000
p3906
ssVGLE077-POS1
p3907
(dp3908
Vtype
p3909
VWindows 7 Professional
p3910
sVinstallDate
p3911
V2011-08-31 11:07:00.000
p3912
ssVMLH082-POS1
p3913
(dp3914
Vtype
p3915
VWindows 7 Professional
p3916
sVinstallDate
p3917
V2011-08-31 11:07:00.000
p3918
ssVMLH078-POS2
p3919
(dp3920
Vtype
p3921
VWindows XP Professional
p3922
sVinstallDate
p3923
V2008-06-26 14:23:00.000
p3924
ssVMNH004-POS1
p3925
(dp3926
Vtype
p3927
VWindows 7 Professional
p3928
sVinstallDate
p3929
V2011-08-31 11:07:00.000
p3930
ssVMLH078-POS1
p3931
(dp3932
Vtype
p3933
VWindows XP Professional
p3934
sVinstallDate
p3935
V2008-06-26 14:23:00.000
p3936
ssVABC009-POS1
p3937
(dp3938
Vtype
p3939
VWindows 7 Professional
p3940
sVinstallDate
p3941
V2014-02-18 09:11:00.000
p3942
ssVMLH098-POS1
p3943
(dp3944
Vtype
p3945
VWindows XP Professional
p3946
sVinstallDate
p3947
V2008-06-26 14:23:00.000
p3948
ssVMLH161-POS2
p3949
(dp3950
Vtype
p3951
VWindows 7 Professional
p3952
sVinstallDate
p3953
V2010-12-01 15:12:00.000
p3954
ssVMLH161-POS1
p3955
(dp3956
Vtype
p3957
VWindows 7 Professional
p3958
sVinstallDate
p3959
V2010-12-01 15:12:00.000
p3960
ssVABC222-POS1
p3961
(dp3962
Vtype
p3963
VWindows 7 Professional
p3964
sVinstallDate
p3965
V2012-02-22 16:38:00.000
p3966
ssVPPA030-S
p3967
(dp3968
Vtype
p3969
VWindows 7 Professional
p3970
sVinstallDate
p3971
V2012-02-22 16:38:00.000
p3972
ssVTSQ029-S
p3973
(dp3974
Vtype
p3975
VWindows 7 Professional
p3976
sVinstallDate
p3977
V2011-08-31 11:07:00.000
p3978
ssVABC017-POS1
p3979
(dp3980
Vtype
p3981
VWindows 7 Professional
p3982
sVinstallDate
p3983
V2011-08-31 11:07:00.000
p3984
ssVMLH257-POS3
p3985
(dp3986
Vtype
p3987
VWindows 7 Professional
p3988
sVinstallDate
p3989
V2011-08-31 11:07:00.000
p3990
ssVMLH257-POS2
p3991
(dp3992
Vtype
p3993
VWindows 7 Professional
p3994
sVinstallDate
p3995
V2011-08-31 11:07:00.000
p3996
ssVMLH257-POS1
p3997
(dp3998
Vtype
p3999
VWindows 7 Professional
p4000
sVinstallDate
p4001
V2011-08-31 11:07:00.000
p4002
ssVMLH004-POS1
p4003
(dp4004
Vtype
p4005
VWindows 7 Professional
p4006
sVinstallDate
p4007
V2011-08-31 11:07:00.000
p4008
ssVABC244-POS2
p4009
(dp4010
Vtype
p4011
VWindows 7 Professional
p4012
sVinstallDate
p4013
V2012-02-22 16:38:00.000
p4014
ssVMLH011-POS1
p4015
(dp4016
Vtype
p4017
VWindows 7 Professional
p4018
sVinstallDate
p4019
V2011-08-31 11:07:00.000
p4020
ssVMLH004-POS2
p4021
(dp4022
Vtype
p4023
VWindows 7 Professional
p4024
sVinstallDate
p4025
V2011-08-31 11:07:00.000
p4026
ssVMLH109-POS1
p4027
(dp4028
Vtype
p4029
VWindows 7 Professional
p4030
sVinstallDate
p4031
V2010-12-01 15:12:00.000
p4032
ssVQUK779-POS1
p4033
(dp4034
Vtype
p4035
VWindows 7 Professional
p4036
sVinstallDate
p4037
V2012-02-22 16:38:00.000
p4038
ssVMLH109-POS2
p4039
(dp4040
Vtype
p4041
VWindows 7 Professional
p4042
sVinstallDate
p4043
V2010-12-01 15:12:00.000
p4044
ssVMLH095-POS1
p4045
(dp4046
Vtype
p4047
VWindows XP Professional
p4048
sVinstallDate
p4049
V2008-07-22 07:51:00.000
p4050
ssVTSQ203-POS1
p4051
(dp4052
Vtype
p4053
VWindows 7 Professional
p4054
sVinstallDate
p4055
V2011-08-31 11:07:00.000
p4056
ssVABC244-POS1
p4057
(dp4058
Vtype
p4059
VWindows 7 Professional
p4060
sVinstallDate
p4061
V2012-02-22 16:38:00.000
p4062
ssVQUK808-POS1
p4063
(dp4064
Vtype
p4065
VWindows 7 Professional
p4066
sVinstallDate
p4067
V2011-08-31 11:07:00.000
p4068
ssVKIN015-POS1
p4069
(dp4070
Vtype
p4071
VWindows 7 Professional
p4072
sVinstallDate
p4073
V2011-08-31 11:07:00.000
p4074
ssVMNH055-POS1
p4075
(dp4076
Vtype
p4077
VWindows 7 Professional
p4078
sVinstallDate
p4079
V2011-08-31 11:07:00.000
p4080
ssVABC250-POS1
p4081
(dp4082
Vtype
p4083
VWindows 7 Professional
p4084
sVinstallDate
p4085
V2014-02-18 09:11:00.000
p4086
ssVGLE001-POS1
p4087
(dp4088
Vtype
p4089
VWindows 7 Professional
p4090
sVinstallDate
p4091
V2011-08-31 11:07:00.000
p4092
ssVKIN040-POS2
p4093
(dp4094
Vtype
p4095
VWindows 7 Professional
p4096
sVinstallDate
p4097
V2011-08-31 11:07:00.000
p4098
ssVVFC001-POS1
p4099
(dp4100
Vtype
p4101
VWindows 7 Professional
p4102
sVinstallDate
p4103
V2015-02-02 16:25:00.000
p4104
ssVKIN040-POS1
p4105
(dp4106
Vtype
p4107
VWindows 7 Professional
p4108
sVinstallDate
p4109
V2011-08-31 11:07:00.000
p4110
ssVABC193-POS1
p4111
(dp4112
Vtype
p4113
VWindows 7 Professional
p4114
sVinstallDate
p4115
V2012-02-22 16:38:00.000
p4116
ssVTSQ204-S 
p4117
(dp4118
Vtype
p4119
VWindows 7 Professional
p4120
sVinstallDate
p4121
V2011-08-31 11:07:00.000
p4122
ssVTIS001-POS1
p4123
(dp4124
Vtype
p4125
VWindows 7 Professional
p4126
sVinstallDate
p4127
V2011-08-31 11:07:00.000
p4128
ssVMLH155-POS1
p4129
(dp4130
Vtype
p4131
VWindows XP Professional
p4132
sVinstallDate
p4133
V2008-07-22 07:51:00.000
p4134
ssVMLH155-POS2
p4135
(dp4136
Vtype
p4137
VWindows XP Professional
p4138
sVinstallDate
p4139
V2008-07-22 07:51:00.000
p4140
ssVTIS006-POS2
p4141
(dp4142
Vtype
p4143
VWindows 7 Professional
p4144
sVinstallDate
p4145
V2011-08-31 11:07:00.000
p4146
ssVQUK712-POS1
p4147
(dp4148
Vtype
p4149
VWindows 7 Professional
p4150
sVinstallDate
p4151
V2011-08-31 11:07:00.000
p4152
ssVTIS006-POS1
p4153
(dp4154
Vtype
p4155
VWindows 7 Professional
p4156
sVinstallDate
p4157
V2011-08-31 11:07:00.000
p4158
ssVABC077-S
p4159
(dp4160
Vtype
p4161
VWindows 7 Professional
p4162
sVinstallDate
p4163
V2011-08-31 11:07:00.000
p4164
ssVRPD020-POS1
p4165
(dp4166
Vtype
p4167
VWindows 7 Professional
p4168
sVinstallDate
p4169
V2011-08-31 11:07:00.000
p4170
ssVQUK711-POS1
p4171
(dp4172
Vtype
p4173
VWindows 7 Professional
p4174
sVinstallDate
p4175
V2011-08-31 11:07:00.000
p4176
ssVTSQ201-POS2
p4177
(dp4178
Vtype
p4179
VWindows 7 Professional
p4180
sVinstallDate
p4181
V2011-08-31 11:07:00.000
p4182
ssVMLH233-POS1
p4183
(dp4184
Vtype
p4185
VWindows 7 Professional
p4186
sVinstallDate
p4187
V2011-08-31 11:07:00.000
p4188
ssVMLH666-POS1
p4189
(dp4190
Vtype
p4191
VWindows 7 Professional
p4192
sVinstallDate
p4193
V2011-08-31 11:07:00.000
p4194
ssVMLH709-POS1
p4195
(dp4196
Vtype
p4197
VWindows 7 Professional
p4198
sVinstallDate
p4199
V2011-08-31 11:07:00.000
p4200
ssVMLH233-POS2
p4201
(dp4202
Vtype
p4203
VWindows 7 Professional
p4204
sVinstallDate
p4205
V2011-08-31 11:07:00.000
p4206
ssVMLH740-POS1
p4207
(dp4208
Vtype
p4209
VWindows 7 Professional
p4210
sVinstallDate
p4211
V2011-08-31 11:07:00.000
p4212
ssVMLH769-POS1
p4213
(dp4214
Vtype
p4215
VWindows 7 Professional
p4216
sVinstallDate
p4217
V2011-08-31 11:07:00.000
p4218
ssVGLE002-POS2
p4219
(dp4220
Vtype
p4221
VWindows 7 Professional
p4222
sVinstallDate
p4223
V2011-08-31 11:07:00.000
p4224
ssVMLH729-POS1
p4225
(dp4226
Vtype
p4227
VWindows 7 Professional
p4228
sVinstallDate
p4229
V2011-08-31 11:07:00.000
p4230
ssVSEL001-S
p4231
(dp4232
Vtype
p4233
VWindows XP Professional
p4234
sVinstallDate
p4235
V2008-06-26 14:23:00.000
p4236
ssVMLH049-POS2
p4237
(dp4238
Vtype
p4239
VWindows 7 Professional
p4240
sVinstallDate
p4241
V2011-08-31 11:07:00.000
p4242
ssVMLH049-POS1
p4243
(dp4244
Vtype
p4245
VWindows 7 Professional
p4246
sVinstallDate
p4247
V2011-08-31 11:07:00.000
p4248
ssVSEL054-W1
p4249
(dp4250
Vtype
p4251
VWindows XP Professional
p4252
sVinstallDate
p4253
V2008-06-26 14:23:00.000
p4254
ssVQUK064-POS1
p4255
(dp4256
Vtype
p4257
VWindows 7 Professional
p4258
sVinstallDate
p4259
V2011-08-31 11:07:00.000
p4260
ssVCPS054-S
p4261
(dp4262
Vtype
p4263
VWindows 7 Professional
p4264
sVinstallDate
p4265
V2011-08-31 11:07:00.000
p4266
ssVAMP003-POS2
p4267
(dp4268
Vtype
p4269
VWindows 7 Professional
p4270
sVinstallDate
p4271
V2012-02-22 16:38:00.000
p4272
ssVAMP003-POS1
p4273
(dp4274
Vtype
p4275
VWindows 7 Professional
p4276
sVinstallDate
p4277
V2012-02-22 16:38:00.000
p4278
ssVMLH039-POS1
p4279
(dp4280
Vtype
p4281
VWindows 7 Professional
p4282
sVinstallDate
p4283
V2011-08-31 11:07:00.000
p4284
ssVQUK022-POS1
p4285
(dp4286
Vtype
p4287
VWindows 7 Professional
p4288
sVinstallDate
p4289
V2011-08-31 11:07:00.000
p4290
ssVTSQ045-S
p4291
(dp4292
Vtype
p4293
VWindows 7 Professional
p4294
sVinstallDate
p4295
V2011-08-31 11:07:00.000
p4296
ssVSEL333-POS1
p4297
(dp4298
Vtype
p4299
VWindows 7 Professional
p4300
sVinstallDate
p4301
V2011-08-31 11:07:00.000
p4302
ssVQUK361-POS1
p4303
(dp4304
Vtype
p4305
VWindows 7 Professional
p4306
sVinstallDate
p4307
V2015-02-02 16:25:00.000
p4308
ssVSEL131-S
p4309
(dp4310
Vtype
p4311
VWindows XP Professional
p4312
sVinstallDate
p4313
V2008-06-26 14:23:00.000
p4314
ssVMLH014-POS2
p4315
(dp4316
Vtype
p4317
VWindows XP Professional
p4318
sVinstallDate
p4319
V2008-07-22 07:51:00.000
p4320
ssVINT009-POS1
p4321
(dp4322
Vtype
p4323
VWindows 7 Professional
p4324
sVinstallDate
p4325
V2012-02-22 16:38:00.000
p4326
ssVABC253-POS2
p4327
(dp4328
Vtype
p4329
VWindows 7 Professional
p4330
sVinstallDate
p4331
V2011-08-31 11:07:00.000
p4332
ssVMLH880-POS3
p4333
(dp4334
Vtype
p4335
VWindows XP Professional
p4336
sVinstallDate
p4337
V2008-07-22 07:51:00.000
p4338
ssVQUK340-POS1
p4339
(dp4340
Vtype
p4341
VWindows 7 Professional
p4342
sVinstallDate
p4343
V2015-02-02 16:25:00.000
p4344
ssVMLH880-POS2
p4345
(dp4346
Vtype
p4347
VWindows XP Professional
p4348
sVinstallDate
p4349
V2008-07-22 07:51:00.000
p4350
ssVSEL185-W1
p4351
(dp4352
Vtype
p4353
VWindows XP Professional
p4354
sVinstallDate
p4355
V2008-06-26 14:23:00.000
p4356
ssVSPN002-S
p4357
(dp4358
Vtype
p4359
VWindows XP Professional
p4360
sVinstallDate
p4361
V2007-05-15 15:50:00.000
p4362
ssVMNH173-S
p4363
(dp4364
Vtype
p4365
VWindows 7 Professional
p4366
sVinstallDate
p4367
V2010-02-02 10:15:00.000
p4368
ssVMLH105-POS1
p4369
(dp4370
Vtype
p4371
VWindows XP Professional
p4372
sVinstallDate
p4373
V2008-06-26 14:23:00.000
p4374
ssVABC255-POS1
p4375
(dp4376
Vtype
p4377
VWindows 7 Professional
p4378
sVinstallDate
p4379
V2011-08-31 11:07:00.000
p4380
ssVMLH105-POS2
p4381
(dp4382
Vtype
p4383
VWindows XP Professional
p4384
sVinstallDate
p4385
V2008-06-26 14:23:00.000
p4386
ssVQUK311-POS1
p4387
(dp4388
Vtype
p4389
VWindows 7 Professional
p4390
sVinstallDate
p4391
V2011-08-31 11:07:00.000
p4392
ssVMLH703-POS1
p4393
(dp4394
Vtype
p4395
VWindows 7 Professional
p4396
sVinstallDate
p4397
V2011-08-31 11:07:00.000
p4398
ssVTSQ201-POS1
p4399
(dp4400
Vtype
p4401
VWindows 7 Professional
p4402
sVinstallDate
p4403
V2011-08-31 11:07:00.000
p4404
ssVSEL005-W1
p4405
(dp4406
Vtype
p4407
VWindows XP Professional
p4408
sVinstallDate
p4409
V2008-06-26 14:23:00.000
p4410
ssVQUK189-POS1
p4411
(dp4412
Vtype
p4413
VWindows 7 Professional
p4414
sVinstallDate
p4415
V2015-02-02 16:25:00.000
p4416
ssVMLH810-POS1
p4417
(dp4418
Vtype
p4419
VWindows XP Professional
p4420
sVinstallDate
p4421
V2008-07-22 07:51:00.000
p4422
ssVMLH810-POS2
p4423
(dp4424
Vtype
p4425
VWindows XP Professional
p4426
sVinstallDate
p4427
V2008-07-22 07:51:00.000
p4428
ssVABC092-S
p4429
(dp4430
Vtype
p4431
VWindows 7 Professional
p4432
sVinstallDate
p4433
V2011-08-31 11:07:00.000
p4434
ssVPPA011-S
p4435
(dp4436
Vtype
p4437
VWindows XP Professional
p4438
sVinstallDate
p4439
V2008-06-26 14:23:00.000
p4440
ssVEEP005-S
p4441
(dp4442
Vtype
p4443
VWindows 7 Professional
p4444
sVinstallDate
p4445
V2011-08-31 11:07:00.000
p4446
ssVQUK066-POS1
p4447
(dp4448
Vtype
p4449
VWindows 7 Professional
p4450
sVinstallDate
p4451
V2015-02-02 16:25:00.000
p4452
ssVMLHOFFICE-PC
p4453
(dp4454
Vtype
p4455
VWindows 7 Professional x64 Edition
p4456
sVinstallDate
p4457
V2016-02-09 08:29:00.000
p4458
ssVMLH107-POS1
p4459
(dp4460
Vtype
p4461
VWindows XP Professional
p4462
sVinstallDate
p4463
V2008-06-26 14:23:00.000
p4464
ssVQUK102-POS1
p4465
(dp4466
Vtype
p4467
VWindows 7 Professional
p4468
sVinstallDate
p4469
V2012-02-22 16:38:00.000
p4470
ssVGMC063-POS1
p4471
(dp4472
Vtype
p4473
VWindows 7 Professional
p4474
sVinstallDate
p4475
V2011-08-31 11:07:00.000
p4476
ssVMLH027-POS1
p4477
(dp4478
Vtype
p4479
VWindows 7 Professional
p4480
sVinstallDate
p4481
V2011-08-31 11:07:00.000
p4482
ssVRDN052-POS2
p4483
(dp4484
Vtype
p4485
VWindows 7 Professional
p4486
sVinstallDate
p4487
V2011-08-31 11:07:00.000
p4488
ssVRDN052-POS1
p4489
(dp4490
Vtype
p4491
VWindows 7 Professional
p4492
sVinstallDate
p4493
V2011-08-31 11:07:00.000
p4494
ssVABC010-S
p4495
(dp4496
Vtype
p4497
VWindows 7 Professional
p4498
sVinstallDate
p4499
V2011-08-31 11:07:00.000
p4500
ssVMLH017-POS1
p4501
(dp4502
Vtype
p4503
VWindows 7 Professional
p4504
sVinstallDate
p4505
V2011-08-31 11:07:00.000
p4506
ssVGMC041-POS1
p4507
(dp4508
Vtype
p4509
VWindows 7 Professional
p4510
sVinstallDate
p4511
V2011-08-31 11:07:00.000
p4512
ssVGOT153-S
p4513
(dp4514
Vtype
p4515
VWindows XP Professional
p4516
sVinstallDate
p4517
V2008-06-26 14:23:00.000
p4518
ssVGMC030-S
p4519
(dp4520
Vtype
p4521
VWindows XP Professional
p4522
sVinstallDate
p4523
V2007-05-15 15:50:00.000
p4524
ssVMLH048-POS1
p4525
(dp4526
Vtype
p4527
VWindows 7 Professional
p4528
sVinstallDate
p4529
V2011-08-31 11:07:00.000
p4530
ssVVPN006-POS1
p4531
(dp4532
Vtype
p4533
VWindows 7 Professional
p4534
sVinstallDate
p4535
V2012-02-22 16:38:00.000
p4536
ssVGMC035-POS1
p4537
(dp4538
Vtype
p4539
VWindows 7 Professional
p4540
sVinstallDate
p4541
V2011-08-31 11:07:00.000
p4542
ssVABC234-POS1
p4543
(dp4544
Vtype
p4545
VWindows 7 Professional
p4546
sVinstallDate
p4547
V2014-02-18 09:11:00.000
p4548
ssVABC223-POS1
p4549
(dp4550
Vtype
p4551
VWindows 7 Professional
p4552
sVinstallDate
p4553
V2014-02-18 09:11:00.000
p4554
ssVMNH008-POS1
p4555
(dp4556
Vtype
p4557
VWindows 7 Professional
p4558
sVinstallDate
p4559
V2011-08-31 11:07:00.000
p4560
ssVIPK202-POS1
p4561
(dp4562
Vtype
p4563
VWindows 7 Professional
p4564
sVinstallDate
p4565
V2011-08-31 11:07:00.000
p4566
ssVSEL088-POS1
p4567
(dp4568
Vtype
p4569
VWindows 7 Professional
p4570
sVinstallDate
p4571
V2011-08-31 11:07:00.000
p4572
ssVABC253-POS1
p4573
(dp4574
Vtype
p4575
VWindows 7 Professional
p4576
sVinstallDate
p4577
V2012-02-22 16:38:00.000
p4578
ssVABC243-S
p4579
(dp4580
Vtype
p4581
VWindows 7 Professional
p4582
sVinstallDate
p4583
V2014-02-18 09:11:00.000
p4584
ssVMLH710-POS1
p4585
(dp4586
Vtype
p4587
VWindows 7 Professional
p4588
sVinstallDate
p4589
V2011-08-31 11:07:00.000
p4590
ssVQUK027-POS1
p4591
(dp4592
Vtype
p4593
VWindows 7 Professional
p4594
sVinstallDate
p4595
V2011-08-31 11:07:00.000
p4596
ssVMLH009-POS2
p4597
(dp4598
Vtype
p4599
VWindows 7 Professional
p4600
sVinstallDate
p4601
V2011-08-31 11:07:00.000
p4602
ssVRPD001-POS2
p4603
(dp4604
Vtype
p4605
VWindows 7 Professional
p4606
sVinstallDate
p4607
V2011-08-31 11:07:00.000
p4608
ssVAMP516-S
p4609
(dp4610
Vtype
p4611
NsVinstallDate
p4612
NssVMLH009-POS1
p4613
(dp4614
Vtype
p4615
VWindows 7 Professional
p4616
sVinstallDate
p4617
V2011-08-31 11:07:00.000
p4618
ssVPRI001-S
p4619
(dp4620
Vtype
p4621
VWindows XP Professional
p4622
sVinstallDate
p4623
V2008-06-26 14:23:00.000
p4624
ssVMLH731-POS1
p4625
(dp4626
Vtype
p4627
VWindows XP Professional
p4628
sVinstallDate
p4629
V2008-07-22 07:51:00.000
p4630
ssVMLH068-POS1
p4631
(dp4632
Vtype
p4633
VWindows 7 Professional
p4634
sVinstallDate
p4635
V2011-08-31 11:07:00.000
p4636
ssVQUK751-POS1
p4637
(dp4638
Vtype
p4639
VWindows 7 Professional
p4640
sVinstallDate
p4641
V2012-02-22 16:38:00.000
p4642
ssVTSQ020-S
p4643
(dp4644
Vtype
p4645
VWindows 7 Professional
p4646
sVinstallDate
p4647
V2011-08-31 11:07:00.000
p4648
ssVGMC090-POS1
p4649
(dp4650
Vtype
p4651
VWindows 7 Professional
p4652
sVinstallDate
p4653
V2011-08-31 11:07:00.000
p4654
ssVMLH758-POS1
p4655
(dp4656
Vtype
p4657
VWindows 7 Professional
p4658
sVinstallDate
p4659
V2012-02-22 16:38:00.000
p4660
ssVGLE002-POS1
p4661
(dp4662
Vtype
p4663
VWindows 7 Professional
p4664
sVinstallDate
p4665
V2011-08-31 11:07:00.000
p4666
ssVMLH758-POS3
p4667
(dp4668
Vtype
p4669
VWindows 7 Professional
p4670
sVinstallDate
p4671
V2012-02-22 16:38:00.000
p4672
ssVMLH758-POS2
p4673
(dp4674
Vtype
p4675
VWindows 7 Professional
p4676
sVinstallDate
p4677
V2012-02-22 16:38:00.000
p4678
ssVMLH736-POS1
p4679
(dp4680
Vtype
p4681
VWindows 7 Professional
p4682
sVinstallDate
p4683
V2011-08-31 11:07:00.000
p4684
ssVPVP004-POS1
p4685
(dp4686
Vtype
p4687
VWindows 7 Professional
p4688
sVinstallDate
p4689
V2012-02-22 16:38:00.000
p4690
ssVMLH435-POS1
p4691
(dp4692
Vtype
p4693
VWindows XP Professional
p4694
sVinstallDate
p4695
V2008-06-26 14:23:00.000
p4696
ssVKIN022-POS1
p4697
(dp4698
Vtype
p4699
VWindows 7 Professional
p4700
sVinstallDate
p4701
V2011-08-31 11:07:00.000
p4702
ssVMLH083-POS1
p4703
(dp4704
Vtype
p4705
VWindows 7 Professional
p4706
sVinstallDate
p4707
V2011-08-31 11:07:00.000
p4708
ssVMLH888-KIOSK
p4709
(dp4710
Vtype
p4711
VWindows XP Professional
p4712
sVinstallDate
p4713
V2011-01-06 06:26:00.000
p4714
ssVABC077-W1
p4715
(dp4716
Vtype
p4717
VWindows 7 Professional
p4718
sVinstallDate
p4719
V2011-08-31 11:07:00.000
p4720
ssVMLH755-POS1
p4721
(dp4722
Vtype
p4723
VWindows XP Professional
p4724
sVinstallDate
p4725
V2008-07-22 07:51:00.000
p4726
ssVABC044-POS1
p4727
(dp4728
Vtype
p4729
VWindows 7 Professional
p4730
sVinstallDate
p4731
V2012-02-22 16:38:00.000
p4732
ssVMAM117-S
p4733
(dp4734
Vtype
p4735
VWindows 7 Professional
p4736
sVinstallDate
p4737
V2011-08-31 11:07:00.000
p4738
ssVTSQ002-S
p4739
(dp4740
Vtype
p4741
VWindows 7 Professional
p4742
sVinstallDate
p4743
V2011-08-31 11:07:00.000
p4744
ssVRPD080-POS1
p4745
(dp4746
Vtype
p4747
VWindows 7 Professional
p4748
sVinstallDate
p4749
V2011-08-31 11:07:00.000
p4750
ssVQUK076-POS1
p4751
(dp4752
Vtype
p4753
VWindows 7 Professional
p4754
sVinstallDate
p4755
V2015-02-02 16:25:00.000
p4756
ssVKIN309-POS1
p4757
(dp4758
Vtype
p4759
VWindows 7 Professional
p4760
sVinstallDate
p4761
V2011-08-31 11:07:00.000
p4762
ssVMLH025-POS1
p4763
(dp4764
Vtype
p4765
VWindows XP Professional
p4766
sVinstallDate
p4767
V2008-07-22 07:51:00.000
p4768
ssVMLH025-POS2
p4769
(dp4770
Vtype
p4771
VWindows XP Professional
p4772
sVinstallDate
p4773
V2008-07-22 07:51:00.000
p4774
ssVABC075-S
p4775
(dp4776
Vtype
p4777
VWindows 7 Professional
p4778
sVinstallDate
p4779
V2011-08-31 11:07:00.000
p4780
ssVMAM060-POS1
p4781
(dp4782
Vtype
p4783
VWindows 7 Professional
p4784
sVinstallDate
p4785
V2011-08-31 11:07:00.000
p4786
ssVMLH110-POS3
p4787
(dp4788
Vtype
p4789
VWindows 7 Professional
p4790
sVinstallDate
p4791
V2011-08-31 11:07:00.000
p4792
ssVMLH008-POS1
p4793
(dp4794
Vtype
p4795
NsVinstallDate
p4796
NssVMLH008-POS2
p4797
(dp4798
Vtype
p4799
VWindows XP Professional
p4800
sVinstallDate
p4801
V2008-06-26 14:23:00.000
p4802
ssVMLH744-POS1
p4803
(dp4804
Vtype
p4805
VWindows 7 Professional
p4806
sVinstallDate
p4807
V2011-08-31 11:07:00.000
p4808
ssVMLH066-POS1
p4809
(dp4810
Vtype
p4811
VWindows XP Professional
p4812
sVinstallDate
p4813
V2008-06-26 14:23:00.000
p4814
ssVMLH701-POS2
p4815
(dp4816
Vtype
p4817
VWindows 7 Professional
p4818
sVinstallDate
p4819
V2011-08-31 11:07:00.000
p4820
ssVMLH701-POS1
p4821
(dp4822
Vtype
p4823
VWindows 7 Professional
p4824
sVinstallDate
p4825
V2011-08-31 11:07:00.000
p4826
ssVMLH066-POS2
p4827
(dp4828
Vtype
p4829
VWindows XP Professional
p4830
sVinstallDate
p4831
V2008-06-26 14:23:00.000
p4832
ssVIPK203-POS1
p4833
(dp4834
Vtype
p4835
VWindows 7 Professional
p4836
sVinstallDate
p4837
V2011-08-31 11:07:00.000
p4838
ssVMNH050-S
p4839
(dp4840
Vtype
p4841
VWindows XP Professional
p4842
sVinstallDate
p4843
V2008-06-26 14:23:00.000
p4844
ssVGMC028-POS1
p4845
(dp4846
Vtype
p4847
VWindows 7 Professional
p4848
sVinstallDate
p4849
V2011-08-31 11:07:00.000
p4850
ssVABC251-POS1
p4851
(dp4852
Vtype
p4853
VWindows 7 Professional
p4854
sVinstallDate
p4855
V2012-02-22 16:38:00.000
p4856
ssVTSQ095-POS1
p4857
(dp4858
Vtype
p4859
VWindows 7 Professional
p4860
sVinstallDate
p4861
V2011-08-31 11:07:00.000
p4862
ssVGMC001-S
p4863
(dp4864
Vtype
p4865
VWindows 7 Professional
p4866
sVinstallDate
p4867
V2011-08-31 11:07:00.000
p4868
ssVMLH087-POS1
p4869
(dp4870
Vtype
p4871
VWindows XP Professional
p4872
sVinstallDate
p4873
V2008-06-26 14:23:00.000
p4874
ssVMLH087-POS2
p4875
(dp4876
Vtype
p4877
VWindows XP Professional
p4878
sVinstallDate
p4879
V2008-06-26 14:23:00.000
p4880
ssVMLH074-POS1
p4881
(dp4882
Vtype
p4883
VWindows XP Professional
p4884
sVinstallDate
p4885
V2008-06-26 14:23:00.000
p4886
ssVQUK116-POS1
p4887
(dp4888
Vtype
p4889
VWindows 7 Professional
p4890
sVinstallDate
p4891
V2011-08-31 11:07:00.000
p4892
ssVABC016-POS1
p4893
(dp4894
Vtype
p4895
VWindows 7 Professional
p4896
sVinstallDate
p4897
V2011-08-31 11:07:00.000
p4898
ssVQUK727-POS1
p4899
(dp4900
Vtype
p4901
VWindows 7 Professional
p4902
sVinstallDate
p4903
V2012-02-22 16:38:00.000
p4904
ssVTSQ205-S
p4905
(dp4906
Vtype
p4907
VWindows XP Professional
p4908
sVinstallDate
p4909
V2008-06-26 14:23:00.000
p4910
ssVQUK732-POS1
p4911
(dp4912
Vtype
p4913
VWindows 7 Professional
p4914
sVinstallDate
p4915
V2012-02-22 16:38:00.000
p4916
ssVABC011-S
p4917
(dp4918
Vtype
p4919
VWindows 7 Professional
p4920
sVinstallDate
p4921
V2011-08-31 11:07:00.000
p4922
ssVRPD070-POS1
p4923
(dp4924
Vtype
p4925
VWindows 7 Professional
p4926
sVinstallDate
p4927
V2011-08-31 11:07:00.000
p4928
ssVABC066-POS1
p4929
(dp4930
Vtype
p4931
VWindows 7 Professional
p4932
sVinstallDate
p4933
V2012-02-22 16:38:00.000
p4934
ssVMLH751-POS3
p4935
(dp4936
Vtype
p4937
VWindows 7 Professional
p4938
sVinstallDate
p4939
V2011-08-31 11:07:00.000
p4940
ssVMLH116-POS1
p4941
(dp4942
Vtype
p4943
VWindows XP Professional
p4944
sVinstallDate
p4945
V2008-06-26 14:23:00.000
p4946
ssVMLH730-POS1
p4947
(dp4948
Vtype
p4949
VWindows 7 Professional
p4950
sVinstallDate
p4951
V2011-08-31 11:07:00.000
p4952
ssVMLH706-POS1
p4953
(dp4954
Vtype
p4955
VWindows 7 Professional
p4956
sVinstallDate
p4957
V2011-08-31 11:07:00.000
p4958
ssVQUK752-POS1
p4959
(dp4960
Vtype
p4961
VWindows 7 Professional
p4962
sVinstallDate
p4963
V2011-08-31 11:07:00.000
p4964
ssVMNH350-POS1
p4965
(dp4966
Vtype
p4967
VWindows 7 Professional
p4968
sVinstallDate
p4969
V2011-08-31 11:07:00.000
p4970
ssVGMC018-S
p4971
(dp4972
Vtype
p4973
VWindows 7 Professional
p4974
sVinstallDate
p4975
V2011-08-31 11:07:00.000
p4976
ssVABC078-S
p4977
(dp4978
Vtype
p4979
VWindows 7 Professional
p4980
sVinstallDate
p4981
V2011-08-31 11:07:00.000
p4982
ssVRDN021-POS1
p4983
(dp4984
Vtype
p4985
VWindows 7 Professional
p4986
sVinstallDate
p4987
V2014-02-18 09:11:00.000
p4988
ssVOPI003-POS1
p4989
(dp4990
Vtype
p4991
VWindows 7 Professional
p4992
sVinstallDate
p4993
V2011-08-31 11:07:00.000
p4994
ssVRDN021-POS2
p4995
(dp4996
Vtype
p4997
VWindows 7 Professional
p4998
sVinstallDate
p4999
V2011-08-31 11:07:00.000
p5000
ssVTSQ009-S
p5001
(dp5002
Vtype
p5003
VWindows 7 Professional
p5004
sVinstallDate
p5005
V2011-08-31 11:07:00.000
p5006
ssVMLH015-POS1
p5007
(dp5008
Vtype
p5009
VWindows 7 Professional
p5010
sVinstallDate
p5011
V2011-08-31 11:07:00.000
p5012
ssVMLH051-POS2
p5013
(dp5014
Vtype
p5015
VWindows XP Professional
p5016
sVinstallDate
p5017
V2008-07-22 07:51:00.000
p5018
ssVMLH051-POS1
p5019
(dp5020
Vtype
p5021
VWindows XP Professional
p5022
sVinstallDate
p5023
V2008-07-22 07:51:00.000
p5024
ssVSEL081-S
p5025
(dp5026
Vtype
p5027
VWindows XP Professional
p5028
sVinstallDate
p5029
V2008-06-26 14:23:00.000
p5030
ssVHIL175-S
p5031
(dp5032
Vtype
p5033
VWindows XP Professional
p5034
sVinstallDate
p5035
V2007-05-15 15:50:00.000
p5036
ssVMLH722-POS1
p5037
(dp5038
Vtype
p5039
VWindows 7 Professional
p5040
sVinstallDate
p5041
V2011-08-31 11:07:00.000
p5042
ssVMAM053-S
p5043
(dp5044
Vtype
p5045
VWindows 7 Professional
p5046
sVinstallDate
p5047
V2011-08-31 11:07:00.000
p5048
ssVMLH245-POS1
p5049
(dp5050
Vtype
p5051
VWindows XP Professional
p5052
sVinstallDate
p5053
V2008-06-26 14:23:00.000
p5054
ssVQUK301-POS1
p5055
(dp5056
Vtype
p5057
VWindows 7 Professional
p5058
sVinstallDate
p5059
V2015-02-02 16:25:00.000
p5060
ssVMAM074-POS1
p5061
(dp5062
Vtype
p5063
VWindows 7 Professional
p5064
sVinstallDate
p5065
V2011-08-31 11:07:00.000
p5066
ssVQUK360-POS1
p5067
(dp5068
Vtype
p5069
VWindows 7 Professional
p5070
sVinstallDate
p5071
V2011-08-31 11:07:00.000
p5072
ssVOPI034-POS1
p5073
(dp5074
Vtype
p5075
VWindows 7 Professional
p5076
sVinstallDate
p5077
V2011-08-31 11:07:00.000
p5078
ssVOPI034-POS2
p5079
(dp5080
Vtype
p5081
VWindows 7 Professional
p5082
sVinstallDate
p5083
NssVABC041-W1
p5084
(dp5085
Vtype
p5086
VWindows 7 Professional
p5087
sVinstallDate
p5088
V2011-08-31 11:07:00.000
p5089
ssVMLH705-POS1
p5090
(dp5091
Vtype
p5092
VWindows 7 Professional
p5093
sVinstallDate
p5094
V2011-08-31 11:07:00.000
p5095
ssVMLH093-POS1
p5096
(dp5097
Vtype
p5098
VWindows XP Professional
p5099
sVinstallDate
p5100
V2008-06-26 14:23:00.000
p5101
ssVQUK709-POS1
p5102
(dp5103
Vtype
p5104
VWindows 7 Professional
p5105
sVinstallDate
p5106
V2015-02-02 16:25:00.000
p5107
ssVMLH715-POS1
p5108
(dp5109
Vtype
p5110
VWindows 7 Professional
p5111
sVinstallDate
p5112
V2011-08-31 11:07:00.000
p5113
ssVOPI001-KIOSK
p5114
(dp5115
Vtype
p5116
NsVinstallDate
p5117
NssVABC001-POS1
p5118
(dp5119
Vtype
p5120
VWindows 7 Professional
p5121
sVinstallDate
p5122
V2011-08-31 11:07:00.000
p5123
ssVMLH738-POS1
p5124
(dp5125
Vtype
p5126
VWindows 7 Professional
p5127
sVinstallDate
p5128
V2011-08-31 11:07:00.000
p5129
ssVMNH065-POS1
p5130
(dp5131
Vtype
p5132
VWindows 7 Professional
p5133
sVinstallDate
p5134
V2011-08-31 11:07:00.000
p5135
ssVGMC031-S
p5136
(dp5137
Vtype
p5138
VWindows 7 Professional
p5139
sVinstallDate
p5140
V2011-08-31 11:07:00.000
p5141
ssVABC014-S
p5142
(dp5143
Vtype
p5144
VWindows 7 Professional
p5145
sVinstallDate
p5146
V2011-08-31 11:07:00.000
p5147
ssVMLH707-POS1
p5148
(dp5149
Vtype
p5150
VWindows 7 Professional
p5151
sVinstallDate
p5152
V2011-08-31 11:07:00.000
p5153
ssVMLH756-POS1
p5154
(dp5155
Vtype
p5156
VWindows 7 Professional
p5157
sVinstallDate
p5158
V2011-08-31 11:07:00.000
p5159
ssVGOT139-S
p5160
(dp5161
Vtype
p5162
VWindows XP Professional
p5163
sVinstallDate
p5164
V2008-06-26 14:23:00.000
p5165
ssVMLH751-POS2
p5166
(dp5167
Vtype
p5168
VWindows 7 Professional
p5169
sVinstallDate
p5170
V2011-08-31 11:07:00.000
p5171
ssVABC016-S
p5172
(dp5173
Vtype
p5174
VWindows 7 Professional
p5175
sVinstallDate
p5176
V2011-08-31 11:07:00.000
p5177
ssVMLH751-POS1
p5178
(dp5179
Vtype
p5180
VWindows 7 Professional
p5181
sVinstallDate
p5182
V2011-08-31 11:07:00.000
p5183
ssVINT029-S
p5184
(dp5185
Vtype
p5186
NsVinstallDate
p5187
NssVMLH769-POS2
p5188
(dp5189
Vtype
p5190
VWindows 7 Professional
p5191
sVinstallDate
p5192
V2011-08-31 11:07:00.000
p5193
ssVMPI002-S
p5194
(dp5195
Vtype
p5196
VWindows XP Professional
p5197
sVinstallDate
p5198
V2008-06-26 14:23:00.000
p5199
ssVMLH014-POS1
p5200
(dp5201
Vtype
p5202
VWindows 7 Professional
p5203
sVinstallDate
p5204
V2012-02-22 16:38:00.000
p5205
ssVKIN545-POS1
p5206
(dp5207
Vtype
p5208
VWindows 7 Professional
p5209
sVinstallDate
p5210
V2010-12-01 15:12:00.000
p5211
ssVKIN062-POS2
p5212
(dp5213
Vtype
p5214
VWindows 7 Professional
p5215
sVinstallDate
p5216
V2011-08-31 11:07:00.000
p5217
ssVMLH010-POS1
p5218
(dp5219
Vtype
p5220
VWindows XP Professional
p5221
sVinstallDate
p5222
V2008-07-22 07:51:00.000
p5223
ssVMLH010-POS2
p5224
(dp5225
Vtype
p5226
VWindows XP Professional
p5227
sVinstallDate
p5228
V2008-07-22 07:51:00.000
p5229
ssVKIN062-POS1
p5230
(dp5231
Vtype
p5232
VWindows 7 Professional
p5233
sVinstallDate
p5234
V2011-08-31 11:07:00.000
p5235
ss.