(dp0
VGMC088-POS1
p1
(dp2
Vtype
p3
VWindows 7 Professional
p4
sVinstallDate
p5
V2011-08-31 11:07:00.000
p6
ssVMLH717-POS1
p7
(dp8
Vtype
p9
VWindows 7 Professional
p10
sVinstallDate
p11
V2011-08-31 11:07:00.000
p12
ssVABC233-POS1
p13
(dp14
Vtype
p15
VWindows 7 Professional
p16
sVinstallDate
p17
V2014-02-18 09:11:00.000
p18
ssVMLH100-POS1
p19
(dp20
Vtype
p21
VWindows XP Professional
p22
sVinstallDate
p23
V2008-06-26 14:23:00.000
p24
ssVGLE081-POS1
p25
(dp26
Vtype
p27
VWindows 7 Professional
p28
sVinstallDate
p29
V2011-08-31 11:07:00.000
p30
ssVGMC025-POS1
p31
(dp32
Vtype
p33
VWindows 7 Professional
p34
sVinstallDate
p35
V2011-08-31 11:07:00.000
p36
ssVTIS010-POS1
p37
(dp38
Vtype
p39
VWindows 7 Professional
p40
sVinstallDate
p41
V2011-08-31 11:07:00.000
p42
ssVABC028-POS1
p43
(dp44
Vtype
p45
VWindows 7 Professional
p46
sVinstallDate
p47
V2011-08-31 11:07:00.000
p48
ssVINT009-POS2
p49
(dp50
Vtype
p51
VWindows 7 Professional
p52
sVinstallDate
p53
V2012-02-22 16:38:00.000
p54
ssVQUK015-POS1
p55
(dp56
Vtype
p57
VWindows 7 Professional
p58
sVinstallDate
p59
V2011-08-31 11:07:00.000
p60
ssVABC022-POS1
p61
(dp62
Vtype
p63
VWindows 7 Professional
p64
sVinstallDate
p65
V2011-08-31 11:07:00.000
p66
ssVQUK801-POS1
p67
(dp68
Vtype
p69
VWindows 7 Professional
p70
sVinstallDate
p71
V2011-08-31 11:07:00.000
p72
ssVINT046-POS1
p73
(dp74
Vtype
p75
VWindows 7 Professional
p76
sVinstallDate
p77
V2014-02-18 09:11:00.000
p78
ssVQUK024-POS1
p79
(dp80
Vtype
p81
VWindows 7 Professional
p82
sVinstallDate
p83
V2011-08-31 11:07:00.000
p84
ssVPAI002-S
p85
(dp86
Vtype
p87
VWindows XP Professional
p88
sVinstallDate
p89
V2008-06-26 14:23:00.000
p90
ssVMNH110-POS1
p91
(dp92
Vtype
p93
VWindows 7 Professional
p94
sVinstallDate
p95
V2011-08-31 11:07:00.000
p96
ssVGMC029-POS1
p97
(dp98
Vtype
p99
VWindows 7 Professional
p100
sVinstallDate
p101
V2011-08-31 11:07:00.000
p102
ssVABC019-POS1
p103
(dp104
Vtype
p105
VWindows 7 Professional
p106
sVinstallDate
p107
V2011-08-31 11:07:00.000
p108
ssVABC094-POS1
p109
(dp110
Vtype
p111
VWindows 7 Professional
p112
sVinstallDate
p113
NssVGMC066-S
p114
(dp115
Vtype
p116
VWindows XP Professional
p117
sVinstallDate
p118
V2007-05-15 15:50:00.000
p119
ssVTSQ200-S
p120
(dp121
Vtype
p122
VWindows 7 Professional
p123
sVinstallDate
p124
V2011-08-31 11:07:00.000
p125
ssVABC076-S
p126
(dp127
Vtype
p128
VWindows 7 Professional
p129
sVinstallDate
p130
V2011-08-31 11:07:00.000
p131
ssVPAI001-S
p132
(dp133
Vtype
p134
VWindows XP Professional
p135
sVinstallDate
p136
V2008-06-26 14:23:00.000
p137
ssVBNV011-S
p138
(dp139
Vtype
p140
VWindows XP Professional
p141
sVinstallDate
p142
V2007-05-15 15:50:00.000
p143
ssVMNH056-POS1
p144
(dp145
Vtype
p146
VWindows 7 Professional
p147
sVinstallDate
p148
V2011-08-31 11:07:00.000
p149
ssVMLH103-POS1
p150
(dp151
Vtype
p152
VWindows XP Professional
p153
sVinstallDate
p154
V2008-06-26 14:23:00.000
p155
ssVMAM031-S
p156
(dp157
Vtype
p158
VWindows XP Professional
p159
sVinstallDate
p160
V2007-05-15 15:50:00.000
p161
ssVMAM075-POS1
p162
(dp163
Vtype
p164
VWindows 7 Professional
p165
sVinstallDate
p166
V2011-08-31 11:07:00.000
p167
ssV_JunoPC
p168
(dp169
Vtype
p170
VWindows 7 Professional
p171
sVinstallDate
p172
V2015-05-22 17:23:00.000
p173
ssVGMC081-POS1
p174
(dp175
Vtype
p176
VWindows 7 Professional
p177
sVinstallDate
p178
V2011-08-31 11:07:00.000
p179
ssVMLH096-POS2
p180
(dp181
Vtype
p182
VWindows 7 Professional
p183
sVinstallDate
p184
V2011-08-31 11:07:00.000
p185
ssVMLH096-POS1
p186
(dp187
Vtype
p188
VWindows 7 Professional
p189
sVinstallDate
p190
V2011-08-31 11:07:00.000
p191
ssVKIN024-POS1
p192
(dp193
Vtype
p194
VWindows 7 Professional
p195
sVinstallDate
p196
V2011-08-31 11:07:00.000
p197
ssVABC005-POS1
p198
(dp199
Vtype
p200
VWindows 7 Professional
p201
sVinstallDate
p202
V2011-08-31 11:07:00.000
p203
ssVMLH732-POS1
p204
(dp205
Vtype
p206
VWindows XP Professional
p207
sVinstallDate
p208
V2008-06-26 14:23:00.000
p209
ssVMLH170-POS1
p210
(dp211
Vtype
p212
VWindows 7 Professional
p213
sVinstallDate
p214
V2011-08-31 11:07:00.000
p215
ssVINT650-S
p216
(dp217
Vtype
p218
VWindows XP Professional
p219
sVinstallDate
p220
V2008-06-26 14:23:00.000
p221
ssVGMC059-S
p222
(dp223
Vtype
p224
VWindows 7 Professional
p225
sVinstallDate
p226
V2011-08-31 11:07:00.000
p227
ssVIPK004-POS1
p228
(dp229
Vtype
p230
NsVinstallDate
p231
NssVMLH743-POS1
p232
(dp233
Vtype
p234
VWindows XP Professional
p235
sVinstallDate
p236
V2008-06-26 14:23:00.000
p237
ssVQUK184-POS1
p238
(dp239
Vtype
p240
VWindows 7 Professional
p241
sVinstallDate
p242
V2011-08-31 11:07:00.000
p243
ssVMLH065-POS1
p244
(dp245
Vtype
p246
VWindows XP Professional
p247
sVinstallDate
p248
V2008-06-26 14:23:00.000
p249
ssVMNH026-POS1
p250
(dp251
Vtype
p252
VWindows 7 Professional
p253
sVinstallDate
p254
V2011-08-31 11:07:00.000
p255
ssVCCA009-S
p256
(dp257
Vtype
p258
NsVinstallDate
p259
NssVMLH734-POS1
p260
(dp261
Vtype
p262
VWindows 7 Professional
p263
sVinstallDate
p264
V2011-08-31 11:07:00.000
p265
ssVABC-Office
p266
(dp267
Vtype
p268
VWindows 7 Professional
p269
sVinstallDate
p270
V2014-02-18 09:11:00.000
p271
ssVQUK100-POS2
p272
(dp273
Vtype
p274
VWindows 7 Professional
p275
sVinstallDate
p276
V2014-02-18 09:11:00.000
p277
ssVQUK100-POS1
p278
(dp279
Vtype
p280
VWindows 7 Professional
p281
sVinstallDate
p282
V2011-08-31 11:07:00.000
p283
ssVRDN055-S
p284
(dp285
Vtype
p286
VWindows 7 Professional
p287
sVinstallDate
p288
V2011-08-31 11:07:00.000
p289
ssVABC011-POS1
p290
(dp291
Vtype
p292
VWindows 7 Professional
p293
sVinstallDate
p294
V2011-08-31 11:07:00.000
p295
ssVABC225-POS1
p296
(dp297
Vtype
p298
VWindows 7 Professional
p299
sVinstallDate
p300
V2014-02-18 09:11:00.000
p301
ssV_MichaelPC
p302
(dp303
Vtype
p304
VWindows 7 Professional x64 Edition
p305
sVinstallDate
p306
V2015-05-29 22:52:00.000
p307
ssVQUK058-POS1
p308
(dp309
Vtype
p310
VWindows 7 Professional
p311
sVinstallDate
p312
V2011-08-31 11:07:00.000
p313
ssV_MPK005-Test
p314
(dp315
Vtype
p316
VWindows 7 Professional
p317
sVinstallDate
p318
V2011-08-31 11:07:00.000
p319
ssVINT087-POS1
p320
(dp321
Vtype
p322
VWindows 7 Professional
p323
sVinstallDate
p324
V2012-02-22 16:38:00.000
p325
ssVABC248-POS2
p326
(dp327
Vtype
p328
VWindows 7 Professional
p329
sVinstallDate
p330
V2012-02-22 16:38:00.000
p331
ssVABC248-POS1
p332
(dp333
Vtype
p334
VWindows 7 Professional
p335
sVinstallDate
p336
V2012-02-22 16:38:00.000
p337
ssVRPD102-S
p338
(dp339
Vtype
p340
VWindows 7 Professional
p341
sVinstallDate
p342
V2011-08-31 11:07:00.000
p343
ssVMLH350-POS1
p344
(dp345
Vtype
p346
VWindows XP Professional
p347
sVinstallDate
p348
V2008-07-22 07:51:00.000
p349
ssVMLH350-POS2
p350
(dp351
Vtype
p352
VWindows XP Professional
p353
sVinstallDate
p354
V2008-07-22 07:51:00.000
p355
ssVMLH070-POS2
p356
(dp357
Vtype
p358
VWindows XP Professional
p359
sVinstallDate
p360
V2008-07-22 07:51:00.000
p361
ssVMLH797-POS1
p362
(dp363
Vtype
p364
VWindows XP Professional
p365
sVinstallDate
p366
V2008-07-22 07:51:00.000
p367
ssVMLH370-POS1
p368
(dp369
Vtype
p370
VWindows XP Professional
p371
sVinstallDate
p372
V2008-07-22 07:51:00.000
p373
ssVMLH070-POS1
p374
(dp375
Vtype
p376
VWindows XP Professional
p377
sVinstallDate
p378
V2008-07-22 07:51:00.000
p379
ssVRPD030-POS1
p380
(dp381
Vtype
p382
VWindows 7 Professional
p383
sVinstallDate
p384
V2011-08-31 11:07:00.000
p385
ssVRPD030-POS2
p386
(dp387
Vtype
p388
VWindows 7 Professional
p389
sVinstallDate
p390
V2011-08-31 11:07:00.000
p391
ssVMLH220-POS1
p392
(dp393
Vtype
p394
VWindows 7 Professional
p395
sVinstallDate
p396
V2011-08-31 11:07:00.000
p397
ssVMLH728-POS1
p398
(dp399
Vtype
p400
VWindows 7 Professional
p401
sVinstallDate
p402
V2011-08-31 11:07:00.000
p403
ssVMLH742-POS1
p404
(dp405
Vtype
p406
VWindows 7 Professional
p407
sVinstallDate
p408
V2011-08-31 11:07:00.000
p409
ssVABC053-S
p410
(dp411
Vtype
p412
VWindows 7 Professional
p413
sVinstallDate
p414
V2011-08-31 11:07:00.000
p415
ssVGLE003-POS1
p416
(dp417
Vtype
p418
VWindows 7 Professional
p419
sVinstallDate
p420
V2012-02-22 16:38:00.000
p421
ssVMNH302-POS1
p422
(dp423
Vtype
p424
VWindows 7 Professional
p425
sVinstallDate
p426
V2011-08-31 11:07:00.000
p427
ssVMNH302-POS2
p428
(dp429
Vtype
p430
VWindows 7 Professional
p431
sVinstallDate
p432
V2011-08-31 11:07:00.000
p433
ssVTSQ202-POS1
p434
(dp435
Vtype
p436
VWindows 7 Professional
p437
sVinstallDate
p438
V2011-08-31 11:07:00.000
p439
ssVCCA008-S
p440
(dp441
Vtype
p442
NsVinstallDate
p443
NssVABC097-S
p444
(dp445
Vtype
p446
VWindows 7 Professional
p447
sVinstallDate
p448
V2011-08-31 11:07:00.000
p449
ssVMLH106-POS1
p450
(dp451
Vtype
p452
VWindows XP Professional
p453
sVinstallDate
p454
V2008-06-26 14:23:00.000
p455
ssVABC095-POS1
p456
(dp457
Vtype
p458
VWindows 7 Professional
p459
sVinstallDate
p460
V2014-02-18 09:11:00.000
p461
ssVSEL036-POS1
p462
(dp463
Vtype
p464
NsVinstallDate
p465
NssVKIN070-POS1
p466
(dp467
Vtype
p468
VWindows 7 Professional
p469
sVinstallDate
p470
V2011-08-31 11:07:00.000
p471
ssVSYL001-S
p472
(dp473
Vtype
p474
VWindows 7 Professional
p475
sVinstallDate
p476
V2011-08-31 11:07:00.000
p477
ssVQUK720-POS1
p478
(dp479
Vtype
p480
VWindows 7 Professional
p481
sVinstallDate
p482
V2012-02-22 16:38:00.000
p483
ssVQUK017-POS1
p484
(dp485
Vtype
p486
VWindows 7 Professional
p487
sVinstallDate
p488
V2011-08-31 11:07:00.000
p489
ssVMNH030-S
p490
(dp491
Vtype
p492
VWindows XP Professional
p493
sVinstallDate
p494
V2008-06-26 14:23:00.000
p495
ssVGLE102-POS1
p496
(dp497
Vtype
p498
VWindows 7 Professional
p499
sVinstallDate
p500
V2011-08-31 11:07:00.000
p501
ssVABC154-POS1
p502
(dp503
Vtype
p504
VWindows 7 Professional
p505
sVinstallDate
p506
V2012-02-22 16:38:00.000
p507
ssVPRK043-S
p508
(dp509
Vtype
p510
VWindows 7 Professional
p511
sVinstallDate
p512
V2011-08-31 11:07:00.000
p513
ssVQUK090-POS1
p514
(dp515
Vtype
p516
VWindows 7 Professional
p517
sVinstallDate
p518
V2011-08-31 11:07:00.000
p519
ssVRDN071-S
p520
(dp521
Vtype
p522
VWindows 7 Professional
p523
sVinstallDate
p524
V2011-08-31 11:07:00.000
p525
ssVQUK587-POS1
p526
(dp527
Vtype
p528
VWindows 7 Professional
p529
sVinstallDate
p530
V2011-08-31 11:07:00.000
p531
ssVABC058-S
p532
(dp533
Vtype
p534
VWindows 7 Professional
p535
sVinstallDate
p536
V2011-08-31 11:07:00.000
p537
ssVMLH763-POS1
p538
(dp539
Vtype
p540
VWindows XP Professional
p541
sVinstallDate
p542
V2008-06-26 14:23:00.000
p543
ssVOPI503-POS1
p544
(dp545
Vtype
p546
VWindows 7 Professional
p547
sVinstallDate
p548
V2011-08-31 11:07:00.000
p549
ssVMLH741-POS1
p550
(dp551
Vtype
p552
VWindows 7 Professional
p553
sVinstallDate
p554
V2011-08-31 11:07:00.000
p555
ssVABC067-S
p556
(dp557
Vtype
p558
VWindows 7 Professional
p559
sVinstallDate
p560
V2011-08-31 11:07:00.000
p561
ssVABC257-POS1
p562
(dp563
Vtype
p564
VWindows 7 Professional
p565
sVinstallDate
p566
V2012-02-22 16:38:00.000
p567
ssVGLE046-POS1
p568
(dp569
Vtype
p570
VWindows 7 Professional
p571
sVinstallDate
p572
V2011-08-31 11:07:00.000
p573
ssVMLH911-POS1
p574
(dp575
Vtype
p576
VWindows 7 Professional
p577
sVinstallDate
p578
V2011-08-31 11:07:00.000
p579
ssVMLH746-POS1
p580
(dp581
Vtype
p582
VWindows XP Professional
p583
sVinstallDate
p584
V2008-06-26 14:23:00.000
p585
ssVMLH750-POS1
p586
(dp587
Vtype
p588
VWindows XP Professional
p589
sVinstallDate
p590
V2008-07-22 07:51:00.000
p591
ssVMLH112-POS1
p592
(dp593
Vtype
p594
VWindows XP Professional
p595
sVinstallDate
p596
V2008-06-26 14:23:00.000
p597
ssVMLH256-POS1
p598
(dp599
Vtype
p600
VWindows 7 Professional
p601
sVinstallDate
p602
V2011-08-31 11:07:00.000
p603
ssVCPS029-S
p604
(dp605
Vtype
p606
VWindows 7 Professional
p607
sVinstallDate
p608
V2011-08-31 11:07:00.000
p609
ssVABC240-S
p610
(dp611
Vtype
p612
VWindows 7 Professional
p613
sVinstallDate
p614
V2014-02-18 09:11:00.000
p615
ssVABC049-S
p616
(dp617
Vtype
p618
VWindows 7 Professional
p619
sVinstallDate
p620
V2011-08-31 11:07:00.000
p621
ssVCPS026-S
p622
(dp623
Vtype
p624
VWindows 7 Professional
p625
sVinstallDate
p626
V2011-08-31 11:07:00.000
p627
ssVABC048-POS1
p628
(dp629
Vtype
p630
VWindows 7 Professional
p631
sVinstallDate
p632
V2011-08-31 11:07:00.000
p633
ssVABC007-POS1
p634
(dp635
Vtype
p636
VWindows 7 Professional
p637
sVinstallDate
p638
V2011-08-31 11:07:00.000
p639
ssVTIS016-POS1
p640
(dp641
Vtype
p642
NsVinstallDate
p643
NssVOPI084-POS1
p644
(dp645
Vtype
p646
VWindows 7 Professional
p647
sVinstallDate
p648
V2012-02-22 16:38:00.000
p649
ssVMLH880-POS1
p650
(dp651
Vtype
p652
VWindows XP Professional
p653
sVinstallDate
p654
V2008-07-22 07:51:00.000
p655
ssVMLH110-POS2
p656
(dp657
Vtype
p658
VWindows 7 Professional
p659
sVinstallDate
p660
V2011-08-31 11:07:00.000
p661
ssVMLH110-POS1
p662
(dp663
Vtype
p664
VWindows 7 Professional
p665
sVinstallDate
p666
V2011-08-31 11:07:00.000
p667
ssVMLH610-POS1
p668
(dp669
Vtype
p670
VWindows 7 Professional
p671
sVinstallDate
p672
V2011-08-31 11:07:00.000
p673
ssVSEL185-S
p674
(dp675
Vtype
p676
VWindows XP Professional
p677
sVinstallDate
p678
V2008-06-26 14:23:00.000
p679
ssVMTP057-POS1
p680
(dp681
Vtype
p682
VWindows 7 Professional
p683
sVinstallDate
p684
V2011-08-31 11:07:00.000
p685
ssVTSQ100-S
p686
(dp687
Vtype
p688
VWindows 7 Professional
p689
sVinstallDate
p690
V2011-08-31 11:07:00.000
p691
ssVMLH761-POS1
p692
(dp693
Vtype
p694
VWindows 7 Professional
p695
sVinstallDate
p696
V2012-02-22 16:38:00.000
p697
ssVMLH752-POS2
p698
(dp699
Vtype
p700
VWindows XP Professional
p701
sVinstallDate
p702
V2008-07-22 07:51:00.000
p703
ssVMLH752-POS1
p704
(dp705
Vtype
p706
VWindows XP Professional
p707
sVinstallDate
p708
V2008-07-22 07:51:00.000
p709
ssVMLH048-POS2
p710
(dp711
Vtype
p712
VWindows 7 Professional
p713
sVinstallDate
p714
V2011-08-31 11:07:00.000
p715
ssVABC224-SERVER
p716
(dp717
Vtype
p718
VWindows 7 Professional
p719
sVinstallDate
p720
V2011-08-31 11:07:00.000
p721
ssVABC044-POS1
p722
(dp723
Vtype
p724
VWindows 7 Professional
p725
sVinstallDate
p726
V2012-02-22 16:38:00.000
p727
ssVSEL047-S
p728
(dp729
Vtype
p730
VWindows XP Professional
p731
sVinstallDate
p732
V2008-06-26 14:23:00.000
p733
ssVGMC077-POS1
p734
(dp735
Vtype
p736
VWindows 7 Professional
p737
sVinstallDate
p738
V2011-08-31 11:07:00.000
p739
ssVSEL180-S
p740
(dp741
Vtype
p742
VWindows XP Professional
p743
sVinstallDate
p744
V2008-06-26 14:23:00.000
p745
ssVMLH900-POS2
p746
(dp747
Vtype
p748
VWindows XP Professional
p749
sVinstallDate
p750
V2008-07-22 07:51:00.000
p751
ssVMLH766-POS1
p752
(dp753
Vtype
p754
VWindows XP Professional
p755
sVinstallDate
p756
V2008-06-26 14:23:00.000
p757
ssVMLH900-POS1
p758
(dp759
Vtype
p760
VWindows XP Professional
p761
sVinstallDate
p762
V2008-07-22 07:51:00.000
p763
ssVABC093-S
p764
(dp765
Vtype
p766
VWindows 7 Professional
p767
sVinstallDate
p768
V2011-08-31 11:07:00.000
p769
ssVBNV010-S
p770
(dp771
Vtype
p772
VWindows XP Professional
p773
sVinstallDate
p774
V2007-02-14 14:44:00.000
p775
ssVQUK706-POS1
p776
(dp777
Vtype
p778
VWindows 7 Professional
p779
sVinstallDate
p780
V2011-08-31 11:07:00.000
p781
ssVSBU001-POS1
p782
(dp783
Vtype
p784
VWindows XP Professional
p785
sVinstallDate
p786
V2008-07-22 07:51:00.000
p787
ssVRPD480-POS2
p788
(dp789
Vtype
p790
VWindows 7 Professional
p791
sVinstallDate
p792
V2011-08-31 11:07:00.000
p793
ssVRPD480-POS1
p794
(dp795
Vtype
p796
VWindows 7 Professional
p797
sVinstallDate
p798
V2011-08-31 11:07:00.000
p799
ssVMLH727-POS1
p800
(dp801
Vtype
p802
VWindows 7 Professional
p803
sVinstallDate
p804
V2011-08-31 11:07:00.000
p805
ssVMNH073-POS1
p806
(dp807
Vtype
p808
VWindows 7 Professional
p809
sVinstallDate
p810
V2015-02-02 16:25:00.000
p811
ssVMLH119-POS1
p812
(dp813
Vtype
p814
VWindows 7 Professional
p815
sVinstallDate
p816
V2010-12-01 15:12:00.000
p817
ssVQUK065-POS1
p818
(dp819
Vtype
p820
VWindows 7 Professional
p821
sVinstallDate
p822
V2011-08-31 11:07:00.000
p823
ssVMLH240-POS1
p824
(dp825
Vtype
p826
VWindows 7 Professional
p827
sVinstallDate
p828
V2011-08-31 11:07:00.000
p829
ssVKIN004-POS1
p830
(dp831
Vtype
p832
VWindows 7 Professional
p833
sVinstallDate
p834
V2011-08-31 11:07:00.000
p835
ssVRDN002-POS2
p836
(dp837
Vtype
p838
VWindows 7 Professional
p839
sVinstallDate
p840
V2011-08-31 11:07:00.000
p841
ssVGMC040-POS1
p842
(dp843
Vtype
p844
VWindows 7 Professional
p845
sVinstallDate
p846
V2011-08-31 11:07:00.000
p847
ssVPRK100-S
p848
(dp849
Vtype
p850
VWindows 7 Professional
p851
sVinstallDate
p852
V2011-08-31 11:07:00.000
p853
ssVRDN002-POS1
p854
(dp855
Vtype
p856
VWindows 7 Professional
p857
sVinstallDate
p858
V2011-08-31 11:07:00.000
p859
ssVTIS009-KIOSK
p860
(dp861
Vtype
p862
NsVinstallDate
p863
NssVRPD089-POS1
p864
(dp865
Vtype
p866
VWindows 7 Professional
p867
sVinstallDate
p868
V2011-08-31 11:07:00.000
p869
ssVKIN005-POS1
p870
(dp871
Vtype
p872
VWindows 7 Professional
p873
sVinstallDate
p874
V2011-08-31 11:07:00.000
p875
ssVMLH102-POS1
p876
(dp877
Vtype
p878
VWindows XP Professional
p879
sVinstallDate
p880
V2008-06-26 14:23:00.000
p881
ssVMLH102-POS2
p882
(dp883
Vtype
p884
VWindows XP Professional
p885
sVinstallDate
p886
V2008-06-26 14:23:00.000
p887
ssVMNH320-POS1
p888
(dp889
Vtype
p890
VWindows 7 Professional
p891
sVinstallDate
p892
V2011-08-31 11:07:00.000
p893
ssV_MarcoPC
p894
(dp895
Vtype
p896
VWindows 7 Professional x64 Edition
p897
sVinstallDate
p898
V2015-04-07 13:44:00.000
p899
ssVABC249-POS1
p900
(dp901
Vtype
p902
VWindows 7 Professional
p903
sVinstallDate
p904
V2012-02-22 16:38:00.000
p905
ssVABC079-S
p906
(dp907
Vtype
p908
VWindows 7 Professional
p909
sVinstallDate
p910
V2011-08-31 11:07:00.000
p911
ssVQUK020-POS1
p912
(dp913
Vtype
p914
VWindows 7 Professional
p915
sVinstallDate
p916
V2011-08-31 11:07:00.000
p917
ssVRPD045-S
p918
(dp919
Vtype
p920
VWindows 7 Professional
p921
sVinstallDate
p922
V2011-08-31 11:07:00.000
p923
ssVGMC082-POS1
p924
(dp925
Vtype
p926
VWindows 7 Professional
p927
sVinstallDate
p928
V2011-08-31 11:07:00.000
p929
ssVSPN179-S
p930
(dp931
Vtype
p932
VWindows XP Professional
p933
sVinstallDate
p934
V2008-06-26 14:23:00.000
p935
ssVMLH050-POS1
p936
(dp937
Vtype
p938
VWindows 7 Professional
p939
sVinstallDate
p940
V2011-08-31 11:07:00.000
p941
ssVCPS002-S
p942
(dp943
Vtype
p944
VWindows 7 Professional
p945
sVinstallDate
p946
V2011-08-31 11:07:00.000
p947
ssVQUK707-POS1
p948
(dp949
Vtype
p950
VWindows 7 Professional
p951
sVinstallDate
p952
V2011-08-31 11:07:00.000
p953
ssVQUK034-POS2
p954
(dp955
Vtype
p956
VWindows 7 Professional
p957
sVinstallDate
p958
V2014-02-18 09:11:00.000
p959
ssVTIS009-POS2
p960
(dp961
Vtype
p962
VWindows 7 Professional
p963
sVinstallDate
p964
V2011-08-31 11:07:00.000
p965
ssVTIS009-POS1
p966
(dp967
Vtype
p968
VWindows 7 Professional
p969
sVinstallDate
p970
V2011-08-31 11:07:00.000
p971
ssVMLH047-POS1
p972
(dp973
Vtype
p974
VWindows XP Professional
p975
sVinstallDate
p976
V2008-07-22 07:51:00.000
p977
ssVMAM081-S
p978
(dp979
Vtype
p980
VWindows XP Professional
p981
sVinstallDate
p982
V2007-05-15 15:50:00.000
p983
ssVRDN001-POS2
p984
(dp985
Vtype
p986
VWindows 7 Professional
p987
sVinstallDate
p988
V2011-08-31 11:07:00.000
p989
ssVRDN001-POS1
p990
(dp991
Vtype
p992
VWindows 7 Professional
p993
sVinstallDate
p994
V2011-08-31 11:07:00.000
p995
ssVMNH060-S
p996
(dp997
Vtype
p998
VWindows 7 Professional
p999
sVinstallDate
p1000
V2011-08-31 11:07:00.000
p1001
ssVMLH047-POS2
p1002
(dp1003
Vtype
p1004
VWindows XP Professional
p1005
sVinstallDate
p1006
V2008-07-22 07:51:00.000
p1007
ssVMLH757-POS1
p1008
(dp1009
Vtype
p1010
VWindows 7 Professional
p1011
sVinstallDate
p1012
V2011-08-31 11:07:00.000
p1013
ssVMLH058-POS2
p1014
(dp1015
Vtype
p1016
VWindows XP Professional
p1017
sVinstallDate
p1018
V2008-07-22 07:51:00.000
p1019
ssVGMC048-POS2
p1020
(dp1021
Vtype
p1022
VWindows 7 Professional
p1023
sVinstallDate
p1024
V2011-08-31 11:07:00.000
p1025
ssVSPN162-S
p1026
(dp1027
Vtype
p1028
VWindows XP Professional
p1029
sVinstallDate
p1030
V2007-05-15 15:50:00.000
p1031
ssVQUK097-POS1
p1032
(dp1033
Vtype
p1034
VWindows 7 Professional
p1035
sVinstallDate
p1036
V2011-08-31 11:07:00.000
p1037
ssVWOC001-POS1
p1038
(dp1039
Vtype
p1040
VWindows 7 Professional
p1041
sVinstallDate
p1042
V2012-02-22 16:38:00.000
p1043
ssVQUK728-POS1
p1044
(dp1045
Vtype
p1046
VWindows 7 Professional
p1047
sVinstallDate
p1048
V2012-02-22 16:38:00.000
p1049
ssVABC025-POS1
p1050
(dp1051
Vtype
p1052
VWindows 7 Professional
p1053
sVinstallDate
p1054
V2011-08-31 11:07:00.000
p1055
ssVQUK034-POS1
p1056
(dp1057
Vtype
p1058
VWindows 7 Professional
p1059
sVinstallDate
p1060
V2011-08-31 11:07:00.000
p1061
ssVABC051-S
p1062
(dp1063
Vtype
p1064
VWindows 7 Professional
p1065
sVinstallDate
p1066
V2011-08-31 11:07:00.000
p1067
ssVMLH739-POS1
p1068
(dp1069
Vtype
p1070
VWindows 7 Professional
p1071
sVinstallDate
p1072
V2011-08-31 11:07:00.000
p1073
ssVQUK019-POS1
p1074
(dp1075
Vtype
p1076
VWindows 7 Professional
p1077
sVinstallDate
p1078
V2011-08-31 11:07:00.000
p1079
ssVQUK300-POS1
p1080
(dp1081
Vtype
p1082
VWindows 7 Professional
p1083
sVinstallDate
p1084
V2015-02-02 16:25:00.000
p1085
ssVRPD033-POS1
p1086
(dp1087
Vtype
p1088
VWindows 7 Professional
p1089
sVinstallDate
p1090
V2011-08-31 11:07:00.000
p1091
ssVMNH003-S
p1092
(dp1093
Vtype
p1094
VWindows XP Professional
p1095
sVinstallDate
p1096
V2007-09-14 11:49:00.000
p1097
ssVEXC002-POS1
p1098
(dp1099
Vtype
p1100
VWindows 7 Professional
p1101
sVinstallDate
p1102
V2011-08-31 11:07:00.000
p1103
ssVQUK702-POS1
p1104
(dp1105
Vtype
p1106
VWindows 7 Professional
p1107
sVinstallDate
p1108
V2011-08-31 11:07:00.000
p1109
ssV_PlusPC-Test
p1110
(dp1111
Vtype
p1112
VWindows 7 Professional
p1113
sVinstallDate
p1114
V2011-08-31 11:07:00.000
p1115
ssVMLH330-POS2
p1116
(dp1117
Vtype
p1118
VWindows XP Professional
p1119
sVinstallDate
p1120
V2008-06-26 14:23:00.000
p1121
ssVMLH330-POS1
p1122
(dp1123
Vtype
p1124
VWindows XP Professional
p1125
sVinstallDate
p1126
V2008-06-26 14:23:00.000
p1127
ssVINT175-POS1
p1128
(dp1129
Vtype
p1130
VWindows 7 Professional
p1131
sVinstallDate
p1132
V2012-02-22 16:38:00.000
p1133
ssVMLH702-POS2
p1134
(dp1135
Vtype
p1136
VWindows XP Professional
p1137
sVinstallDate
p1138
V2008-07-22 07:51:00.000
p1139
ssVMLH702-POS1
p1140
(dp1141
Vtype
p1142
VWindows XP Professional
p1143
sVinstallDate
p1144
V2008-07-22 07:51:00.000
p1145
ssVINT210-POS1
p1146
(dp1147
Vtype
p1148
VWindows 7 Professional
p1149
sVinstallDate
p1150
V2012-02-22 16:38:00.000
p1151
ssVPVP003-POS1
p1152
(dp1153
Vtype
p1154
VWindows 7 Professional
p1155
sVinstallDate
p1156
V2012-02-22 16:38:00.000
p1157
ssVMLH754-POS1
p1158
(dp1159
Vtype
p1160
VWindows XP Professional
p1161
sVinstallDate
p1162
V2008-06-26 14:23:00.000
p1163
ssVKIN011-POS1
p1164
(dp1165
Vtype
p1166
VWindows 7 Professional
p1167
sVinstallDate
p1168
V2011-08-31 11:07:00.000
p1169
ssVMLH007-POS2
p1170
(dp1171
Vtype
p1172
VWindows 7 Professional
p1173
sVinstallDate
p1174
V2012-02-22 16:38:00.000
p1175
ssVFBR001-POS2
p1176
(dp1177
Vtype
p1178
VWindows 7 Professional
p1179
sVinstallDate
p1180
V2012-02-22 16:38:00.000
p1181
ssVTIS007-POS1
p1182
(dp1183
Vtype
p1184
VWindows 7 Professional
p1185
sVinstallDate
p1186
V2011-08-31 11:07:00.000
p1187
ssVMLH042-POS2
p1188
(dp1189
Vtype
p1190
VWindows XP Professional
p1191
sVinstallDate
p1192
V2008-07-22 07:51:00.000
p1193
ssVMLH042-POS1
p1194
(dp1195
Vtype
p1196
VWindows XP Professional
p1197
sVinstallDate
p1198
V2008-07-22 07:51:00.000
p1199
ssVABC084-POS1
p1200
(dp1201
Vtype
p1202
VWindows 7 Professional
p1203
sVinstallDate
p1204
V2011-08-31 11:07:00.000
p1205
ssVSEL043-S
p1206
(dp1207
Vtype
p1208
VWindows XP Professional
p1209
sVinstallDate
p1210
V2008-05-29 15:39:00.000
p1211
ssVOPI010-POS1
p1212
(dp1213
Vtype
p1214
VWindows 7 Professional
p1215
sVinstallDate
p1216
V2011-08-31 11:07:00.000
p1217
ssVMLH058-POS1
p1218
(dp1219
Vtype
p1220
VWindows XP Professional
p1221
sVinstallDate
p1222
V2008-07-22 07:51:00.000
p1223
ssVABC229-POS1
p1224
(dp1225
Vtype
p1226
VWindows 7 Professional
p1227
sVinstallDate
p1228
V2012-02-22 16:38:00.000
p1229
ssVMLH069-POS1
p1230
(dp1231
Vtype
p1232
VWindows XP Professional
p1233
sVinstallDate
p1234
V2008-06-26 14:23:00.000
p1235
ssVMLH069-POS2
p1236
(dp1237
Vtype
p1238
VWindows XP Professional
p1239
sVinstallDate
p1240
V2008-06-26 14:23:00.000
p1241
ssVGLE039-POS1
p1242
(dp1243
Vtype
p1244
VWindows 7 Professional
p1245
sVinstallDate
p1246
V2011-08-31 11:07:00.000
p1247
ssVMLH018-POS1
p1248
(dp1249
Vtype
p1250
VWindows 7 Professional
p1251
sVinstallDate
p1252
V2011-08-31 11:07:00.000
p1253
ssVMLH018-POS2
p1254
(dp1255
Vtype
p1256
VWindows 7 Professional
p1257
sVinstallDate
p1258
V2011-08-31 11:07:00.000
p1259
ssVMNH177-POS1
p1260
(dp1261
Vtype
p1262
VWindows 7 Professional
p1263
sVinstallDate
p1264
V2011-08-31 11:07:00.000
p1265
ssVABC230-S
p1266
(dp1267
Vtype
p1268
VWindows 7 Professional
p1269
sVinstallDate
p1270
V2011-08-31 11:07:00.000
p1271
ssVMNH330-POS1
p1272
(dp1273
Vtype
p1274
VWindows 7 Professional
p1275
sVinstallDate
p1276
V2011-08-31 11:07:00.000
p1277
ssVMLH716-POS1
p1278
(dp1279
Vtype
p1280
VWindows XP Professional
p1281
sVinstallDate
p1282
V2008-06-26 14:23:00.000
p1283
ssVTSQ010-S
p1284
(dp1285
Vtype
p1286
VWindows 7 Professional
p1287
sVinstallDate
p1288
V2010-02-02 10:15:00.000
p1289
ssVMLH725-POS1
p1290
(dp1291
Vtype
p1292
VWindows 7 Professional
p1293
sVinstallDate
p1294
V2011-08-31 11:07:00.000
p1295
ssVQUK037-POS1
p1296
(dp1297
Vtype
p1298
VWindows 7 Professional
p1299
sVinstallDate
p1300
V2011-08-31 11:07:00.000
p1301
ssVMLH052-POS2
p1302
(dp1303
Vtype
p1304
VWindows 7 Professional
p1305
sVinstallDate
p1306
V2014-02-18 09:11:00.000
p1307
ssVMLH052-POS3
p1308
(dp1309
Vtype
p1310
VWindows 7 Professional
p1311
sVinstallDate
p1312
V2014-02-18 09:11:00.000
p1313
ssVMLH052-POS1
p1314
(dp1315
Vtype
p1316
VWindows 7 Professional
p1317
sVinstallDate
p1318
V2012-02-22 16:38:00.000
p1319
ssVMLH714-POS1
p1320
(dp1321
Vtype
p1322
VWindows 7 Professional
p1323
sVinstallDate
p1324
V2011-08-31 11:07:00.000
p1325
ssVEXP001-S
p1326
(dp1327
Vtype
p1328
VWindows 7 Professional
p1329
sVinstallDate
p1330
V2012-02-22 16:38:00.000
p1331
ssVABC047-POS2
p1332
(dp1333
Vtype
p1334
VWindows 7 Professional
p1335
sVinstallDate
p1336
V2014-02-18 09:11:00.000
p1337
ssVABC003-S
p1338
(dp1339
Vtype
p1340
VWindows 7 Professional
p1341
sVinstallDate
p1342
V2014-02-18 09:11:00.000
p1343
ssVPVP001-POS1
p1344
(dp1345
Vtype
p1346
VWindows XP Professional
p1347
sVinstallDate
p1348
V2008-07-22 07:51:00.000
p1349
ssVMNH061-POS1
p1350
(dp1351
Vtype
p1352
VWindows 7 Professional
p1353
sVinstallDate
p1354
V2011-08-31 11:07:00.000
p1355
ssVMLH072-POS1
p1356
(dp1357
Vtype
p1358
VWindows 7 Professional
p1359
sVinstallDate
p1360
V2011-08-31 11:07:00.000
p1361
ssVMLH072-POS2
p1362
(dp1363
Vtype
p1364
VWindows 7 Professional
p1365
sVinstallDate
p1366
V2011-08-31 11:07:00.000
p1367
ssVSEL127-S
p1368
(dp1369
Vtype
p1370
VWindows XP Professional
p1371
sVinstallDate
p1372
V2008-06-26 14:23:00.000
p1373
ssVMLH748-POS1
p1374
(dp1375
Vtype
p1376
VWindows 7 Professional
p1377
sVinstallDate
p1378
V2011-08-31 11:07:00.000
p1379
ssVSEL005-S
p1380
(dp1381
Vtype
p1382
VWindows XP Professional
p1383
sVinstallDate
p1384
V2008-06-26 14:23:00.000
p1385
ssVIPK005-POS1
p1386
(dp1387
Vtype
p1388
NsVinstallDate
p1389
NssVMLH719-POS1
p1390
(dp1391
Vtype
p1392
VWindows 7 Professional
p1393
sVinstallDate
p1394
V2011-08-31 11:07:00.000
p1395
ssVSPM001-POS1
p1396
(dp1397
Vtype
p1398
VWindows 7 Professional
p1399
sVinstallDate
p1400
V2011-08-31 11:07:00.000
p1401
ssVMLH097-POS1
p1402
(dp1403
Vtype
p1404
VWindows XP Professional
p1405
sVinstallDate
p1406
V2008-06-26 14:23:00.000
p1407
ssVABC091-S
p1408
(dp1409
Vtype
p1410
VWindows 7 Professional
p1411
sVinstallDate
p1412
V2011-08-31 11:07:00.000
p1413
ssVMLH097-POS2
p1414
(dp1415
Vtype
p1416
VWindows XP Professional
p1417
sVinstallDate
p1418
V2008-06-26 14:23:00.000
p1419
ssVMLH888-POS1
p1420
(dp1421
Vtype
p1422
VWindows XP Professional
p1423
sVinstallDate
p1424
V2008-07-22 07:51:00.000
p1425
ssVPRK415-S
p1426
(dp1427
Vtype
p1428
VWindows XP Professional
p1429
sVinstallDate
p1430
V2007-05-15 15:50:00.000
p1431
ssVMLH888-POS3
p1432
(dp1433
Vtype
p1434
VWindows XP Professional
p1435
sVinstallDate
p1436
V2008-07-22 07:51:00.000
p1437
ssVMLH888-POS2
p1438
(dp1439
Vtype
p1440
VWindows XP Professional
p1441
sVinstallDate
p1442
V2008-07-22 07:51:00.000
p1443
ssVQUK725-POS1
p1444
(dp1445
Vtype
p1446
VWindows 7 Professional
p1447
sVinstallDate
p1448
V2012-02-22 16:38:00.000
p1449
ssVQUK734-POS2
p1450
(dp1451
Vtype
p1452
VWindows 7 Professional
p1453
sVinstallDate
p1454
V2012-02-22 16:38:00.000
p1455
ssVQUK734-POS1
p1456
(dp1457
Vtype
p1458
VWindows 7 Professional
p1459
sVinstallDate
p1460
V2012-02-22 16:38:00.000
p1461
ssVGLE056-POS2
p1462
(dp1463
Vtype
p1464
VWindows 7 Professional
p1465
sVinstallDate
p1466
V2011-08-31 11:07:00.000
p1467
ssVMLH700-POS1
p1468
(dp1469
Vtype
p1470
VWindows XP Professional
p1471
sVinstallDate
p1472
V2008-07-22 07:51:00.000
p1473
ssVMLH700-POS2
p1474
(dp1475
Vtype
p1476
VWindows XP Professional
p1477
sVinstallDate
p1478
V2008-07-22 07:51:00.000
p1479
ssV_FPU-PC
p1480
(dp1481
Vtype
p1482
VWindows 7 Professional
p1483
sVinstallDate
p1484
V2014-02-05 16:24:00.000
p1485
ssVMLH079-POS1
p1486
(dp1487
Vtype
p1488
VWindows XP Professional
p1489
sVinstallDate
p1490
V2008-07-22 07:51:00.000
p1491
ssVGLE090-POS1
p1492
(dp1493
Vtype
p1494
VWindows 7 Professional
p1495
sVinstallDate
p1496
V2011-08-31 11:07:00.000
p1497
ssVMLH079-POS2
p1498
(dp1499
Vtype
p1500
VWindows XP Professional
p1501
sVinstallDate
p1502
V2008-07-22 07:51:00.000
p1503
ssVMLH150-POS2
p1504
(dp1505
Vtype
p1506
VWindows XP Professional
p1507
sVinstallDate
p1508
V2008-06-26 14:23:00.000
p1509
ssVMLH150-POS1
p1510
(dp1511
Vtype
p1512
VWindows XP Professional
p1513
sVinstallDate
p1514
V2008-06-26 14:23:00.000
p1515
ssVQUK152-POS1
p1516
(dp1517
Vtype
p1518
VWindows 7 Professional
p1519
sVinstallDate
p1520
V2015-02-02 16:25:00.000
p1521
ssVKIN087-POS1
p1522
(dp1523
Vtype
p1524
VWindows 7 Professional
p1525
sVinstallDate
p1526
V2011-08-31 11:07:00.000
p1527
ssVCPS048-S
p1528
(dp1529
Vtype
p1530
VWindows 7 Professional
p1531
sVinstallDate
p1532
V2011-08-31 11:07:00.000
p1533
ssVABC224-W1
p1534
(dp1535
Vtype
p1536
VWindows 7 Professional
p1537
sVinstallDate
p1538
V2011-08-31 11:07:00.000
p1539
ssVMLH030-POS1
p1540
(dp1541
Vtype
p1542
VWindows 7 Professional
p1543
sVinstallDate
p1544
V2014-02-18 09:11:00.000
p1545
ssVMLH044-POS1
p1546
(dp1547
Vtype
p1548
VWindows XP Professional
p1549
sVinstallDate
p1550
V2008-06-26 14:23:00.000
p1551
ssVSEL222-S
p1552
(dp1553
Vtype
p1554
VWindows XP Professional
p1555
sVinstallDate
p1556
V2007-05-15 15:50:00.000
p1557
ssVMLH708-POS1
p1558
(dp1559
Vtype
p1560
VWindows 7 Professional
p1561
sVinstallDate
p1562
V2011-08-31 11:07:00.000
p1563
ssVABC026-POS1
p1564
(dp1565
Vtype
p1566
VWindows 7 Professional
p1567
sVinstallDate
p1568
V2011-08-31 11:07:00.000
p1569
ssVMLH034-POS1
p1570
(dp1571
Vtype
p1572
VWindows 7 Professional
p1573
sVinstallDate
p1574
V2011-08-31 11:07:00.000
p1575
ssVGLE038-POS1
p1576
(dp1577
Vtype
p1578
VWindows 7 Professional
p1579
sVinstallDate
p1580
V2011-08-31 11:07:00.000
p1581
ssVGMC064-POS1
p1582
(dp1583
Vtype
p1584
VWindows 7 Professional
p1585
sVinstallDate
p1586
V2011-08-31 11:07:00.000
p1587
ssVGMC078-POS1
p1588
(dp1589
Vtype
p1590
VWindows 7 Professional
p1591
sVinstallDate
p1592
V2011-08-31 11:07:00.000
p1593
ssVRPD072-POS1
p1594
(dp1595
Vtype
p1596
VWindows 7 Professional
p1597
sVinstallDate
p1598
V2011-08-31 11:07:00.000
p1599
ssVOPI501-POS1
p1600
(dp1601
Vtype
p1602
VWindows 7 Professional
p1603
sVinstallDate
p1604
V2011-08-31 11:07:00.000
p1605
ssVMLH114-POS2
p1606
(dp1607
Vtype
p1608
VWindows 7 Professional
p1609
sVinstallDate
p1610
V2010-12-01 15:12:00.000
p1611
ssVMLH114-POS1
p1612
(dp1613
Vtype
p1614
VWindows 7 Professional
p1615
sVinstallDate
p1616
V2010-12-01 15:12:00.000
p1617
ssVMLH771-POS1
p1618
(dp1619
Vtype
p1620
VWindows 7 Professional
p1621
sVinstallDate
p1622
V2011-08-31 11:07:00.000
p1623
ssVQUK600-POS1
p1624
(dp1625
Vtype
p1626
VWindows 7 Professional
p1627
sVinstallDate
p1628
V2011-08-31 11:07:00.000
p1629
ssVGMC020-S
p1630
(dp1631
Vtype
p1632
VWindows 7 Professional
p1633
sVinstallDate
p1634
NssVGMC027-S
p1635
(dp1636
Vtype
p1637
VWindows 7 Professional
p1638
sVinstallDate
p1639
V2011-08-31 11:07:00.000
p1640
ssVGMC033-POS1
p1641
(dp1642
Vtype
p1643
VWindows 7 Professional
p1644
sVinstallDate
p1645
V2011-08-31 11:07:00.000
p1646
ssVKIN060-POS1
p1647
(dp1648
Vtype
p1649
VWindows 7 Professional
p1650
sVinstallDate
p1651
V2011-08-31 11:07:00.000
p1652
ssVKIN060-POS2
p1653
(dp1654
Vtype
p1655
VWindows 7 Professional
p1656
sVinstallDate
p1657
V2011-08-31 11:07:00.000
p1658
ssVQUK048-POS1
p1659
(dp1660
Vtype
p1661
VWindows 7 Professional
p1662
sVinstallDate
p1663
V2011-08-31 11:07:00.000
p1664
ssVINT072-POS1
p1665
(dp1666
Vtype
p1667
VWindows 7 Professional
p1668
sVinstallDate
p1669
V2012-02-22 16:38:00.000
p1670
ssVQUK866-POS1
p1671
(dp1672
Vtype
p1673
VWindows 7 Professional
p1674
sVinstallDate
p1675
V2011-08-31 11:07:00.000
p1676
ssVINT067-POS1
p1677
(dp1678
Vtype
p1679
VWindows 7 Professional
p1680
sVinstallDate
p1681
V2012-02-22 16:38:00.000
p1682
ssVMLH200-POS1
p1683
(dp1684
Vtype
p1685
VWindows 7 Professional
p1686
sVinstallDate
p1687
V2011-08-31 11:07:00.000
p1688
ssVMLH108-POS2
p1689
(dp1690
Vtype
p1691
VWindows 7 Professional
p1692
sVinstallDate
p1693
V2011-08-31 11:07:00.000
p1694
ssVMLH108-POS1
p1695
(dp1696
Vtype
p1697
VWindows 7 Professional
p1698
sVinstallDate
p1699
V2011-08-31 11:07:00.000
p1700
ssVRPD047-S
p1701
(dp1702
Vtype
p1703
VWindows 7 Professional
p1704
sVinstallDate
p1705
V2011-08-31 11:07:00.000
p1706
ssVSEL037-POS1
p1707
(dp1708
Vtype
p1709
VWindows 7 Professional
p1710
sVinstallDate
p1711
V2011-08-31 11:07:00.000
p1712
ssVMLH059-POS2
p1713
(dp1714
Vtype
p1715
VWindows XP Professional
p1716
sVinstallDate
p1717
V2008-07-22 07:51:00.000
p1718
ssVMLH059-POS1
p1719
(dp1720
Vtype
p1721
VWindows XP Professional
p1722
sVinstallDate
p1723
V2008-07-22 07:51:00.000
p1724
ssVABC006-POS1
p1725
(dp1726
Vtype
p1727
VWindows 7 Professional
p1728
sVinstallDate
p1729
V2011-08-31 11:07:00.000
p1730
ssVPRI070-S
p1731
(dp1732
Vtype
p1733
VWindows XP Professional
p1734
sVinstallDate
p1735
V2008-06-26 14:23:00.000
p1736
ssVMLH712-POS1
p1737
(dp1738
Vtype
p1739
VWindows 7 Professional
p1740
sVinstallDate
p1741
V2011-08-31 11:07:00.000
p1742
ssVQUK105-POS1
p1743
(dp1744
Vtype
p1745
VWindows 7 Professional
p1746
sVinstallDate
p1747
V2015-02-02 16:25:00.000
p1748
ssVQUK021-POS1
p1749
(dp1750
Vtype
p1751
VWindows 7 Professional
p1752
sVinstallDate
p1753
V2011-08-31 11:07:00.000
p1754
ssVABC031-S
p1755
(dp1756
Vtype
p1757
VWindows 7 Professional
p1758
sVinstallDate
p1759
V2011-08-31 11:07:00.000
p1760
ssVPRK096-S
p1761
(dp1762
Vtype
p1763
VWindows 7 Professional
p1764
sVinstallDate
p1765
V2011-08-31 11:07:00.000
p1766
ssVGLE080-POS1
p1767
(dp1768
Vtype
p1769
VWindows 7 Professional
p1770
sVinstallDate
p1771
V2011-08-31 11:07:00.000
p1772
ssVMNH028-POS1
p1773
(dp1774
Vtype
p1775
VWindows 7 Professional
p1776
sVinstallDate
p1777
V2011-08-31 11:07:00.000
p1778
ssVMNH049-S
p1779
(dp1780
Vtype
p1781
VWindows XP Professional
p1782
sVinstallDate
p1783
V2008-06-26 14:23:00.000
p1784
ssVGLE064-POS1
p1785
(dp1786
Vtype
p1787
NsVinstallDate
p1788
NssVQUK222-POS1
p1789
(dp1790
Vtype
p1791
VWindows 7 Professional
p1792
sVinstallDate
p1793
V2010-12-01 15:12:00.000
p1794
ssVABC065-POS2
p1795
(dp1796
Vtype
p1797
VWindows 7 Professional
p1798
sVinstallDate
p1799
V2011-08-31 11:07:00.000
p1800
ssVMLH021-POS1
p1801
(dp1802
Vtype
p1803
VWindows 7 Professional
p1804
sVinstallDate
p1805
V2011-08-31 11:07:00.000
p1806
ssVQUK730-POS1
p1807
(dp1808
Vtype
p1809
VWindows 7 Professional
p1810
sVinstallDate
p1811
V2011-08-31 11:07:00.000
p1812
ssVMLH081-POS1
p1813
(dp1814
Vtype
p1815
VWindows 7 Professional
p1816
sVinstallDate
p1817
V2011-08-31 11:07:00.000
p1818
ssVRPD075-POS1
p1819
(dp1820
Vtype
p1821
VWindows 7 Professional
p1822
sVinstallDate
p1823
V2011-08-31 11:07:00.000
p1824
ssVQUK715-POS1
p1825
(dp1826
Vtype
p1827
VWindows 7 Professional
p1828
sVinstallDate
p1829
V2011-08-31 11:07:00.000
p1830
ssV_MPK064-POS1
p1831
(dp1832
Vtype
p1833
VWindows 7 Professional
p1834
sVinstallDate
p1835
V2014-02-18 09:11:00.000
p1836
ssVIPK006-POS1
p1837
(dp1838
Vtype
p1839
NsVinstallDate
p1840
NssVMLH057-POS1
p1841
(dp1842
Vtype
p1843
VWindows XP Professional
p1844
sVinstallDate
p1845
V2008-07-22 07:51:00.000
p1846
ssVMLH258-POS2
p1847
(dp1848
Vtype
p1849
VWindows XP Professional
p1850
sVinstallDate
p1851
V2008-07-22 07:51:00.000
p1852
ssVTSQ074-S
p1853
(dp1854
Vtype
p1855
VWindows 7 Professional
p1856
sVinstallDate
p1857
V2011-08-31 11:07:00.000
p1858
ssVMLH258-POS1
p1859
(dp1860
Vtype
p1861
VWindows XP Professional
p1862
sVinstallDate
p1863
V2008-07-22 07:51:00.000
p1864
ssVGMC060-POS1
p1865
(dp1866
Vtype
p1867
VWindows 7 Professional
p1868
sVinstallDate
p1869
V2011-08-31 11:07:00.000
p1870
ssVGMC060-POS2
p1871
(dp1872
Vtype
p1873
VWindows 7 Professional
p1874
sVinstallDate
p1875
V2011-08-31 11:07:00.000
p1876
ssVEPA001-POS1
p1877
(dp1878
Vtype
p1879
VWindows 7 Professional
p1880
sVinstallDate
p1881
V2012-02-22 16:38:00.000
p1882
ssVPRK009-S
p1883
(dp1884
Vtype
p1885
VWindows XP Professional
p1886
sVinstallDate
p1887
V2007-05-15 15:50:00.000
p1888
ssVTSQ135-POS1
p1889
(dp1890
Vtype
p1891
VWindows 7 Professional
p1892
sVinstallDate
p1893
V2011-08-31 11:07:00.000
p1894
ssVMLH057-POS2
p1895
(dp1896
Vtype
p1897
VWindows XP Professional
p1898
sVinstallDate
p1899
V2008-07-22 07:51:00.000
p1900
ssVTIS004-POS1
p1901
(dp1902
Vtype
p1903
VWindows 7 Professional
p1904
sVinstallDate
p1905
V2011-08-31 11:07:00.000
p1906
ssVABC089-S
p1907
(dp1908
Vtype
p1909
VWindows 7 Professional
p1910
sVinstallDate
p1911
V2011-08-31 11:07:00.000
p1912
ssVRPD003-S
p1913
(dp1914
Vtype
p1915
VWindows 7 Professional
p1916
sVinstallDate
p1917
V2011-08-31 11:07:00.000
p1918
ssVGMC017-POS2
p1919
(dp1920
Vtype
p1921
VWindows 7 Professional
p1922
sVinstallDate
p1923
V2011-08-31 11:07:00.000
p1924
ssVGMC017-POS1
p1925
(dp1926
Vtype
p1927
VWindows 7 Professional
p1928
sVinstallDate
p1929
V2011-08-31 11:07:00.000
p1930
ssVMLH753-POS1
p1931
(dp1932
Vtype
p1933
VWindows XP Professional
p1934
sVinstallDate
p1935
V2008-07-22 07:51:00.000
p1936
ssVMLH753-POS2
p1937
(dp1938
Vtype
p1939
VWindows XP Professional
p1940
sVinstallDate
p1941
V2008-07-22 07:51:00.000
p1942
ssVQUK703-POS1
p1943
(dp1944
Vtype
p1945
VWindows 7 Professional
p1946
sVinstallDate
p1947
V2011-08-31 11:07:00.000
p1948
ssVQUK025-POS1
p1949
(dp1950
Vtype
p1951
VWindows 7 Professional
p1952
sVinstallDate
p1953
V2011-08-31 11:07:00.000
p1954
ssV_VingPC
p1955
(dp1956
Vtype
p1957
VWindows 7 Professional
p1958
sVinstallDate
p1959
V2015-03-10 13:24:00.000
p1960
ssVMLH001-POS2
p1961
(dp1962
Vtype
p1963
VWindows XP Professional
p1964
sVinstallDate
p1965
V2008-07-22 07:51:00.000
p1966
ssVKIN045-POS1
p1967
(dp1968
Vtype
p1969
VWindows 7 Professional
p1970
sVinstallDate
p1971
V2011-08-31 11:07:00.000
p1972
ssVQUK705-POS1
p1973
(dp1974
Vtype
p1975
VWindows 7 Professional
p1976
sVinstallDate
p1977
V2011-08-31 11:07:00.000
p1978
ssVMLH080-POS1
p1979
(dp1980
Vtype
p1981
VWindows 7 Professional
p1982
sVinstallDate
p1983
V2011-08-31 11:07:00.000
p1984
ssVKIN051-POS1
p1985
(dp1986
Vtype
p1987
VWindows 7 Professional
p1988
sVinstallDate
p1989
V2011-08-31 11:07:00.000
p1990
ssVABC239-S
p1991
(dp1992
Vtype
p1993
VWindows 7 Professional
p1994
sVinstallDate
p1995
V2011-08-31 11:07:00.000
p1996
ssVRDN069-S
p1997
(dp1998
Vtype
p1999
VWindows 7 Professional
p2000
sVinstallDate
p2001
V2011-08-31 11:07:00.000
p2002
ssVGLE092-POS1
p2003
(dp2004
Vtype
p2005
VWindows 7 Professional
p2006
sVinstallDate
p2007
V2011-08-31 11:07:00.000
p2008
ssVABC012-POS1
p2009
(dp2010
Vtype
p2011
VWindows 7 Professional
p2012
sVinstallDate
p2013
V2012-11-19 13:36:00.000
p2014
ssVMLH001-POS1
p2015
(dp2016
Vtype
p2017
VWindows XP Professional
p2018
sVinstallDate
p2019
V2008-07-22 07:51:00.000
p2020
ssVEXP001-H
p2021
(dp2022
Vtype
p2023
VWindows Vista Home Premium
p2024
sVinstallDate
p2025
V2007-10-15 13:13:00.000
p2026
ssVQUK701-POS1
p2027
(dp2028
Vtype
p2029
VWindows 7 Professional
p2030
sVinstallDate
p2031
V2012-02-22 16:38:00.000
p2032
ssVMAURICIOC-TKTWIN7
p2033
(dp2034
Vtype
p2035
VWindows 10 Pro
p2036
sVinstallDate
p2037
V2015-09-10 10:00:00.000
p2038
ssVCCP001-W1
p2039
(dp2040
Vtype
p2041
VWindows 7 Professional
p2042
sVinstallDate
p2043
V2010-02-02 10:15:00.000
p2044
ssVKIN069-POS1
p2045
(dp2046
Vtype
p2047
VWindows 7 Professional
p2048
sVinstallDate
p2049
V2011-08-31 11:07:00.000
p2050
ssV_AlexPC
p2051
(dp2052
Vtype
p2053
VWindows 7 Professional
p2054
sVinstallDate
p2055
V2014-03-31 14:17:00.000
p2056
ssVGLE079-POS1
p2057
(dp2058
Vtype
p2059
VWindows 7 Professional
p2060
sVinstallDate
p2061
V2011-08-31 11:07:00.000
p2062
ssVGMC085-S
p2063
(dp2064
Vtype
p2065
VWindows XP Professional
p2066
sVinstallDate
p2067
NssVSYL071-S
p2068
(dp2069
Vtype
p2070
VWindows 7 Professional
p2071
sVinstallDate
p2072
V2011-08-31 11:07:00.000
p2073
ssVQUK036-POS1
p2074
(dp2075
Vtype
p2076
VWindows 7 Professional
p2077
sVinstallDate
p2078
V2011-08-31 11:07:00.000
p2079
ssVKIN017-POS1
p2080
(dp2081
Vtype
p2082
VWindows 7 Professional
p2083
sVinstallDate
p2084
V2011-08-31 11:07:00.000
p2085
ssVABC232-S
p2086
(dp2087
Vtype
p2088
VWindows 7 Professional
p2089
sVinstallDate
p2090
V2011-08-31 11:07:00.000
p2091
ssVGMC045-POS1
p2092
(dp2093
Vtype
p2094
VWindows 7 Professional
p2095
sVinstallDate
p2096
V2011-08-31 11:07:00.000
p2097
ssVABC231-S
p2098
(dp2099
Vtype
p2100
VWindows 7 Professional
p2101
sVinstallDate
p2102
V2011-08-31 11:07:00.000
p2103
ssVQUK575-POS1
p2104
(dp2105
Vtype
p2106
VWindows 7 Professional
p2107
sVinstallDate
p2108
V2012-02-22 16:38:00.000
p2109
ssVQUK053-POS1
p2110
(dp2111
Vtype
p2112
VWindows 7 Professional
p2113
sVinstallDate
p2114
V2011-08-31 11:07:00.000
p2115
ssVSEL145-S
p2116
(dp2117
Vtype
p2118
VWindows XP Professional
p2119
sVinstallDate
p2120
V2008-06-26 14:23:00.000
p2121
ssVMNH190-S
p2122
(dp2123
Vtype
p2124
VWindows XP Professional
p2125
sVinstallDate
p2126
V2008-06-26 14:23:00.000
p2127
ssVMLH749-POS1
p2128
(dp2129
Vtype
p2130
VWindows 7 Professional
p2131
sVinstallDate
p2132
V2011-08-31 11:07:00.000
p2133
ssVVGC057-POS1
p2134
(dp2135
Vtype
p2136
VWindows 7 Professional
p2137
sVinstallDate
p2138
V2011-08-31 11:07:00.000
p2139
ssVTSQ056-S
p2140
(dp2141
Vtype
p2142
VWindows 7 Professional
p2143
sVinstallDate
p2144
V2011-08-31 11:07:00.000
p2145
ssVABC049-POS1
p2146
(dp2147
Vtype
p2148
VWindows 7 Professional
p2149
sVinstallDate
p2150
V2011-08-31 11:07:00.000
p2151
ssVMLH064-POS2
p2152
(dp2153
Vtype
p2154
VWindows XP Professional
p2155
sVinstallDate
p2156
V2008-07-22 07:51:00.000
p2157
ssVMLH064-POS1
p2158
(dp2159
Vtype
p2160
VWindows XP Professional
p2161
sVinstallDate
p2162
V2008-07-22 07:51:00.000
p2163
ssVINT779-POS1
p2164
(dp2165
Vtype
p2166
VWindows 7 Professional
p2167
sVinstallDate
p2168
V2012-02-22 16:38:00.000
p2169
ssVTSQ012-S
p2170
(dp2171
Vtype
p2172
VWindows 7 Professional
p2173
sVinstallDate
p2174
V2010-02-02 10:15:00.000
p2175
ssVGMC083-POS1
p2176
(dp2177
Vtype
p2178
VWindows 7 Professional
p2179
sVinstallDate
p2180
V2011-08-31 11:07:00.000
p2181
ssVKIN230-POS1
p2182
(dp2183
Vtype
p2184
VWindows 7 Professional
p2185
sVinstallDate
p2186
V2011-08-31 11:07:00.000
p2187
ssVMLH006-POS1
p2188
(dp2189
Vtype
p2190
VWindows 7 Professional
p2191
sVinstallDate
p2192
V2011-08-31 11:07:00.000
p2193
ssVMLH745-POS1
p2194
(dp2195
Vtype
p2196
VWindows 7 Professional
p2197
sVinstallDate
p2198
V2010-12-01 15:12:00.000
p2199
ssVMLH713-POS1
p2200
(dp2201
Vtype
p2202
VWindows 7 Professional
p2203
sVinstallDate
p2204
V2011-08-31 11:07:00.000
p2205
ssVKIN014-POS1
p2206
(dp2207
Vtype
p2208
VWindows 7 Professional
p2209
sVinstallDate
p2210
V2011-08-31 11:07:00.000
p2211
ssVFBR001-POS1
p2212
(dp2213
Vtype
p2214
VWindows 7 Professional
p2215
sVinstallDate
p2216
V2012-02-22 16:38:00.000
p2217
ssVEZP002-S
p2218
(dp2219
Vtype
p2220
VWindows XP Professional
p2221
sVinstallDate
p2222
V2008-06-26 14:23:00.000
p2223
ssVGLE060-POS1
p2224
(dp2225
Vtype
p2226
VWindows 7 Professional
p2227
sVinstallDate
p2228
V2011-08-31 11:07:00.000
p2229
ssVGLE060-POS2
p2230
(dp2231
Vtype
p2232
VWindows 7 Professional
p2233
sVinstallDate
p2234
V2011-08-31 11:07:00.000
p2235
ssVABC056-S
p2236
(dp2237
Vtype
p2238
VWindows 7 Professional
p2239
sVinstallDate
p2240
V2011-08-31 11:07:00.000
p2241
ssVMNH301-POS1
p2242
(dp2243
Vtype
p2244
VWindows 7 Professional
p2245
sVinstallDate
p2246
V2011-08-31 11:07:00.000
p2247
ssVMLH035-POS1
p2248
(dp2249
Vtype
p2250
VWindows 7 Professional
p2251
sVinstallDate
p2252
V2011-08-31 11:07:00.000
p2253
ssVMNH041-POS1
p2254
(dp2255
Vtype
p2256
VWindows 7 Professional
p2257
sVinstallDate
p2258
V2010-12-01 15:12:00.000
p2259
ssVQUK252-S
p2260
(dp2261
Vtype
p2262
VWindows 7 Professional
p2263
sVinstallDate
p2264
V2011-08-31 11:07:00.000
p2265
ssVMLH300-POS1
p2266
(dp2267
Vtype
p2268
VWindows 7 Professional
p2269
sVinstallDate
p2270
V2010-12-01 15:12:00.000
p2271
ssVSYL014-S
p2272
(dp2273
Vtype
p2274
VWindows 7 Professional
p2275
sVinstallDate
p2276
V2011-08-31 11:07:00.000
p2277
ssVSYL013-S
p2278
(dp2279
Vtype
p2280
VWindows 7 Professional
p2281
sVinstallDate
p2282
V2011-08-31 11:07:00.000
p2283
ssVABC245-POS1
p2284
(dp2285
Vtype
p2286
VWindows 7 Professional
p2287
sVinstallDate
p2288
V2012-02-22 16:38:00.000
p2289
ssVGLE246-POS1
p2290
(dp2291
Vtype
p2292
VWindows 7 Professional
p2293
sVinstallDate
p2294
V2011-08-31 11:07:00.000
p2295
ssVMLH085-POS1
p2296
(dp2297
Vtype
p2298
VWindows 7 Professional
p2299
sVinstallDate
p2300
V2011-08-31 11:07:00.000
p2301
ssVQUK093-POS1
p2302
(dp2303
Vtype
p2304
VWindows 7 Professional
p2305
sVinstallDate
p2306
V2011-08-31 11:07:00.000
p2307
ssVQUK213-POS1
p2308
(dp2309
Vtype
p2310
VWindows 7 Professional
p2311
sVinstallDate
p2312
V2011-08-31 11:07:00.000
p2313
ssVMLH737-POS1
p2314
(dp2315
Vtype
p2316
VWindows XP Professional
p2317
sVinstallDate
p2318
V2008-07-22 07:51:00.000
p2319
ssVCPS022-S 
p2320
(dp2321
Vtype
p2322
VWindows 7 Professional
p2323
sVinstallDate
p2324
V2011-08-31 11:07:00.000
p2325
ssVMLH747-POS1
p2326
(dp2327
Vtype
p2328
VWindows 7 Professional
p2329
sVinstallDate
p2330
V2011-08-31 11:07:00.000
p2331
ssVMLH037-POS2
p2332
(dp2333
Vtype
p2334
VWindows XP Professional
p2335
sVinstallDate
p2336
V2008-06-26 14:23:00.000
p2337
ssVMLH037-POS1
p2338
(dp2339
Vtype
p2340
VWindows XP Professional
p2341
sVinstallDate
p2342
V2008-06-26 14:23:00.000
p2343
ssVMLH724-POS1
p2344
(dp2345
Vtype
p2346
VWindows 7 Professional
p2347
sVinstallDate
p2348
V2011-08-31 11:07:00.000
p2349
ssVMNH351-POS1
p2350
(dp2351
Vtype
p2352
VWindows 7 Professional
p2353
sVinstallDate
p2354
V2011-08-31 11:07:00.000
p2355
ssVMLH370-POS2
p2356
(dp2357
Vtype
p2358
VWindows XP Professional
p2359
sVinstallDate
p2360
V2008-07-22 07:51:00.000
p2361
ssVMLH798-POS1
p2362
(dp2363
Vtype
p2364
VWindows 7 Professional
p2365
sVinstallDate
p2366
V2011-08-31 11:07:00.000
p2367
ssVMNH046-POS1
p2368
(dp2369
Vtype
p2370
VWindows 7 Professional
p2371
sVinstallDate
p2372
V2011-08-31 11:07:00.000
p2373
ssVMLH115-POS1
p2374
(dp2375
Vtype
p2376
VWindows 7 Professional
p2377
sVinstallDate
p2378
V2010-12-01 15:12:00.000
p2379
ssVMLH115-POS2
p2380
(dp2381
Vtype
p2382
VWindows 7 Professional
p2383
sVinstallDate
p2384
V2010-12-01 15:12:00.000
p2385
ssVOPI375-POS1
p2386
(dp2387
Vtype
p2388
VWindows 7 Professional
p2389
sVinstallDate
p2390
V2012-02-22 16:38:00.000
p2391
ssVTIS015-POS1
p2392
(dp2393
Vtype
p2394
VWindows 7 Professional
p2395
sVinstallDate
p2396
V2015-02-02 16:25:00.000
p2397
ssVMLH029-POS1
p2398
(dp2399
Vtype
p2400
VWindows XP Professional
p2401
sVinstallDate
p2402
V2008-06-26 14:23:00.000
p2403
ssVQUK633-POS1
p2404
(dp2405
Vtype
p2406
VWindows 7 Professional
p2407
sVinstallDate
p2408
V2011-08-31 11:07:00.000
p2409
ssVSYL050-POS1
p2410
(dp2411
Vtype
p2412
VWindows 7 Professional
p2413
sVinstallDate
p2414
V2011-08-31 11:07:00.000
p2415
ssVMNH007-POS1
p2416
(dp2417
Vtype
p2418
VWindows 7 Professional
p2419
sVinstallDate
p2420
V2011-08-31 11:07:00.000
p2421
ssVMLH007-POS1
p2422
(dp2423
Vtype
p2424
VWindows 7 Professional
p2425
sVinstallDate
p2426
V2012-02-22 16:38:00.000
p2427
ssVMLH026-POS1
p2428
(dp2429
Vtype
p2430
VWindows 7 Professional
p2431
sVinstallDate
p2432
V2011-08-31 11:07:00.000
p2433
ssVMLH026-POS2
p2434
(dp2435
Vtype
p2436
VWindows 7 Professional
p2437
sVinstallDate
p2438
V2011-08-31 11:07:00.000
p2439
ssVQUK714-POS1
p2440
(dp2441
Vtype
p2442
VWindows 7 Professional
p2443
sVinstallDate
p2444
V2012-02-22 16:38:00.000
p2445
ssVABC229-POS2
p2446
(dp2447
Vtype
p2448
VWindows 7 Professional
p2449
sVinstallDate
p2450
V2014-02-18 09:11:00.000
p2451
ssVMLH060-POS1
p2452
(dp2453
Vtype
p2454
VWindows XP Professional
p2455
sVinstallDate
p2456
V2008-06-26 14:23:00.000
p2457
ssVGLE085-POS1
p2458
(dp2459
Vtype
p2460
VWindows 7 Professional
p2461
sVinstallDate
p2462
V2011-08-31 11:07:00.000
p2463
ssVABC004-POS1
p2464
(dp2465
Vtype
p2466
VWindows 7 Professional
p2467
sVinstallDate
p2468
V2011-08-31 11:07:00.000
p2469
ssVABC079-W1
p2470
(dp2471
Vtype
p2472
VWindows 7 Professional
p2473
sVinstallDate
p2474
V2011-08-31 11:07:00.000
p2475
ssVGOT004-S
p2476
(dp2477
Vtype
p2478
NsVinstallDate
p2479
NssVMLH004-POS3
p2480
(dp2481
Vtype
p2482
VWindows 7 Professional
p2483
sVinstallDate
p2484
V2011-08-31 11:07:00.000
p2485
ssVSHH001-POS1
p2486
(dp2487
Vtype
p2488
VWindows 7 Professional
p2489
sVinstallDate
p2490
V2012-02-22 16:38:00.000
p2491
ssVSHH001-POS2
p2492
(dp2493
Vtype
p2494
VWindows 7 Professional
p2495
sVinstallDate
p2496
V2012-02-22 16:38:00.000
p2497
ssVABC002-POS1
p2498
(dp2499
Vtype
p2500
VWindows 7 Professional
p2501
sVinstallDate
p2502
V2011-08-31 11:07:00.000
p2503
ssVTIS011-POS1
p2504
(dp2505
Vtype
p2506
VWindows 7 Professional
p2507
sVinstallDate
p2508
V2011-08-31 11:07:00.000
p2509
ssVQUK196-POS1
p2510
(dp2511
Vtype
p2512
VWindows 7 Professional
p2513
sVinstallDate
p2514
V2011-08-31 11:07:00.000
p2515
ssVSPN200-S
p2516
(dp2517
Vtype
p2518
VWindows XP Professional
p2519
sVinstallDate
p2520
V2007-05-15 15:50:00.000
p2521
ssVGMC048-POS1
p2522
(dp2523
Vtype
p2524
VWindows 7 Professional
p2525
sVinstallDate
p2526
V2011-08-31 11:07:00.000
p2527
ssVABC228-S
p2528
(dp2529
Vtype
p2530
VWindows 7 Professional
p2531
sVinstallDate
p2532
V2011-08-31 11:07:00.000
p2533
ssVMNH040-S
p2534
(dp2535
Vtype
p2536
VWindows XP Professional
p2537
sVinstallDate
p2538
V2008-06-26 14:23:00.000
p2539
ssVRPD076-POS1
p2540
(dp2541
Vtype
p2542
VWindows 7 Professional
p2543
sVinstallDate
p2544
V2011-08-31 11:07:00.000
p2545
ssVINT200-POS1
p2546
(dp2547
Vtype
p2548
VWindows 7 Professional
p2549
sVinstallDate
p2550
V2012-02-22 16:38:00.000
p2551
ssVABC046-POS1
p2552
(dp2553
Vtype
p2554
VWindows 7 Professional
p2555
sVinstallDate
p2556
V2011-08-31 11:07:00.000
p2557
ssVCPS006-S
p2558
(dp2559
Vtype
p2560
VWindows 7 Professional
p2561
sVinstallDate
p2562
V2011-08-31 11:07:00.000
p2563
ssVOPI040-POS2
p2564
(dp2565
Vtype
p2566
VWindows 7 Professional
p2567
sVinstallDate
p2568
V2012-02-22 16:38:00.000
p2569
ssVMLH111-POS1
p2570
(dp2571
Vtype
p2572
VWindows XP Professional
p2573
sVinstallDate
p2574
V2008-06-26 14:23:00.000
p2575
ssVMLH111-POS2
p2576
(dp2577
Vtype
p2578
VWindows XP Professional
p2579
sVinstallDate
p2580
V2008-06-26 14:23:00.000
p2581
ssVOPI040-POS1
p2582
(dp2583
Vtype
p2584
VWindows 7 Professional
p2585
sVinstallDate
p2586
V2012-02-22 16:38:00.000
p2587
ssVMLH160-POS1
p2588
(dp2589
Vtype
p2590
VWindows 7 Professional
p2591
sVinstallDate
p2592
V2011-08-31 11:07:00.000
p2593
ssVABC073-S
p2594
(dp2595
Vtype
p2596
VWindows 7 Professional
p2597
sVinstallDate
p2598
V2011-08-31 11:07:00.000
p2599
ssVINT502-POS1
p2600
(dp2601
Vtype
p2602
VWindows 7 Professional
p2603
sVinstallDate
p2604
V2011-08-31 11:07:00.000
p2605
ssVABC247-POS1
p2606
(dp2607
Vtype
p2608
VWindows 7 Professional
p2609
sVinstallDate
p2610
V2012-11-19 13:36:00.000
p2611
ssVMLH053-POS1
p2612
(dp2613
Vtype
p2614
VWindows XP Professional
p2615
sVinstallDate
p2616
V2008-07-22 07:51:00.000
p2617
ssVMLH019-POS2
p2618
(dp2619
Vtype
p2620
VWindows 7 Professional
p2621
sVinstallDate
p2622
V2011-08-31 11:07:00.000
p2623
ssVMLH019-POS1
p2624
(dp2625
Vtype
p2626
VWindows 7 Professional
p2627
sVinstallDate
p2628
V2011-08-31 11:07:00.000
p2629
ssVMLH053-POS2
p2630
(dp2631
Vtype
p2632
VWindows XP Professional
p2633
sVinstallDate
p2634
V2008-07-22 07:51:00.000
p2635
ssVQUK708-POS1
p2636
(dp2637
Vtype
p2638
VWindows 7 Professional
p2639
sVinstallDate
p2640
V2011-08-31 11:07:00.000
p2641
ssVGMC086-POS1
p2642
(dp2643
Vtype
p2644
VWindows 7 Professional
p2645
sVinstallDate
p2646
V2011-08-31 11:07:00.000
p2647
ssVMLH076-POS1
p2648
(dp2649
Vtype
p2650
VWindows XP Professional
p2651
sVinstallDate
p2652
V2008-06-26 14:23:00.000
p2653
ssVMLH076-POS2
p2654
(dp2655
Vtype
p2656
VWindows XP Professional
p2657
sVinstallDate
p2658
V2008-06-26 14:23:00.000
p2659
ssVABC054-S
p2660
(dp2661
Vtype
p2662
VWindows 7 Professional
p2663
sVinstallDate
p2664
V2011-08-31 11:07:00.000
p2665
ssVABC062-S
p2666
(dp2667
Vtype
p2668
VWindows 7 Professional
p2669
sVinstallDate
p2670
V2011-08-31 11:07:00.000
p2671
ssVQUK012-POS1
p2672
(dp2673
Vtype
p2674
VWindows 7 Professional
p2675
sVinstallDate
p2676
V2015-02-02 16:25:00.000
p2677
ssVKIN009-POS1
p2678
(dp2679
Vtype
p2680
VWindows 7 Professional
p2681
sVinstallDate
p2682
V2011-08-31 11:07:00.000
p2683
ssVTSQ010-W1
p2684
(dp2685
Vtype
p2686
VWindows 7 Professional
p2687
sVinstallDate
p2688
V2010-02-02 10:15:00.000
p2689
ssVMLH032-POS1
p2690
(dp2691
Vtype
p2692
VWindows XP Professional
p2693
sVinstallDate
p2694
V2008-07-22 07:51:00.000
p2695
ssVMLH032-POS2
p2696
(dp2697
Vtype
p2698
VWindows XP Professional
p2699
sVinstallDate
p2700
V2008-07-22 07:51:00.000
p2701
ssVMLH032-POS3
p2702
(dp2703
Vtype
p2704
VWindows XP Professional
p2705
sVinstallDate
p2706
V2008-07-22 07:51:00.000
p2707
ssVMLH071-POS1
p2708
(dp2709
Vtype
p2710
VWindows XP Professional
p2711
sVinstallDate
p2712
V2008-06-26 14:23:00.000
p2713
ssVGMC084-S
p2714
(dp2715
Vtype
p2716
VWindows 7 Professional
p2717
sVinstallDate
p2718
V2011-08-31 11:07:00.000
p2719
ssVSYL011-S
p2720
(dp2721
Vtype
p2722
VWindows 7 Professional
p2723
sVinstallDate
p2724
V2011-08-31 11:07:00.000
p2725
ssVMLH016-POS2
p2726
(dp2727
Vtype
p2728
VWindows XP Professional
p2729
sVinstallDate
p2730
V2008-06-26 14:23:00.000
p2731
ssVRPD061-POS2
p2732
(dp2733
Vtype
p2734
VWindows 7 Professional
p2735
sVinstallDate
p2736
V2011-08-31 11:07:00.000
p2737
ssVRPD061-POS1
p2738
(dp2739
Vtype
p2740
VWindows 7 Professional
p2741
sVinstallDate
p2742
V2011-08-31 11:07:00.000
p2743
ssVMLH016-POS1
p2744
(dp2745
Vtype
p2746
VWindows XP Professional
p2747
sVinstallDate
p2748
V2008-06-26 14:23:00.000
p2749
ssVMLH765-POS1
p2750
(dp2751
Vtype
p2752
VWindows 7 Professional
p2753
sVinstallDate
p2754
V2011-08-31 11:07:00.000
p2755
ssVABC083-S
p2756
(dp2757
Vtype
p2758
VWindows 7 Professional
p2759
sVinstallDate
p2760
V2011-08-31 11:07:00.000
p2761
ssVMLH094-POS1
p2762
(dp2763
Vtype
p2764
VWindows XP Professional
p2765
sVinstallDate
p2766
V2008-06-26 14:23:00.000
p2767
ssVMLH094-POS2
p2768
(dp2769
Vtype
p2770
VWindows XP Professional
p2771
sVinstallDate
p2772
V2008-06-26 14:23:00.000
p2773
ssVMLH799-POS1
p2774
(dp2775
Vtype
p2776
VWindows 7 Professional
p2777
sVinstallDate
p2778
V2011-08-31 11:07:00.000
p2779
ssVQUK101-POS1
p2780
(dp2781
Vtype
p2782
VWindows 7 Professional
p2783
sVinstallDate
p2784
V2011-08-31 11:07:00.000
p2785
ssVABC099-S
p2786
(dp2787
Vtype
p2788
VWindows 7 Professional
p2789
sVinstallDate
p2790
V2011-08-31 11:07:00.000
p2791
ssVRPD004-S
p2792
(dp2793
Vtype
p2794
VWindows 7 Professional
p2795
sVinstallDate
p2796
V2011-08-31 11:07:00.000
p2797
ssVPRK500-POS1
p2798
(dp2799
Vtype
p2800
VWindows 7 Professional
p2801
sVinstallDate
p2802
V2011-08-31 11:07:00.000
p2803
ssVMNH054-POS1
p2804
(dp2805
Vtype
p2806
VWindows 7 Professional
p2807
sVinstallDate
p2808
V2011-08-31 11:07:00.000
p2809
ssVMLH088-POS1
p2810
(dp2811
Vtype
p2812
VWindows XP Professional
p2813
sVinstallDate
p2814
V2008-06-26 14:23:00.000
p2815
ssVMLHOFFICE-2016
p2816
(dp2817
Vtype
p2818
VWindows 7 Home Premium x64 Edition
p2819
sVinstallDate
p2820
V2013-01-18 10:08:00.000
p2821
ssVMLH260-POS1
p2822
(dp2823
Vtype
p2824
VWindows 7 Professional
p2825
sVinstallDate
p2826
V2011-08-31 11:07:00.000
p2827
ssV_TroyPC
p2828
(dp2829
Vtype
p2830
VWindows 7 Professional
p2831
sVinstallDate
p2832
V2014-04-04 07:30:00.000
p2833
ssVQUK028-POS1
p2834
(dp2835
Vtype
p2836
VWindows 7 Professional
p2837
sVinstallDate
p2838
V2011-08-31 11:07:00.000
p2839
ssVQUK088-POS1
p2840
(dp2841
Vtype
p2842
VWindows 7 Professional
p2843
sVinstallDate
p2844
V2011-08-31 11:07:00.000
p2845
ssVQUK038-POS1
p2846
(dp2847
Vtype
p2848
VWindows 7 Professional
p2849
sVinstallDate
p2850
V2015-02-02 16:25:00.000
p2851
ssVSYL031-POS1
p2852
(dp2853
Vtype
p2854
VWindows 7 Professional
p2855
sVinstallDate
p2856
V2011-08-31 11:07:00.000
p2857
ssVMLH768-POS1
p2858
(dp2859
Vtype
p2860
VWindows XP Professional
p2861
sVinstallDate
p2862
V2008-06-26 14:23:00.000
p2863
ssVRPD100-POS1
p2864
(dp2865
Vtype
p2866
VWindows 7 Professional
p2867
sVinstallDate
p2868
V2011-08-31 11:07:00.000
p2869
ssVTSQ002-W1
p2870
(dp2871
Vtype
p2872
VWindows 7 Professional
p2873
sVinstallDate
p2874
V2011-08-31 11:07:00.000
p2875
ssVABC129-POS1
p2876
(dp2877
Vtype
p2878
VWindows 7 Professional
p2879
sVinstallDate
p2880
V2014-02-18 09:11:00.000
p2881
ssVMLH024-POS1
p2882
(dp2883
Vtype
p2884
VWindows 7 Professional
p2885
sVinstallDate
p2886
V2011-08-31 11:07:00.000
p2887
ssVGMC044-S
p2888
(dp2889
Vtype
p2890
VWindows 7 Professional
p2891
sVinstallDate
p2892
V2011-08-31 11:07:00.000
p2893
ssVGLE075-POS1
p2894
(dp2895
Vtype
p2896
VWindows 7 Professional
p2897
sVinstallDate
p2898
V2011-08-31 11:07:00.000
p2899
ssVABC061-S
p2900
(dp2901
Vtype
p2902
VWindows 7 Professional
p2903
sVinstallDate
p2904
V2011-08-31 11:07:00.000
p2905
ssV_JohnPC
p2906
(dp2907
Vtype
p2908
VWindows 7 Professional
p2909
sVinstallDate
p2910
V2013-08-12 16:52:00.000
p2911
ssVINT018-S
p2912
(dp2913
Vtype
p2914
VWindows 7 Professional
p2915
sVinstallDate
p2916
V2010-02-02 10:15:00.000
p2917
ssVMLH084-POS1
p2918
(dp2919
Vtype
p2920
VWindows 7 Professional
p2921
sVinstallDate
p2922
V2011-08-31 11:07:00.000
p2923
ssVTIS008-POS1
p2924
(dp2925
Vtype
p2926
VWindows 7 Professional
p2927
sVinstallDate
p2928
V2011-08-31 11:07:00.000
p2929
ssVQUK250-S
p2930
(dp2931
Vtype
p2932
VWindows 7 Professional
p2933
sVinstallDate
p2934
V2011-08-31 11:07:00.000
p2935
ssVMLH084-POS2
p2936
(dp2937
Vtype
p2938
VWindows 7 Professional
p2939
sVinstallDate
p2940
V2011-08-31 11:07:00.000
p2941
ssVABC080-S
p2942
(dp2943
Vtype
p2944
VWindows 7 Professional
p2945
sVinstallDate
p2946
V2011-08-31 11:07:00.000
p2947
ssVGLE088-POS1
p2948
(dp2949
Vtype
p2950
VWindows 7 Professional
p2951
sVinstallDate
p2952
V2011-08-31 11:07:00.000
p2953
ssVQUK055-POS1
p2954
(dp2955
Vtype
p2956
VWindows 7 Professional
p2957
sVinstallDate
p2958
V2011-08-31 11:07:00.000
p2959
ssVABC029-POS1
p2960
(dp2961
Vtype
p2962
VWindows 7 Professional
p2963
sVinstallDate
p2964
V2014-02-18 09:11:00.000
p2965
ssVQUK586-POS1
p2966
(dp2967
Vtype
p2968
VWindows 7 Professional
p2969
sVinstallDate
p2970
V2011-08-31 11:07:00.000
p2971
ssVPAT002-POS1
p2972
(dp2973
Vtype
p2974
VWindows 7 Professional
p2975
sVinstallDate
p2976
V2011-08-31 11:07:00.000
p2977
ssVMLH770-POS2
p2978
(dp2979
Vtype
p2980
VWindows 7 Professional
p2981
sVinstallDate
p2982
V2011-08-31 11:07:00.000
p2983
ssVMLH770-POS1
p2984
(dp2985
Vtype
p2986
VWindows 7 Professional
p2987
sVinstallDate
p2988
V2011-08-31 11:07:00.000
p2989
ssVQUK041-POS1
p2990
(dp2991
Vtype
p2992
VWindows 7 Professional
p2993
sVinstallDate
p2994
V2011-08-31 11:07:00.000
p2995
ssVQUK624-POS1
p2996
(dp2997
Vtype
p2998
VWindows 7 Professional
p2999
sVinstallDate
p3000
V2015-02-02 16:25:00.000
p3001
ssVMLH077-POS2
p3002
(dp3003
Vtype
p3004
VWindows XP Professional
p3005
sVinstallDate
p3006
V2008-06-26 14:23:00.000
p3007
ssVMLH077-POS1
p3008
(dp3009
Vtype
p3010
VWindows XP Professional
p3011
sVinstallDate
p3012
V2008-06-26 14:23:00.000
p3013
ssVMLH062-POS1
p3014
(dp3015
Vtype
p3016
VWindows XP Professional
p3017
sVinstallDate
p3018
V2008-06-26 14:23:00.000
p3019
ssVMLH062-POS2
p3020
(dp3021
Vtype
p3022
VWindows 7 Professional
p3023
sVinstallDate
p3024
V2011-08-31 11:07:00.000
p3025
ssVABC088-S
p3026
(dp3027
Vtype
p3028
VWindows 7 Professional
p3029
sVinstallDate
p3030
V2011-08-31 11:07:00.000
p3031
ssVMLH086-POS1
p3032
(dp3033
Vtype
p3034
VWindows XP Professional
p3035
sVinstallDate
p3036
V2008-06-26 14:23:00.000
p3037
ssVSYL016-S
p3038
(dp3039
Vtype
p3040
VWindows XP Professional
p3041
sVinstallDate
p3042
V2008-06-26 14:23:00.000
p3043
ssVABC237-POS1
p3044
(dp3045
Vtype
p3046
VWindows 7 Professional
p3047
sVinstallDate
p3048
V2014-02-18 09:11:00.000
p3049
ssVMLH772-POS1
p3050
(dp3051
Vtype
p3052
VWindows 7 Professional
p3053
sVinstallDate
p3054
V2011-08-31 11:07:00.000
p3055
ssVGLE072-POS1
p3056
(dp3057
Vtype
p3058
VWindows 7 Professional
p3059
sVinstallDate
p3060
V2011-08-31 11:07:00.000
p3061
ssVQUK049-POS2
p3062
(dp3063
Vtype
p3064
VWindows 7 Professional
p3065
sVinstallDate
p3066
V2014-02-18 09:11:00.000
p3067
ssVRPD083-S
p3068
(dp3069
Vtype
p3070
VWindows 7 Professional
p3071
sVinstallDate
p3072
V2011-08-31 11:07:00.000
p3073
ssVSYL015-S
p3074
(dp3075
Vtype
p3076
VWindows 7 Professional
p3077
sVinstallDate
p3078
V2011-08-31 11:07:00.000
p3079
ssVQUK049-POS1
p3080
(dp3081
Vtype
p3082
VWindows 7 Professional
p3083
sVinstallDate
p3084
V2014-02-18 09:11:00.000
p3085
ssVRPD079-POS1
p3086
(dp3087
Vtype
p3088
VWindows 7 Professional
p3089
sVinstallDate
p3090
V2011-08-31 11:07:00.000
p3091
ssVVPN003-S
p3092
(dp3093
Vtype
p3094
VWindows XP Professional
p3095
sVinstallDate
p3096
NssVVPN004-S
p3097
(dp3098
Vtype
p3099
VWindows XP Professional
p3100
sVinstallDate
p3101
V2008-07-22 07:51:00.000
p3102
ssVOPI001-POS1
p3103
(dp3104
Vtype
p3105
VWindows 7 Professional
p3106
sVinstallDate
p3107
V2014-02-18 09:11:00.000
p3108
ssV_NickPC
p3109
(dp3110
Vtype
p3111
VWindows 7 Professional
p3112
sVinstallDate
p3113
V2013-08-12 16:52:00.000
p3114
ssVOPI001-POS2
p3115
(dp3116
Vtype
p3117
VWindows 7 Professional
p3118
sVinstallDate
p3119
V2014-02-18 09:11:00.000
p3120
ssVKIN077-POS1
p3121
(dp3122
Vtype
p3123
VWindows 7 Professional
p3124
sVinstallDate
p3125
V2011-08-31 11:07:00.000
p3126
ssVGMC022-POS1
p3127
(dp3128
Vtype
p3129
VWindows 7 Professional
p3130
sVinstallDate
p3131
V2011-08-31 11:07:00.000
p3132
ssVSYL001-W1
p3133
(dp3134
Vtype
p3135
VWindows 7 Professional
p3136
sVinstallDate
p3137
V2011-08-31 11:07:00.000
p3138
ssVCPS031-S
p3139
(dp3140
Vtype
p3141
VWindows 7 Professional
p3142
sVinstallDate
p3143
V2011-08-31 11:07:00.000
p3144
ssVAMP001-W1
p3145
(dp3146
Vtype
p3147
VWindows 7 Professional
p3148
sVinstallDate
p3149
V2012-02-22 16:38:00.000
p3150
ssVABC256-POS1
p3151
(dp3152
Vtype
p3153
VWindows 7 Professional
p3154
sVinstallDate
p3155
V2012-02-22 16:38:00.000
p3156
ssVSEL200-S
p3157
(dp3158
Vtype
p3159
NsVinstallDate
p3160
NssVQUK485-POS1
p3161
(dp3162
Vtype
p3163
VWindows 7 Professional
p3164
sVinstallDate
p3165
V2011-08-31 11:07:00.000
p3166
ssVQUK062-POS1
p3167
(dp3168
Vtype
p3169
VWindows 7 Professional
p3170
sVinstallDate
p3171
V2015-02-02 16:25:00.000
p3172
ssVQUK099-POS1
p3173
(dp3174
Vtype
p3175
VWindows 7 Professional
p3176
sVinstallDate
p3177
V2011-08-31 11:07:00.000
p3178
ssVABC246-S
p3179
(dp3180
Vtype
p3181
VWindows 7 Professional
p3182
sVinstallDate
p3183
V2011-08-31 11:07:00.000
p3184
ssVQUK095-POS2
p3185
(dp3186
Vtype
p3187
VWindows 7 Professional
p3188
sVinstallDate
p3189
V2011-08-31 11:07:00.000
p3190
ssVQUK095-POS1
p3191
(dp3192
Vtype
p3193
VWindows 7 Professional
p3194
sVinstallDate
p3195
V2011-08-31 11:07:00.000
p3196
ssVMLH020-POS2
p3197
(dp3198
Vtype
p3199
VWindows 7 Professional
p3200
sVinstallDate
p3201
V2011-08-31 11:07:00.000
p3202
ssVMLH020-POS1
p3203
(dp3204
Vtype
p3205
VWindows 7 Professional
p3206
sVinstallDate
p3207
V2011-08-31 11:07:00.000
p3208
ssVMLH104-POS1
p3209
(dp3210
Vtype
p3211
VWindows 7 Professional
p3212
sVinstallDate
p3213
V2011-08-31 11:07:00.000
p3214
ssVMLH056-POS2
p3215
(dp3216
Vtype
p3217
VWindows 7 Professional
p3218
sVinstallDate
p3219
V2010-12-01 15:12:00.000
p3220
ssVMLH759-POS1
p3221
(dp3222
Vtype
p3223
VWindows 7 Professional
p3224
sVinstallDate
p3225
V2012-02-22 16:38:00.000
p3226
ssVEZP001-S
p3227
(dp3228
Vtype
p3229
VWindows XP Professional
p3230
sVinstallDate
p3231
V2008-06-26 14:23:00.000
p3232
ssVKIN150-POS1
p3233
(dp3234
Vtype
p3235
VWindows 7 Professional
p3236
sVinstallDate
p3237
V2011-08-31 11:07:00.000
p3238
ssVQUK089-POS1
p3239
(dp3240
Vtype
p3241
VWindows 7 Professional
p3242
sVinstallDate
p3243
V2011-08-31 11:07:00.000
p3244
ssVABC254-POS1
p3245
(dp3246
Vtype
p3247
VWindows 7 Professional
p3248
sVinstallDate
p3249
V2012-02-22 16:38:00.000
p3250
ssVQUK742-POS1
p3251
(dp3252
Vtype
p3253
VWindows 7 Professional
p3254
sVinstallDate
p3255
V2012-02-22 16:38:00.000
p3256
ssVMLH022-POS1
p3257
(dp3258
Vtype
p3259
VWindows 7 Professional
p3260
sVinstallDate
p3261
V2011-08-31 11:07:00.000
p3262
ssVMLH043-POS1
p3263
(dp3264
Vtype
p3265
VWindows XP Professional
p3266
sVinstallDate
p3267
V2008-06-26 14:23:00.000
p3268
ssVMLH718-POS1
p3269
(dp3270
Vtype
p3271
VWindows XP Professional
p3272
sVinstallDate
p3273
V2008-06-26 14:23:00.000
p3274
ssVMLH762-POS1
p3275
(dp3276
Vtype
p3277
VWindows 7 Professional
p3278
sVinstallDate
p3279
V2012-02-22 16:38:00.000
p3280
ssVMLH721-POS1
p3281
(dp3282
Vtype
p3283
VWindows 7 Professional
p3284
sVinstallDate
p3285
V2011-08-31 11:07:00.000
p3286
ssVMLH043-POS2
p3287
(dp3288
Vtype
p3289
VWindows XP Professional
p3290
sVinstallDate
p3291
V2008-06-26 14:23:00.000
p3292
ssVMLH012-POS1
p3293
(dp3294
Vtype
p3295
VWindows 7 Professional
p3296
sVinstallDate
p3297
V2011-08-31 11:07:00.000
p3298
ssVMLH090-POS1
p3299
(dp3300
Vtype
p3301
VWindows XP Professional
p3302
sVinstallDate
p3303
V2008-07-22 07:51:00.000
p3304
ssVMLH090-POS2
p3305
(dp3306
Vtype
p3307
VWindows XP Professional
p3308
sVinstallDate
p3309
V2008-07-22 07:51:00.000
p3310
ssVGMC052-POS1
p3311
(dp3312
Vtype
p3313
VWindows 7 Professional
p3314
sVinstallDate
p3315
V2011-08-31 11:07:00.000
p3316
ssVABC068-S
p3317
(dp3318
Vtype
p3319
VWindows 7 Professional
p3320
sVinstallDate
p3321
V2011-08-31 11:07:00.000
p3322
ssVMLH063-POS1
p3323
(dp3324
Vtype
p3325
VWindows 7 Professional
p3326
sVinstallDate
p3327
V2011-08-31 11:07:00.000
p3328
ssVMLH054-POS1
p3329
(dp3330
Vtype
p3331
VWindows 7 Professional
p3332
sVinstallDate
p3333
V2011-08-31 11:07:00.000
p3334
ssVABC010-POS1
p3335
(dp3336
Vtype
p3337
VWindows 7 Professional
p3338
sVinstallDate
p3339
V2011-08-31 11:07:00.000
p3340
ssVMLH056-POS1
p3341
(dp3342
Vtype
p3343
VWindows 7 Professional
p3344
sVinstallDate
p3345
V2010-12-01 15:12:00.000
p3346
ssVMNH303-POS1
p3347
(dp3348
Vtype
p3349
VWindows 7 Professional
p3350
sVinstallDate
p3351
V2011-08-31 11:07:00.000
p3352
ssVQUK086-POS1
p3353
(dp3354
Vtype
p3355
VWindows 7 Professional
p3356
sVinstallDate
p3357
V2015-02-02 16:25:00.000
p3358
ssVABC259-POS1
p3359
(dp3360
Vtype
p3361
VWindows 7 Professional
p3362
sVinstallDate
p3363
V2012-02-22 16:38:00.000
p3364
ssVABC063-S
p3365
(dp3366
Vtype
p3367
VWindows 7 Professional
p3368
sVinstallDate
p3369
V2011-08-31 11:07:00.000
p3370
ssVQUK236-POS1
p3371
(dp3372
Vtype
p3373
VWindows 7 Professional
p3374
sVinstallDate
p3375
V2011-08-31 11:07:00.000
p3376
ssVABC047-POS1
p3377
(dp3378
Vtype
p3379
VWindows 7 Professional
p3380
sVinstallDate
p3381
V2014-02-18 09:11:00.000
p3382
ssVMLH726-POS1
p3383
(dp3384
Vtype
p3385
VWindows 7 Professional
p3386
sVinstallDate
p3387
V2011-08-31 11:07:00.000
p3388
ssVMLH764-POS1
p3389
(dp3390
Vtype
p3391
VWindows XP Professional
p3392
sVinstallDate
p3393
V2008-06-26 14:23:00.000
p3394
ssVMLH723-POS1
p3395
(dp3396
Vtype
p3397
VWindows 7 Professional
p3398
sVinstallDate
p3399
V2011-08-31 11:07:00.000
p3400
ssVMLH711-POS1
p3401
(dp3402
Vtype
p3403
VWindows 7 Professional
p3404
sVinstallDate
p3405
V2011-08-31 11:07:00.000
p3406
ssVRDN067-S
p3407
(dp3408
Vtype
p3409
VWindows 7 Professional
p3410
sVinstallDate
p3411
V2011-08-31 11:07:00.000
p3412
ssVOPI500-POS1
p3413
(dp3414
Vtype
p3415
VWindows XP Professional
p3416
sVinstallDate
p3417
NssVMAURICIO-WIN7-HOME
p3418
(dp3419
Vtype
p3420
VWindows 10 Pro x64 Edition
p3421
sVinstallDate
p3422
V2015-08-11 23:14:00.000
p3423
ssVMLH092-POS1
p3424
(dp3425
Vtype
p3426
VWindows 7 Professional
p3427
sVinstallDate
p3428
V2011-08-31 11:07:00.000
p3429
ssVMLH735-POS1
p3430
(dp3431
Vtype
p3432
VWindows 7 Professional
p3433
sVinstallDate
p3434
V2011-08-31 11:07:00.000
p3435
ssVABC212-POS1
p3436
(dp3437
Vtype
p3438
VWindows 7 Professional
p3439
sVinstallDate
p3440
V2014-02-18 09:11:00.000
p3441
ssVABC046-S
p3442
(dp3443
Vtype
p3444
VWindows 7 Professional
p3445
sVinstallDate
p3446
V2011-08-31 11:07:00.000
p3447
ssVPVP005-POS1
p3448
(dp3449
Vtype
p3450
VWindows 7 Professional
p3451
sVinstallDate
p3452
V2012-02-22 16:38:00.000
p3453
ssVKIN058-POS1
p3454
(dp3455
Vtype
p3456
VWindows 7 Professional
p3457
sVinstallDate
p3458
V2011-08-31 11:07:00.000
p3459
ssVQUK390-POS1
p3460
(dp3461
Vtype
p3462
VWindows 7 Professional
p3463
sVinstallDate
p3464
V2011-08-31 11:07:00.000
p3465
ssVMLH036-POS1
p3466
(dp3467
Vtype
p3468
VWindows XP Professional
p3469
sVinstallDate
p3470
V2008-07-22 07:51:00.000
p3471
ssVGLE004-POS2
p3472
(dp3473
Vtype
p3474
VWindows 7 Professional
p3475
sVinstallDate
p3476
V2011-08-31 11:07:00.000
p3477
ssV_UltraPC-Test
p3478
(dp3479
Vtype
p3480
VWindows 7 Professional
p3481
sVinstallDate
p3482
V2011-08-31 11:07:00.000
p3483
ssVQUK635-POS1
p3484
(dp3485
Vtype
p3486
VWindows 7 Professional
p3487
sVinstallDate
p3488
V2011-08-31 11:07:00.000
p3489
ssVGLE004-POS1
p3490
(dp3491
Vtype
p3492
VWindows 7 Professional
p3493
sVinstallDate
p3494
V2011-08-31 11:07:00.000
p3495
ssVABC226-POS1
p3496
(dp3497
Vtype
p3498
VWindows 7 Professional
p3499
sVinstallDate
p3500
V2014-02-18 09:11:00.000
p3501
ssVQUK350-POS1
p3502
(dp3503
Vtype
p3504
VWindows 7 Professional
p3505
sVinstallDate
p3506
V2011-08-31 11:07:00.000
p3507
ssVGMC009-POS1
p3508
(dp3509
Vtype
p3510
VWindows 7 Professional
p3511
sVinstallDate
p3512
V2011-08-31 11:07:00.000
p3513
ssVGMC009-POS2
p3514
(dp3515
Vtype
p3516
VWindows 7 Professional
p3517
sVinstallDate
p3518
V2011-08-31 11:07:00.000
p3519
ssVGMC009-POS3
p3520
(dp3521
Vtype
p3522
VWindows 7 Professional
p3523
sVinstallDate
p3524
V2011-08-31 11:07:00.000
p3525
ssVCPS036-S
p3526
(dp3527
Vtype
p3528
VWindows 7 Professional
p3529
sVinstallDate
p3530
V2011-08-31 11:07:00.000
p3531
ssVIPK201-POS1
p3532
(dp3533
Vtype
p3534
VWindows 7 Professional
p3535
sVinstallDate
p3536
V2011-08-31 11:07:00.000
p3537
ssVMNH048-POS1
p3538
(dp3539
Vtype
p3540
VWindows 7 Professional
p3541
sVinstallDate
p3542
V2011-08-31 11:07:00.000
p3543
ssVMLH075-POS1
p3544
(dp3545
Vtype
p3546
VWindows XP Professional
p3547
sVinstallDate
p3548
V2008-07-22 07:51:00.000
p3549
ssVABC027-POS1
p3550
(dp3551
Vtype
p3552
VWindows 7 Professional
p3553
sVinstallDate
p3554
V2011-08-31 11:07:00.000
p3555
ssVMLH075-POS2
p3556
(dp3557
Vtype
p3558
VWindows XP Professional
p3559
sVinstallDate
p3560
V2008-07-22 07:51:00.000
p3561
ssVABC097-W1
p3562
(dp3563
Vtype
p3564
VWindows 7 Professional
p3565
sVinstallDate
p3566
V2011-08-31 11:07:00.000
p3567
ssVGMC006-POS1
p3568
(dp3569
Vtype
p3570
VWindows 7 Professional
p3571
sVinstallDate
p3572
V2011-08-31 11:07:00.000
p3573
ssVRDN280-S
p3574
(dp3575
Vtype
p3576
VWindows 7 Professional
p3577
sVinstallDate
p3578
V2011-08-31 11:07:00.000
p3579
ssVCPS014-S
p3580
(dp3581
Vtype
p3582
VWindows 7 Professional
p3583
sVinstallDate
p3584
V2011-08-31 11:07:00.000
p3585
ssVABC034-POS1
p3586
(dp3587
Vtype
p3588
VWindows 7 Professional
p3589
sVinstallDate
p3590
V2011-08-31 11:07:00.000
p3591
ssVSEL400-S
p3592
(dp3593
Vtype
p3594
VWindows XP Professional
p3595
sVinstallDate
p3596
V2007-05-15 15:50:00.000
p3597
ssVKIN034-POS1
p3598
(dp3599
Vtype
p3600
VWindows 7 Professional
p3601
sVinstallDate
p3602
V2011-08-31 11:07:00.000
p3603
ssVKIN038-POS1
p3604
(dp3605
Vtype
p3606
VWindows 7 Professional
p3607
sVinstallDate
p3608
V2011-08-31 11:07:00.000
p3609
ssVKIN038-POS2
p3610
(dp3611
Vtype
p3612
VWindows 7 Professional
p3613
sVinstallDate
p3614
V2011-08-31 11:07:00.000
p3615
ssVMLH028-POS1
p3616
(dp3617
Vtype
p3618
VWindows 7 Professional
p3619
sVinstallDate
p3620
V2011-08-31 11:07:00.000
p3621
ssVMLH036-POS2
p3622
(dp3623
Vtype
p3624
VWindows XP Professional
p3625
sVinstallDate
p3626
V2008-07-22 07:51:00.000
p3627
ssVCCP001-S
p3628
(dp3629
Vtype
p3630
VWindows 7 Professional
p3631
sVinstallDate
p3632
V2010-02-02 10:15:00.000
p3633
ssVMNH165-POS1
p3634
(dp3635
Vtype
p3636
VWindows 7 Professional
p3637
sVinstallDate
p3638
V2011-08-31 11:07:00.000
p3639
ssVQUK710-POS1
p3640
(dp3641
Vtype
p3642
VWindows 7 Professional
p3643
sVinstallDate
p3644
V2011-08-31 11:07:00.000
p3645
ssVABC082-S
p3646
(dp3647
Vtype
p3648
VWindows 7 Professional
p3649
sVinstallDate
p3650
V2011-08-31 11:07:00.000
p3651
ssVMLH012-POS2
p3652
(dp3653
Vtype
p3654
VWindows 7 Professional
p3655
sVinstallDate
p3656
V2011-08-31 11:07:00.000
p3657
ssVKIN063-POS1
p3658
(dp3659
Vtype
p3660
VWindows 7 Professional
p3661
sVinstallDate
p3662
V2011-08-31 11:07:00.000
p3663
ssVRPD055-S
p3664
(dp3665
Vtype
p3666
VWindows 7 Professional
p3667
sVinstallDate
p3668
V2011-08-31 11:07:00.000
p3669
ssVMNH012-POS1
p3670
(dp3671
Vtype
p3672
VWindows 7 Professional
p3673
sVinstallDate
p3674
V2011-08-31 11:07:00.000
p3675
ssVABC227-POS1
p3676
(dp3677
Vtype
p3678
VWindows 7 Professional
p3679
sVinstallDate
p3680
V2014-02-18 09:11:00.000
p3681
ssVGMC067-POS1
p3682
(dp3683
Vtype
p3684
VWindows 7 Professional
p3685
sVinstallDate
p3686
V2011-08-31 11:07:00.000
p3687
ssVABC224-POS002
p3688
(dp3689
Vtype
p3690
VWindows 7 Professional
p3691
sVinstallDate
p3692
V2011-08-31 11:07:00.000
p3693
ssVAMP001-S
p3694
(dp3695
Vtype
p3696
VWindows 7 Professional
p3697
sVinstallDate
p3698
V2012-02-22 16:38:00.000
p3699
ssVCPS034-S
p3700
(dp3701
Vtype
p3702
VWindows 7 Professional
p3703
sVinstallDate
p3704
V2011-08-31 11:07:00.000
p3705
ssVGOT164-S
p3706
(dp3707
Vtype
p3708
VWindows XP Professional
p3709
sVinstallDate
p3710
V2008-06-26 14:23:00.000
p3711
ssVMTP047-POS1
p3712
(dp3713
Vtype
p3714
VWindows 7 Professional
p3715
sVinstallDate
p3716
V2011-08-31 11:07:00.000
p3717
ssVMNH014-S
p3718
(dp3719
Vtype
p3720
VWindows XP Professional
p3721
sVinstallDate
p3722
V2007-05-15 15:50:00.000
p3723
ssVQUK010-POS1
p3724
(dp3725
Vtype
p3726
VWindows 7 Professional
p3727
sVinstallDate
p3728
V2011-08-31 11:07:00.000
p3729
ssVABC221-POS1
p3730
(dp3731
Vtype
p3732
VWindows 7 Professional
p3733
sVinstallDate
p3734
V2014-02-18 09:11:00.000
p3735
ssVGLE056-POS1
p3736
(dp3737
Vtype
p3738
VWindows 7 Professional
p3739
sVinstallDate
p3740
V2011-08-31 11:07:00.000
p3741
ssVQUK091-POS1
p3742
(dp3743
Vtype
p3744
VWindows 7 Professional
p3745
sVinstallDate
p3746
V2011-08-31 11:07:00.000
p3747
ssVABC224-S
p3748
(dp3749
Vtype
p3750
VWindows 7 Professional
p3751
sVinstallDate
p3752
V2011-08-31 11:07:00.000
p3753
ssVGLE073-POS1
p3754
(dp3755
Vtype
p3756
VWindows 7 Professional
p3757
sVinstallDate
p3758
V2011-08-31 11:07:00.000
p3759
ssVQUK731-POS1
p3760
(dp3761
Vtype
p3762
VWindows 7 Professional
p3763
sVinstallDate
p3764
V2012-02-22 16:38:00.000
p3765
ssVSPN003-S
p3766
(dp3767
Vtype
p3768
VWindows 7 Professional
p3769
sVinstallDate
p3770
V2010-02-02 10:15:00.000
p3771
ssVRPD001-POS1
p3772
(dp3773
Vtype
p3774
VWindows 7 Professional
p3775
sVinstallDate
p3776
V2011-08-31 11:07:00.000
p3777
ssVSEL076-S
p3778
(dp3779
Vtype
p3780
VWindows XP Professional
p3781
sVinstallDate
p3782
V2008-05-29 15:39:00.000
p3783
ssVVPN007-POS1
p3784
(dp3785
Vtype
p3786
VWindows 7 Professional
p3787
sVinstallDate
p3788
V2012-02-22 16:38:00.000
p3789
ssVABC030-POS1
p3790
(dp3791
Vtype
p3792
VWindows 7 Professional
p3793
sVinstallDate
p3794
V2011-08-31 11:07:00.000
p3795
ssVMLH704-POS1
p3796
(dp3797
Vtype
p3798
VWindows 7 Professional
p3799
sVinstallDate
p3800
V2011-08-31 11:07:00.000
p3801
ssVRGC015-S
p3802
(dp3803
Vtype
p3804
VWindows XP Professional
p3805
sVinstallDate
p3806
V2007-11-05 13:36:00.000
p3807
ssVABC065-POS1
p3808
(dp3809
Vtype
p3810
VWindows 7 Professional
p3811
sVinstallDate
p3812
V2011-08-31 11:07:00.000
p3813
ssVABC071-POS1
p3814
(dp3815
Vtype
p3816
VWindows 7 Professional
p3817
sVinstallDate
p3818
V2014-02-18 09:11:00.000
p3819
ssVRPD039-POS1
p3820
(dp3821
Vtype
p3822
VWindows 7 Professional
p3823
sVinstallDate
p3824
V2011-08-31 11:07:00.000
p3825
ssVQUK050-POS1
p3826
(dp3827
Vtype
p3828
VWindows 7 Professional
p3829
sVinstallDate
p3830
V2014-02-18 09:11:00.000
p3831
ssVPRK029-S
p3832
(dp3833
Vtype
p3834
VWindows XP Professional
p3835
sVinstallDate
p3836
V2008-06-26 14:23:00.000
p3837
ssVGLE091-POS1
p3838
(dp3839
Vtype
p3840
VWindows 7 Professional
p3841
sVinstallDate
p3842
V2011-08-31 11:07:00.000
p3843
ssVTIS005-POS1
p3844
(dp3845
Vtype
p3846
VWindows 7 Professional
p3847
sVinstallDate
p3848
V2011-08-31 11:07:00.000
p3849
ssVVPN005-POS1
p3850
(dp3851
Vtype
p3852
VWindows 7 Professional
p3853
sVinstallDate
p3854
V2012-02-22 16:38:00.000
p3855
ssVPRK077-S
p3856
(dp3857
Vtype
p3858
VWindows 7 Professional
p3859
sVinstallDate
p3860
V2011-08-31 11:07:00.000
p3861
ssVEXP001-W1
p3862
(dp3863
Vtype
p3864
VWindows XP Professional
p3865
sVinstallDate
p3866
V2008-07-22 07:51:00.000
p3867
ssVKIN010-POS1
p3868
(dp3869
Vtype
p3870
VWindows 7 Professional
p3871
sVinstallDate
p3872
V2011-08-31 11:07:00.000
p3873
ssVABC015-POS1
p3874
(dp3875
Vtype
p3876
VWindows 7 Professional
p3877
sVinstallDate
p3878
V2011-08-31 11:07:00.000
p3879
ssVMNH002-POS1
p3880
(dp3881
Vtype
p3882
VWindows 7 Professional
p3883
sVinstallDate
p3884
V2011-08-31 11:07:00.000
p3885
ssVMNH071-S
p3886
(dp3887
Vtype
p3888
VWindows 7 Professional
p3889
sVinstallDate
p3890
V2011-08-31 11:07:00.000
p3891
ssVABC087-POS1
p3892
(dp3893
Vtype
p3894
VWindows 7 Professional
p3895
sVinstallDate
p3896
V2014-02-18 09:11:00.000
p3897
ssVABC041-S
p3898
(dp3899
Vtype
p3900
VWindows 7 Professional
p3901
sVinstallDate
p3902
V2011-08-31 11:07:00.000
p3903
ssVSEL054-S
p3904
(dp3905
Vtype
p3906
VWindows XP Professional
p3907
sVinstallDate
p3908
V2008-06-26 14:23:00.000
p3909
ssVABC252-POS1
p3910
(dp3911
Vtype
p3912
VWindows 7 Professional
p3913
sVinstallDate
p3914
V2012-02-22 16:38:00.000
p3915
ssVGLE077-POS1
p3916
(dp3917
Vtype
p3918
VWindows 7 Professional
p3919
sVinstallDate
p3920
V2011-08-31 11:07:00.000
p3921
ssVMLH082-POS1
p3922
(dp3923
Vtype
p3924
VWindows 7 Professional
p3925
sVinstallDate
p3926
V2011-08-31 11:07:00.000
p3927
ssVMLH078-POS2
p3928
(dp3929
Vtype
p3930
VWindows XP Professional
p3931
sVinstallDate
p3932
V2008-06-26 14:23:00.000
p3933
ssVMNH004-POS1
p3934
(dp3935
Vtype
p3936
VWindows 7 Professional
p3937
sVinstallDate
p3938
V2011-08-31 11:07:00.000
p3939
ssVMLH078-POS1
p3940
(dp3941
Vtype
p3942
VWindows XP Professional
p3943
sVinstallDate
p3944
V2008-06-26 14:23:00.000
p3945
ssVABC009-POS1
p3946
(dp3947
Vtype
p3948
VWindows 7 Professional
p3949
sVinstallDate
p3950
V2014-02-18 09:11:00.000
p3951
ssVMLH051-POS2
p3952
(dp3953
Vtype
p3954
VWindows XP Professional
p3955
sVinstallDate
p3956
V2008-07-22 07:51:00.000
p3957
ssVMLH161-POS2
p3958
(dp3959
Vtype
p3960
VWindows 7 Professional
p3961
sVinstallDate
p3962
V2010-12-01 15:12:00.000
p3963
ssVMLH161-POS1
p3964
(dp3965
Vtype
p3966
VWindows 7 Professional
p3967
sVinstallDate
p3968
V2010-12-01 15:12:00.000
p3969
ssVABC222-POS1
p3970
(dp3971
Vtype
p3972
VWindows 7 Professional
p3973
sVinstallDate
p3974
V2012-02-22 16:38:00.000
p3975
ssVPPA030-S
p3976
(dp3977
Vtype
p3978
VWindows 7 Professional
p3979
sVinstallDate
p3980
V2012-02-22 16:38:00.000
p3981
ssVTSQ029-S
p3982
(dp3983
Vtype
p3984
VWindows 7 Professional
p3985
sVinstallDate
p3986
V2011-08-31 11:07:00.000
p3987
ssVABC017-POS1
p3988
(dp3989
Vtype
p3990
VWindows 7 Professional
p3991
sVinstallDate
p3992
V2011-08-31 11:07:00.000
p3993
ssVMLH257-POS3
p3994
(dp3995
Vtype
p3996
VWindows 7 Professional
p3997
sVinstallDate
p3998
V2011-08-31 11:07:00.000
p3999
ssVMLH257-POS2
p4000
(dp4001
Vtype
p4002
VWindows 7 Professional
p4003
sVinstallDate
p4004
V2011-08-31 11:07:00.000
p4005
ssVMLH257-POS1
p4006
(dp4007
Vtype
p4008
VWindows 7 Professional
p4009
sVinstallDate
p4010
V2011-08-31 11:07:00.000
p4011
ssVMLH004-POS1
p4012
(dp4013
Vtype
p4014
VWindows 7 Professional
p4015
sVinstallDate
p4016
V2011-08-31 11:07:00.000
p4017
ssVABC244-POS2
p4018
(dp4019
Vtype
p4020
VWindows 7 Professional
p4021
sVinstallDate
p4022
V2012-02-22 16:38:00.000
p4023
ssVMLH011-POS1
p4024
(dp4025
Vtype
p4026
VWindows 7 Professional
p4027
sVinstallDate
p4028
V2011-08-31 11:07:00.000
p4029
ssVMLH004-POS2
p4030
(dp4031
Vtype
p4032
VWindows 7 Professional
p4033
sVinstallDate
p4034
V2011-08-31 11:07:00.000
p4035
ssVMLH109-POS1
p4036
(dp4037
Vtype
p4038
VWindows 7 Professional
p4039
sVinstallDate
p4040
V2010-12-01 15:12:00.000
p4041
ssVQUK779-POS1
p4042
(dp4043
Vtype
p4044
VWindows 7 Professional
p4045
sVinstallDate
p4046
V2012-02-22 16:38:00.000
p4047
ssVMLH109-POS2
p4048
(dp4049
Vtype
p4050
VWindows 7 Professional
p4051
sVinstallDate
p4052
V2010-12-01 15:12:00.000
p4053
ssVMLH095-POS1
p4054
(dp4055
Vtype
p4056
VWindows XP Professional
p4057
sVinstallDate
p4058
V2008-07-22 07:51:00.000
p4059
ssVTSQ203-POS1
p4060
(dp4061
Vtype
p4062
VWindows 7 Professional
p4063
sVinstallDate
p4064
V2011-08-31 11:07:00.000
p4065
ssVABC244-POS1
p4066
(dp4067
Vtype
p4068
VWindows 7 Professional
p4069
sVinstallDate
p4070
V2012-02-22 16:38:00.000
p4071
ssVQUK808-POS1
p4072
(dp4073
Vtype
p4074
VWindows 7 Professional
p4075
sVinstallDate
p4076
V2011-08-31 11:07:00.000
p4077
ssVKIN015-POS1
p4078
(dp4079
Vtype
p4080
VWindows 7 Professional
p4081
sVinstallDate
p4082
V2011-08-31 11:07:00.000
p4083
ssVMNH055-POS1
p4084
(dp4085
Vtype
p4086
VWindows 7 Professional
p4087
sVinstallDate
p4088
V2011-08-31 11:07:00.000
p4089
ssVABC250-POS1
p4090
(dp4091
Vtype
p4092
VWindows 7 Professional
p4093
sVinstallDate
p4094
V2014-02-18 09:11:00.000
p4095
ssVGLE001-POS1
p4096
(dp4097
Vtype
p4098
VWindows 7 Professional
p4099
sVinstallDate
p4100
V2011-08-31 11:07:00.000
p4101
ssVKIN040-POS2
p4102
(dp4103
Vtype
p4104
VWindows 7 Professional
p4105
sVinstallDate
p4106
V2011-08-31 11:07:00.000
p4107
ssVVFC001-POS1
p4108
(dp4109
Vtype
p4110
VWindows 7 Professional
p4111
sVinstallDate
p4112
V2015-02-02 16:25:00.000
p4113
ssVKIN040-POS1
p4114
(dp4115
Vtype
p4116
VWindows 7 Professional
p4117
sVinstallDate
p4118
V2011-08-31 11:07:00.000
p4119
ssVABC193-POS1
p4120
(dp4121
Vtype
p4122
VWindows 7 Professional
p4123
sVinstallDate
p4124
V2012-02-22 16:38:00.000
p4125
ssVTSQ204-S 
p4126
(dp4127
Vtype
p4128
VWindows 7 Professional
p4129
sVinstallDate
p4130
V2011-08-31 11:07:00.000
p4131
ssVTIS001-POS1
p4132
(dp4133
Vtype
p4134
VWindows 7 Professional
p4135
sVinstallDate
p4136
V2011-08-31 11:07:00.000
p4137
ssVMLH155-POS1
p4138
(dp4139
Vtype
p4140
VWindows XP Professional
p4141
sVinstallDate
p4142
V2008-07-22 07:51:00.000
p4143
ssVMLH155-POS2
p4144
(dp4145
Vtype
p4146
VWindows XP Professional
p4147
sVinstallDate
p4148
V2008-07-22 07:51:00.000
p4149
ssVABC051-SERVER
p4150
(dp4151
Vtype
p4152
NsVinstallDate
p4153
NssVTIS006-POS2
p4154
(dp4155
Vtype
p4156
VWindows 7 Professional
p4157
sVinstallDate
p4158
V2011-08-31 11:07:00.000
p4159
ssVQUK712-POS1
p4160
(dp4161
Vtype
p4162
VWindows 7 Professional
p4163
sVinstallDate
p4164
V2011-08-31 11:07:00.000
p4165
ssVTIS006-POS1
p4166
(dp4167
Vtype
p4168
VWindows 7 Professional
p4169
sVinstallDate
p4170
V2011-08-31 11:07:00.000
p4171
ssVABC077-S
p4172
(dp4173
Vtype
p4174
VWindows 7 Professional
p4175
sVinstallDate
p4176
V2011-08-31 11:07:00.000
p4177
ssVRPD020-POS1
p4178
(dp4179
Vtype
p4180
VWindows 7 Professional
p4181
sVinstallDate
p4182
V2011-08-31 11:07:00.000
p4183
ssVQUK711-POS1
p4184
(dp4185
Vtype
p4186
VWindows 7 Professional
p4187
sVinstallDate
p4188
V2011-08-31 11:07:00.000
p4189
ssVTSQ201-POS2
p4190
(dp4191
Vtype
p4192
VWindows 7 Professional
p4193
sVinstallDate
p4194
V2011-08-31 11:07:00.000
p4195
ssVMLH233-POS1
p4196
(dp4197
Vtype
p4198
VWindows 7 Professional
p4199
sVinstallDate
p4200
V2011-08-31 11:07:00.000
p4201
ssVMLH666-POS1
p4202
(dp4203
Vtype
p4204
VWindows 7 Professional
p4205
sVinstallDate
p4206
V2011-08-31 11:07:00.000
p4207
ssVMLH709-POS1
p4208
(dp4209
Vtype
p4210
VWindows 7 Professional
p4211
sVinstallDate
p4212
V2011-08-31 11:07:00.000
p4213
ssVMLH233-POS2
p4214
(dp4215
Vtype
p4216
VWindows 7 Professional
p4217
sVinstallDate
p4218
V2011-08-31 11:07:00.000
p4219
ssVMLH740-POS1
p4220
(dp4221
Vtype
p4222
VWindows 7 Professional
p4223
sVinstallDate
p4224
V2011-08-31 11:07:00.000
p4225
ssVMLH769-POS1
p4226
(dp4227
Vtype
p4228
VWindows 7 Professional
p4229
sVinstallDate
p4230
V2011-08-31 11:07:00.000
p4231
ssVGLE002-POS2
p4232
(dp4233
Vtype
p4234
VWindows 7 Professional
p4235
sVinstallDate
p4236
V2011-08-31 11:07:00.000
p4237
ssVMLH729-POS1
p4238
(dp4239
Vtype
p4240
VWindows 7 Professional
p4241
sVinstallDate
p4242
V2011-08-31 11:07:00.000
p4243
ssVSEL001-S
p4244
(dp4245
Vtype
p4246
VWindows XP Professional
p4247
sVinstallDate
p4248
V2008-06-26 14:23:00.000
p4249
ssVMLH049-POS2
p4250
(dp4251
Vtype
p4252
VWindows 7 Professional
p4253
sVinstallDate
p4254
V2011-08-31 11:07:00.000
p4255
ssVMLH049-POS1
p4256
(dp4257
Vtype
p4258
VWindows 7 Professional
p4259
sVinstallDate
p4260
V2011-08-31 11:07:00.000
p4261
ssVSEL054-W1
p4262
(dp4263
Vtype
p4264
VWindows XP Professional
p4265
sVinstallDate
p4266
V2008-06-26 14:23:00.000
p4267
ssVQUK064-POS1
p4268
(dp4269
Vtype
p4270
VWindows 7 Professional
p4271
sVinstallDate
p4272
V2011-08-31 11:07:00.000
p4273
ssVCPS054-S
p4274
(dp4275
Vtype
p4276
VWindows 7 Professional
p4277
sVinstallDate
p4278
V2011-08-31 11:07:00.000
p4279
ssVAMP003-POS2
p4280
(dp4281
Vtype
p4282
VWindows 7 Professional
p4283
sVinstallDate
p4284
V2012-02-22 16:38:00.000
p4285
ssVAMP003-POS1
p4286
(dp4287
Vtype
p4288
VWindows 7 Professional
p4289
sVinstallDate
p4290
V2012-02-22 16:38:00.000
p4291
ssVMLH039-POS1
p4292
(dp4293
Vtype
p4294
VWindows 7 Professional
p4295
sVinstallDate
p4296
V2011-08-31 11:07:00.000
p4297
ssVQUK022-POS1
p4298
(dp4299
Vtype
p4300
VWindows 7 Professional
p4301
sVinstallDate
p4302
V2011-08-31 11:07:00.000
p4303
ssVTSQ045-S
p4304
(dp4305
Vtype
p4306
VWindows 7 Professional
p4307
sVinstallDate
p4308
V2011-08-31 11:07:00.000
p4309
ssVSEL333-POS1
p4310
(dp4311
Vtype
p4312
VWindows 7 Professional
p4313
sVinstallDate
p4314
V2011-08-31 11:07:00.000
p4315
ssVABC021-POS1
p4316
(dp4317
Vtype
p4318
VWindows 7 Professional
p4319
sVinstallDate
p4320
V2011-08-31 11:07:00.000
p4321
ssVQUK361-POS1
p4322
(dp4323
Vtype
p4324
VWindows 7 Professional
p4325
sVinstallDate
p4326
V2015-02-02 16:25:00.000
p4327
ssVABC258-POS1
p4328
(dp4329
Vtype
p4330
VWindows 7 Professional
p4331
sVinstallDate
p4332
V2012-02-22 16:38:00.000
p4333
ssVABC041-POS1
p4334
(dp4335
Vtype
p4336
VWindows 7 Professional
p4337
sVinstallDate
p4338
V2011-08-31 11:07:00.000
p4339
ssVSEL131-S
p4340
(dp4341
Vtype
p4342
VWindows XP Professional
p4343
sVinstallDate
p4344
V2008-06-26 14:23:00.000
p4345
ssVMLH014-POS2
p4346
(dp4347
Vtype
p4348
VWindows XP Professional
p4349
sVinstallDate
p4350
V2008-07-22 07:51:00.000
p4351
ssVINT009-POS1
p4352
(dp4353
Vtype
p4354
VWindows 7 Professional
p4355
sVinstallDate
p4356
V2012-02-22 16:38:00.000
p4357
ssVABC253-POS2
p4358
(dp4359
Vtype
p4360
VWindows 7 Professional
p4361
sVinstallDate
p4362
V2011-08-31 11:07:00.000
p4363
ssVMLH880-POS3
p4364
(dp4365
Vtype
p4366
VWindows XP Professional
p4367
sVinstallDate
p4368
V2008-07-22 07:51:00.000
p4369
ssVQUK340-POS1
p4370
(dp4371
Vtype
p4372
VWindows 7 Professional
p4373
sVinstallDate
p4374
V2015-02-02 16:25:00.000
p4375
ssVMLH880-POS2
p4376
(dp4377
Vtype
p4378
VWindows XP Professional
p4379
sVinstallDate
p4380
V2008-07-22 07:51:00.000
p4381
ssVSEL185-W1
p4382
(dp4383
Vtype
p4384
VWindows XP Professional
p4385
sVinstallDate
p4386
V2008-06-26 14:23:00.000
p4387
ssVSPN002-S
p4388
(dp4389
Vtype
p4390
VWindows XP Professional
p4391
sVinstallDate
p4392
V2007-05-15 15:50:00.000
p4393
ssVMNH173-S
p4394
(dp4395
Vtype
p4396
VWindows 7 Professional
p4397
sVinstallDate
p4398
V2010-02-02 10:15:00.000
p4399
ssVMLH105-POS1
p4400
(dp4401
Vtype
p4402
VWindows XP Professional
p4403
sVinstallDate
p4404
V2008-06-26 14:23:00.000
p4405
ssVABC255-POS1
p4406
(dp4407
Vtype
p4408
VWindows 7 Professional
p4409
sVinstallDate
p4410
V2011-08-31 11:07:00.000
p4411
ssVMLH105-POS2
p4412
(dp4413
Vtype
p4414
VWindows XP Professional
p4415
sVinstallDate
p4416
V2008-06-26 14:23:00.000
p4417
ssVQUK311-POS1
p4418
(dp4419
Vtype
p4420
VWindows 7 Professional
p4421
sVinstallDate
p4422
V2011-08-31 11:07:00.000
p4423
ssVMLH703-POS1
p4424
(dp4425
Vtype
p4426
VWindows 7 Professional
p4427
sVinstallDate
p4428
V2011-08-31 11:07:00.000
p4429
ssVTSQ201-POS1
p4430
(dp4431
Vtype
p4432
VWindows 7 Professional
p4433
sVinstallDate
p4434
V2011-08-31 11:07:00.000
p4435
ssVSEL005-W1
p4436
(dp4437
Vtype
p4438
VWindows XP Professional
p4439
sVinstallDate
p4440
V2008-06-26 14:23:00.000
p4441
ssVQUK189-POS1
p4442
(dp4443
Vtype
p4444
VWindows 7 Professional
p4445
sVinstallDate
p4446
V2015-02-02 16:25:00.000
p4447
ssVMLH810-POS1
p4448
(dp4449
Vtype
p4450
VWindows XP Professional
p4451
sVinstallDate
p4452
V2008-07-22 07:51:00.000
p4453
ssVMLH810-POS2
p4454
(dp4455
Vtype
p4456
VWindows XP Professional
p4457
sVinstallDate
p4458
V2008-07-22 07:51:00.000
p4459
ssVABC092-S
p4460
(dp4461
Vtype
p4462
VWindows 7 Professional
p4463
sVinstallDate
p4464
V2011-08-31 11:07:00.000
p4465
ssVPPA011-S
p4466
(dp4467
Vtype
p4468
VWindows XP Professional
p4469
sVinstallDate
p4470
V2008-06-26 14:23:00.000
p4471
ssVEEP005-S
p4472
(dp4473
Vtype
p4474
VWindows 7 Professional
p4475
sVinstallDate
p4476
V2011-08-31 11:07:00.000
p4477
ssVQUK066-POS1
p4478
(dp4479
Vtype
p4480
VWindows 7 Professional
p4481
sVinstallDate
p4482
V2015-02-02 16:25:00.000
p4483
ssVMLH107-POS2
p4484
(dp4485
Vtype
p4486
VWindows 7 Professional
p4487
sVinstallDate
p4488
V2011-08-31 11:07:00.000
p4489
ssVMLH107-POS1
p4490
(dp4491
Vtype
p4492
VWindows 7 Professional
p4493
sVinstallDate
p4494
V2011-08-31 11:07:00.000
p4495
ssVQUK102-POS1
p4496
(dp4497
Vtype
p4498
VWindows 7 Professional
p4499
sVinstallDate
p4500
V2012-02-22 16:38:00.000
p4501
ssVGMC063-POS1
p4502
(dp4503
Vtype
p4504
VWindows 7 Professional
p4505
sVinstallDate
p4506
V2011-08-31 11:07:00.000
p4507
ssVMLH027-POS1
p4508
(dp4509
Vtype
p4510
VWindows 7 Professional
p4511
sVinstallDate
p4512
V2011-08-31 11:07:00.000
p4513
ssVRDN052-POS2
p4514
(dp4515
Vtype
p4516
VWindows 7 Professional
p4517
sVinstallDate
p4518
V2011-08-31 11:07:00.000
p4519
ssVRDN052-POS1
p4520
(dp4521
Vtype
p4522
VWindows 7 Professional
p4523
sVinstallDate
p4524
V2011-08-31 11:07:00.000
p4525
ssVABC010-S
p4526
(dp4527
Vtype
p4528
VWindows 7 Professional
p4529
sVinstallDate
p4530
V2011-08-31 11:07:00.000
p4531
ssVMLH017-POS1
p4532
(dp4533
Vtype
p4534
VWindows 7 Professional
p4535
sVinstallDate
p4536
V2011-08-31 11:07:00.000
p4537
ssVGMC041-POS1
p4538
(dp4539
Vtype
p4540
VWindows 7 Professional
p4541
sVinstallDate
p4542
V2011-08-31 11:07:00.000
p4543
ssVGOT153-S
p4544
(dp4545
Vtype
p4546
VWindows XP Professional
p4547
sVinstallDate
p4548
V2008-06-26 14:23:00.000
p4549
ssVGMC030-S
p4550
(dp4551
Vtype
p4552
VWindows XP Professional
p4553
sVinstallDate
p4554
V2007-05-15 15:50:00.000
p4555
ssVMLH048-POS1
p4556
(dp4557
Vtype
p4558
VWindows 7 Professional
p4559
sVinstallDate
p4560
V2011-08-31 11:07:00.000
p4561
ssVVPN006-POS1
p4562
(dp4563
Vtype
p4564
VWindows 7 Professional
p4565
sVinstallDate
p4566
V2012-02-22 16:38:00.000
p4567
ssVGMC035-POS1
p4568
(dp4569
Vtype
p4570
VWindows 7 Professional
p4571
sVinstallDate
p4572
V2011-08-31 11:07:00.000
p4573
ssVABC234-POS1
p4574
(dp4575
Vtype
p4576
VWindows 7 Professional
p4577
sVinstallDate
p4578
V2014-02-18 09:11:00.000
p4579
ssVABC223-POS1
p4580
(dp4581
Vtype
p4582
VWindows 7 Professional
p4583
sVinstallDate
p4584
V2014-02-18 09:11:00.000
p4585
ssVMNH008-POS1
p4586
(dp4587
Vtype
p4588
VWindows 7 Professional
p4589
sVinstallDate
p4590
V2011-08-31 11:07:00.000
p4591
ssVIPK202-POS1
p4592
(dp4593
Vtype
p4594
VWindows 7 Professional
p4595
sVinstallDate
p4596
V2011-08-31 11:07:00.000
p4597
ssVSEL088-POS1
p4598
(dp4599
Vtype
p4600
VWindows 7 Professional
p4601
sVinstallDate
p4602
V2011-08-31 11:07:00.000
p4603
ssVABC253-POS1
p4604
(dp4605
Vtype
p4606
VWindows 7 Professional
p4607
sVinstallDate
p4608
V2012-02-22 16:38:00.000
p4609
ssVABC243-S
p4610
(dp4611
Vtype
p4612
VWindows 7 Professional
p4613
sVinstallDate
p4614
V2014-02-18 09:11:00.000
p4615
ssVMLH710-POS1
p4616
(dp4617
Vtype
p4618
VWindows 7 Professional
p4619
sVinstallDate
p4620
V2011-08-31 11:07:00.000
p4621
ssVQUK027-POS1
p4622
(dp4623
Vtype
p4624
VWindows 7 Professional
p4625
sVinstallDate
p4626
V2011-08-31 11:07:00.000
p4627
ssVMLH009-POS2
p4628
(dp4629
Vtype
p4630
VWindows 7 Professional
p4631
sVinstallDate
p4632
V2011-08-31 11:07:00.000
p4633
ssVRPD001-POS2
p4634
(dp4635
Vtype
p4636
VWindows 7 Professional
p4637
sVinstallDate
p4638
V2011-08-31 11:07:00.000
p4639
ssVAMP516-S
p4640
(dp4641
Vtype
p4642
VWindows 7 Professional
p4643
sVinstallDate
p4644
V2014-02-18 09:11:00.000
p4645
ssVMLH009-POS1
p4646
(dp4647
Vtype
p4648
VWindows 7 Professional
p4649
sVinstallDate
p4650
V2011-08-31 11:07:00.000
p4651
ssVPRI001-S
p4652
(dp4653
Vtype
p4654
VWindows XP Professional
p4655
sVinstallDate
p4656
V2008-06-26 14:23:00.000
p4657
ssVMLH731-POS1
p4658
(dp4659
Vtype
p4660
VWindows XP Professional
p4661
sVinstallDate
p4662
V2008-07-22 07:51:00.000
p4663
ssVMLH068-POS1
p4664
(dp4665
Vtype
p4666
VWindows 7 Professional
p4667
sVinstallDate
p4668
V2011-08-31 11:07:00.000
p4669
ssVQUK751-POS1
p4670
(dp4671
Vtype
p4672
VWindows 7 Professional
p4673
sVinstallDate
p4674
V2012-02-22 16:38:00.000
p4675
ssVTSQ020-S
p4676
(dp4677
Vtype
p4678
VWindows 7 Professional
p4679
sVinstallDate
p4680
V2011-08-31 11:07:00.000
p4681
ssVGMC090-POS1
p4682
(dp4683
Vtype
p4684
VWindows 7 Professional
p4685
sVinstallDate
p4686
V2011-08-31 11:07:00.000
p4687
ssVMLH758-POS1
p4688
(dp4689
Vtype
p4690
VWindows 7 Professional
p4691
sVinstallDate
p4692
V2012-02-22 16:38:00.000
p4693
ssVGLE002-POS1
p4694
(dp4695
Vtype
p4696
VWindows 7 Professional
p4697
sVinstallDate
p4698
V2011-08-31 11:07:00.000
p4699
ssVMLH758-POS3
p4700
(dp4701
Vtype
p4702
VWindows 7 Professional
p4703
sVinstallDate
p4704
V2012-02-22 16:38:00.000
p4705
ssVMLH758-POS2
p4706
(dp4707
Vtype
p4708
VWindows 7 Professional
p4709
sVinstallDate
p4710
V2012-02-22 16:38:00.000
p4711
ssVMLH736-POS1
p4712
(dp4713
Vtype
p4714
VWindows 7 Professional
p4715
sVinstallDate
p4716
V2011-08-31 11:07:00.000
p4717
ssVPVP004-POS1
p4718
(dp4719
Vtype
p4720
VWindows 7 Professional
p4721
sVinstallDate
p4722
V2012-02-22 16:38:00.000
p4723
ssVMLH435-POS1
p4724
(dp4725
Vtype
p4726
VWindows XP Professional
p4727
sVinstallDate
p4728
V2008-06-26 14:23:00.000
p4729
ssVKIN022-POS1
p4730
(dp4731
Vtype
p4732
VWindows 7 Professional
p4733
sVinstallDate
p4734
V2011-08-31 11:07:00.000
p4735
ssVMLH083-POS1
p4736
(dp4737
Vtype
p4738
VWindows 7 Professional
p4739
sVinstallDate
p4740
V2011-08-31 11:07:00.000
p4741
ssVMLH888-KIOSK
p4742
(dp4743
Vtype
p4744
VWindows XP Professional
p4745
sVinstallDate
p4746
V2011-01-06 06:26:00.000
p4747
ssVABC077-W1
p4748
(dp4749
Vtype
p4750
VWindows 7 Professional
p4751
sVinstallDate
p4752
V2011-08-31 11:07:00.000
p4753
ssVMLH755-POS1
p4754
(dp4755
Vtype
p4756
VWindows XP Professional
p4757
sVinstallDate
p4758
V2008-07-22 07:51:00.000
p4759
ssVMAM117-S
p4760
(dp4761
Vtype
p4762
VWindows 7 Professional
p4763
sVinstallDate
p4764
V2011-08-31 11:07:00.000
p4765
ssVTSQ002-S
p4766
(dp4767
Vtype
p4768
VWindows 7 Professional
p4769
sVinstallDate
p4770
V2011-08-31 11:07:00.000
p4771
ssVRPD080-POS1
p4772
(dp4773
Vtype
p4774
VWindows 7 Professional
p4775
sVinstallDate
p4776
V2011-08-31 11:07:00.000
p4777
ssVQUK076-POS1
p4778
(dp4779
Vtype
p4780
VWindows 7 Professional
p4781
sVinstallDate
p4782
V2015-02-02 16:25:00.000
p4783
ssVKIN309-POS1
p4784
(dp4785
Vtype
p4786
VWindows 7 Professional
p4787
sVinstallDate
p4788
V2011-08-31 11:07:00.000
p4789
ssVMLH025-POS1
p4790
(dp4791
Vtype
p4792
VWindows XP Professional
p4793
sVinstallDate
p4794
V2008-07-22 07:51:00.000
p4795
ssVMLH025-POS2
p4796
(dp4797
Vtype
p4798
VWindows XP Professional
p4799
sVinstallDate
p4800
V2008-07-22 07:51:00.000
p4801
ssVABC075-S
p4802
(dp4803
Vtype
p4804
VWindows 7 Professional
p4805
sVinstallDate
p4806
V2011-08-31 11:07:00.000
p4807
ssVABC014-POS1
p4808
(dp4809
Vtype
p4810
VWindows 7 Professional
p4811
sVinstallDate
p4812
V2011-08-31 11:07:00.000
p4813
ssVMLH110-POS3
p4814
(dp4815
Vtype
p4816
VWindows 7 Professional
p4817
sVinstallDate
p4818
V2011-08-31 11:07:00.000
p4819
ssVMLH008-POS1
p4820
(dp4821
Vtype
p4822
NsVinstallDate
p4823
NssVMLH008-POS2
p4824
(dp4825
Vtype
p4826
VWindows XP Professional
p4827
sVinstallDate
p4828
V2008-06-26 14:23:00.000
p4829
ssVMLH744-POS1
p4830
(dp4831
Vtype
p4832
VWindows 7 Professional
p4833
sVinstallDate
p4834
V2011-08-31 11:07:00.000
p4835
ssVMLH066-POS1
p4836
(dp4837
Vtype
p4838
VWindows XP Professional
p4839
sVinstallDate
p4840
V2008-06-26 14:23:00.000
p4841
ssVMLH701-POS2
p4842
(dp4843
Vtype
p4844
VWindows 7 Professional
p4845
sVinstallDate
p4846
V2011-08-31 11:07:00.000
p4847
ssVMLH701-POS1
p4848
(dp4849
Vtype
p4850
VWindows 7 Professional
p4851
sVinstallDate
p4852
V2011-08-31 11:07:00.000
p4853
ssVMLH066-POS2
p4854
(dp4855
Vtype
p4856
VWindows XP Professional
p4857
sVinstallDate
p4858
V2008-06-26 14:23:00.000
p4859
ssVIPK203-POS1
p4860
(dp4861
Vtype
p4862
VWindows 7 Professional
p4863
sVinstallDate
p4864
V2011-08-31 11:07:00.000
p4865
ssVMNH050-S
p4866
(dp4867
Vtype
p4868
VWindows XP Professional
p4869
sVinstallDate
p4870
V2008-06-26 14:23:00.000
p4871
ssVGMC028-POS1
p4872
(dp4873
Vtype
p4874
VWindows 7 Professional
p4875
sVinstallDate
p4876
V2011-08-31 11:07:00.000
p4877
ssVABC251-POS1
p4878
(dp4879
Vtype
p4880
VWindows 7 Professional
p4881
sVinstallDate
p4882
V2012-02-22 16:38:00.000
p4883
ssVTSQ095-POS1
p4884
(dp4885
Vtype
p4886
VWindows 7 Professional
p4887
sVinstallDate
p4888
V2011-08-31 11:07:00.000
p4889
ssVGMC001-S
p4890
(dp4891
Vtype
p4892
VWindows 7 Professional
p4893
sVinstallDate
p4894
V2011-08-31 11:07:00.000
p4895
ssVMLH087-POS1
p4896
(dp4897
Vtype
p4898
VWindows XP Professional
p4899
sVinstallDate
p4900
V2008-06-26 14:23:00.000
p4901
ssVMLH087-POS2
p4902
(dp4903
Vtype
p4904
VWindows XP Professional
p4905
sVinstallDate
p4906
V2008-06-26 14:23:00.000
p4907
ssVMLH074-POS1
p4908
(dp4909
Vtype
p4910
VWindows XP Professional
p4911
sVinstallDate
p4912
V2008-06-26 14:23:00.000
p4913
ssVQUK116-POS1
p4914
(dp4915
Vtype
p4916
VWindows 7 Professional
p4917
sVinstallDate
p4918
V2011-08-31 11:07:00.000
p4919
ssVABC016-POS1
p4920
(dp4921
Vtype
p4922
VWindows 7 Professional
p4923
sVinstallDate
p4924
V2011-08-31 11:07:00.000
p4925
ssVQUK727-POS1
p4926
(dp4927
Vtype
p4928
VWindows 7 Professional
p4929
sVinstallDate
p4930
V2012-02-22 16:38:00.000
p4931
ssVTSQ205-S
p4932
(dp4933
Vtype
p4934
VWindows XP Professional
p4935
sVinstallDate
p4936
V2008-06-26 14:23:00.000
p4937
ssVQUK732-POS1
p4938
(dp4939
Vtype
p4940
VWindows 7 Professional
p4941
sVinstallDate
p4942
V2012-02-22 16:38:00.000
p4943
ssVRPD070-POS1
p4944
(dp4945
Vtype
p4946
VWindows 7 Professional
p4947
sVinstallDate
p4948
V2011-08-31 11:07:00.000
p4949
ssVABC066-POS1
p4950
(dp4951
Vtype
p4952
VWindows 7 Professional
p4953
sVinstallDate
p4954
V2012-02-22 16:38:00.000
p4955
ssVABC048-S
p4956
(dp4957
Vtype
p4958
VWindows 7 Professional
p4959
sVinstallDate
p4960
V2011-08-31 11:07:00.000
p4961
ssVMLH116-POS1
p4962
(dp4963
Vtype
p4964
VWindows XP Professional
p4965
sVinstallDate
p4966
V2008-06-26 14:23:00.000
p4967
ssVMLH730-POS1
p4968
(dp4969
Vtype
p4970
VWindows 7 Professional
p4971
sVinstallDate
p4972
V2011-08-31 11:07:00.000
p4973
ssVMLH706-POS1
p4974
(dp4975
Vtype
p4976
VWindows 7 Professional
p4977
sVinstallDate
p4978
V2011-08-31 11:07:00.000
p4979
ssVQUK752-POS1
p4980
(dp4981
Vtype
p4982
VWindows 7 Professional
p4983
sVinstallDate
p4984
V2011-08-31 11:07:00.000
p4985
ssVMNH350-POS1
p4986
(dp4987
Vtype
p4988
VWindows 7 Professional
p4989
sVinstallDate
p4990
V2011-08-31 11:07:00.000
p4991
ssVGMC018-S
p4992
(dp4993
Vtype
p4994
VWindows 7 Professional
p4995
sVinstallDate
p4996
V2011-08-31 11:07:00.000
p4997
ssVABC078-S
p4998
(dp4999
Vtype
p5000
VWindows 7 Professional
p5001
sVinstallDate
p5002
V2011-08-31 11:07:00.000
p5003
ssVRDN021-POS1
p5004
(dp5005
Vtype
p5006
VWindows 7 Professional
p5007
sVinstallDate
p5008
V2014-02-18 09:11:00.000
p5009
ssVOPI003-POS1
p5010
(dp5011
Vtype
p5012
VWindows 7 Professional
p5013
sVinstallDate
p5014
V2011-08-31 11:07:00.000
p5015
ssVRDN021-POS2
p5016
(dp5017
Vtype
p5018
VWindows 7 Professional
p5019
sVinstallDate
p5020
V2011-08-31 11:07:00.000
p5021
ssVTSQ009-S
p5022
(dp5023
Vtype
p5024
VWindows 7 Professional
p5025
sVinstallDate
p5026
V2011-08-31 11:07:00.000
p5027
ssVMLH015-POS1
p5028
(dp5029
Vtype
p5030
VWindows 7 Professional
p5031
sVinstallDate
p5032
V2011-08-31 11:07:00.000
p5033
ssVMLH098-POS1
p5034
(dp5035
Vtype
p5036
VWindows XP Professional
p5037
sVinstallDate
p5038
V2008-06-26 14:23:00.000
p5039
ssVMLH051-POS1
p5040
(dp5041
Vtype
p5042
VWindows XP Professional
p5043
sVinstallDate
p5044
V2008-07-22 07:51:00.000
p5045
ssVABC041-POS2
p5046
(dp5047
Vtype
p5048
VWindows 7 Professional
p5049
sVinstallDate
p5050
V2011-08-31 11:07:00.000
p5051
ssVSEL081-S
p5052
(dp5053
Vtype
p5054
VWindows XP Professional
p5055
sVinstallDate
p5056
V2008-06-26 14:23:00.000
p5057
ssVHIL175-S
p5058
(dp5059
Vtype
p5060
VWindows XP Professional
p5061
sVinstallDate
p5062
V2007-05-15 15:50:00.000
p5063
ssVMLH722-POS1
p5064
(dp5065
Vtype
p5066
VWindows 7 Professional
p5067
sVinstallDate
p5068
V2011-08-31 11:07:00.000
p5069
ssVMAM053-S
p5070
(dp5071
Vtype
p5072
VWindows 7 Professional
p5073
sVinstallDate
p5074
V2011-08-31 11:07:00.000
p5075
ssVMLH245-POS1
p5076
(dp5077
Vtype
p5078
VWindows XP Professional
p5079
sVinstallDate
p5080
V2008-06-26 14:23:00.000
p5081
ssVQUK301-POS1
p5082
(dp5083
Vtype
p5084
VWindows 7 Professional
p5085
sVinstallDate
p5086
V2015-02-02 16:25:00.000
p5087
ssVMAM074-POS1
p5088
(dp5089
Vtype
p5090
VWindows 7 Professional
p5091
sVinstallDate
p5092
V2011-08-31 11:07:00.000
p5093
ssVQUK360-POS1
p5094
(dp5095
Vtype
p5096
VWindows 7 Professional
p5097
sVinstallDate
p5098
V2011-08-31 11:07:00.000
p5099
ssVOPI034-POS1
p5100
(dp5101
Vtype
p5102
VWindows 7 Professional
p5103
sVinstallDate
p5104
V2011-08-31 11:07:00.000
p5105
ssVOPI034-POS2
p5106
(dp5107
Vtype
p5108
VWindows 7 Professional
p5109
sVinstallDate
p5110
NssVABC041-W1
p5111
(dp5112
Vtype
p5113
VWindows 7 Professional
p5114
sVinstallDate
p5115
V2011-08-31 11:07:00.000
p5116
ssVMLH705-POS1
p5117
(dp5118
Vtype
p5119
VWindows 7 Professional
p5120
sVinstallDate
p5121
V2011-08-31 11:07:00.000
p5122
ssVMLH093-POS1
p5123
(dp5124
Vtype
p5125
VWindows XP Professional
p5126
sVinstallDate
p5127
V2008-06-26 14:23:00.000
p5128
ssVQUK709-POS1
p5129
(dp5130
Vtype
p5131
VWindows 7 Professional
p5132
sVinstallDate
p5133
V2015-02-02 16:25:00.000
p5134
ssVMLH715-POS1
p5135
(dp5136
Vtype
p5137
VWindows 7 Professional
p5138
sVinstallDate
p5139
V2011-08-31 11:07:00.000
p5140
ssVOPI001-KIOSK
p5141
(dp5142
Vtype
p5143
NsVinstallDate
p5144
NssVABC001-POS1
p5145
(dp5146
Vtype
p5147
VWindows 7 Professional
p5148
sVinstallDate
p5149
V2011-08-31 11:07:00.000
p5150
ssVMLH738-POS1
p5151
(dp5152
Vtype
p5153
VWindows 7 Professional
p5154
sVinstallDate
p5155
V2011-08-31 11:07:00.000
p5156
ssVMNH065-POS1
p5157
(dp5158
Vtype
p5159
VWindows 7 Professional
p5160
sVinstallDate
p5161
V2011-08-31 11:07:00.000
p5162
ssVGMC031-S
p5163
(dp5164
Vtype
p5165
VWindows 7 Professional
p5166
sVinstallDate
p5167
V2011-08-31 11:07:00.000
p5168
ssVMLH707-POS1
p5169
(dp5170
Vtype
p5171
VWindows 7 Professional
p5172
sVinstallDate
p5173
V2011-08-31 11:07:00.000
p5174
ssVMLH756-POS1
p5175
(dp5176
Vtype
p5177
VWindows 7 Professional
p5178
sVinstallDate
p5179
V2011-08-31 11:07:00.000
p5180
ssVGOT139-S
p5181
(dp5182
Vtype
p5183
VWindows XP Professional
p5184
sVinstallDate
p5185
V2008-06-26 14:23:00.000
p5186
ssVMLH751-POS2
p5187
(dp5188
Vtype
p5189
VWindows 7 Professional
p5190
sVinstallDate
p5191
V2011-08-31 11:07:00.000
p5192
ssVMLH751-POS3
p5193
(dp5194
Vtype
p5195
VWindows 7 Professional
p5196
sVinstallDate
p5197
V2011-08-31 11:07:00.000
p5198
ssVMLH751-POS1
p5199
(dp5200
Vtype
p5201
VWindows 7 Professional
p5202
sVinstallDate
p5203
V2011-08-31 11:07:00.000
p5204
ssVINT029-S
p5205
(dp5206
Vtype
p5207
NsVinstallDate
p5208
NssVMLH769-POS2
p5209
(dp5210
Vtype
p5211
VWindows 7 Professional
p5212
sVinstallDate
p5213
V2011-08-31 11:07:00.000
p5214
ssVMPI002-S
p5215
(dp5216
Vtype
p5217
VWindows XP Professional
p5218
sVinstallDate
p5219
V2008-06-26 14:23:00.000
p5220
ssVMLH014-POS1
p5221
(dp5222
Vtype
p5223
VWindows 7 Professional
p5224
sVinstallDate
p5225
V2012-02-22 16:38:00.000
p5226
ssVKIN545-POS1
p5227
(dp5228
Vtype
p5229
VWindows 7 Professional
p5230
sVinstallDate
p5231
V2010-12-01 15:12:00.000
p5232
ssVKIN062-POS2
p5233
(dp5234
Vtype
p5235
VWindows 7 Professional
p5236
sVinstallDate
p5237
V2011-08-31 11:07:00.000
p5238
ssVMLH010-POS1
p5239
(dp5240
Vtype
p5241
VWindows XP Professional
p5242
sVinstallDate
p5243
V2008-07-22 07:51:00.000
p5244
ssVMLH010-POS2
p5245
(dp5246
Vtype
p5247
VWindows XP Professional
p5248
sVinstallDate
p5249
V2008-07-22 07:51:00.000
p5250
ssVKIN062-POS1
p5251
(dp5252
Vtype
p5253
VWindows 7 Professional
p5254
sVinstallDate
p5255
V2011-08-31 11:07:00.000
p5256
ss.